
target/thumbv7em-none-eabihf/debug/mem3:     file format elf32-littlearm


Disassembly of section .text:

08000194 <Reset>:
 8000194:	b580      	push	{r7, lr}
 8000196:	466f      	mov	r7, sp
 8000198:	f007 f8b4 	bl	8007304 <DefaultPreInit>
 800019c:	f240 0010 	movw	r0, #16
 80001a0:	f2c2 0000 	movt	r0, #8192	; 0x2000
 80001a4:	f240 011c 	movw	r1, #28
 80001a8:	f2c2 0100 	movt	r1, #8192	; 0x2000
 80001ac:	f006 ff7f 	bl	80070ae <_ZN2r08zero_bss17h221b7638b3f3a871E>
 80001b0:	f240 0000 	movw	r0, #0
 80001b4:	f2c2 0000 	movt	r0, #8192	; 0x2000
 80001b8:	f240 0110 	movw	r1, #16
 80001bc:	f2c2 0100 	movt	r1, #8192	; 0x2000
 80001c0:	f24a 1230 	movw	r2, #41264	; 0xa130
 80001c4:	f6c0 0200 	movt	r2, #2048	; 0x800
 80001c8:	f006 ffa0 	bl	800710c <_ZN2r09init_data17h18206475a7aff62aE>
 80001cc:	f64e 5088 	movw	r0, #60808	; 0xed88
 80001d0:	f2ce 0000 	movt	r0, #57344	; 0xe000
 80001d4:	6801      	ldr	r1, [r0, #0]
 80001d6:	f441 0170 	orr.w	r1, r1, #15728640	; 0xf00000
 80001da:	f006 ffcd 	bl	8007178 <_ZN4core3ptr14write_volatile17h75c0b939a11ab949E>
 80001de:	f007 f881 	bl	80072e4 <ResetTrampoline>

080001e2 <_ZN8cortex_m9interrupt4free17h34882cc7ee89e037E>:
 80001e2:	b580      	push	{r7, lr}
 80001e4:	466f      	mov	r7, sp
 80001e6:	b084      	sub	sp, #16
 80001e8:	f006 f92a 	bl	8006440 <_ZN8cortex_m8register7primask4read17h0c45b4b05362937eE>
 80001ec:	9000      	str	r0, [sp, #0]
 80001ee:	f807 0c02 	strb.w	r0, [r7, #-2]
 80001f2:	f002 fd8a 	bl	8002d0a <_ZN8cortex_m9interrupt7disable17hd121467e2c2d42acE>
 80001f6:	f007 f9cf 	bl	8007598 <_ZN10bare_metal15CriticalSection3new17hf9bac75e47662832E>
 80001fa:	a803      	add	r0, sp, #12
 80001fc:	9002      	str	r0, [sp, #8]
 80001fe:	9802      	ldr	r0, [sp, #8]
 8000200:	f000 f879 	bl	80002f6 <_ZN7stm32f39stm32f30311Peripherals4take28_$u7b$$u7b$closure$u7d$$u7d$17haf7e37618ac08c09E>
 8000204:	4601      	mov	r1, r0
 8000206:	9800      	ldr	r0, [sp, #0]
 8000208:	460a      	mov	r2, r1
 800020a:	9201      	str	r2, [sp, #4]
 800020c:	f807 1c01 	strb.w	r1, [r7, #-1]
 8000210:	f006 f92d 	bl	800646e <_ZN8cortex_m8register7primask7Primask9is_active17ha67525881a96d369E>
 8000214:	b928      	cbnz	r0, 8000222 <_ZN8cortex_m9interrupt4free17h34882cc7ee89e037E+0x40>
 8000216:	e7ff      	b.n	8000218 <_ZN8cortex_m9interrupt4free17h34882cc7ee89e037E+0x36>
 8000218:	9801      	ldr	r0, [sp, #4]
 800021a:	f000 0001 	and.w	r0, r0, #1
 800021e:	b004      	add	sp, #16
 8000220:	bd80      	pop	{r7, pc}
 8000222:	f002 fd6d 	bl	8002d00 <_ZN8cortex_m9interrupt6enable17h6aa339dbc4476ab6E>
 8000226:	e7f7      	b.n	8000218 <_ZN8cortex_m9interrupt4free17h34882cc7ee89e037E+0x36>

08000228 <_ZN7stm32f39stm32f30311Peripherals4take17h0a543645a8c95398E>:
 8000228:	b580      	push	{r7, lr}
 800022a:	466f      	mov	r7, sp
 800022c:	f7ff ffd9 	bl	80001e2 <_ZN8cortex_m9interrupt4free17h34882cc7ee89e037E>
 8000230:	bd80      	pop	{r7, pc}

08000232 <_ZN7stm32f39stm32f30311Peripherals5steal17h0aa2b01d41e45a70E>:
 8000232:	f240 0110 	movw	r1, #16
 8000236:	f2c2 0100 	movt	r1, #8192	; 0x2000
 800023a:	2001      	movs	r0, #1
 800023c:	7008      	strb	r0, [r1, #0]
 800023e:	4770      	bx	lr

08000240 <_ZN45_$LT$$LP$$RP$$u20$as$u20$core..fmt..Debug$GT$3fmt17h4cd5e1f2cdfb8a15E>:
 8000240:	b580      	push	{r7, lr}
 8000242:	466f      	mov	r7, sp
 8000244:	b084      	sub	sp, #16
 8000246:	9101      	str	r1, [sp, #4]
 8000248:	4601      	mov	r1, r0
 800024a:	9801      	ldr	r0, [sp, #4]
 800024c:	9102      	str	r1, [sp, #8]
 800024e:	9003      	str	r0, [sp, #12]
 8000250:	f648 2124 	movw	r1, #35364	; 0x8a24
 8000254:	f6c0 0100 	movt	r1, #2048	; 0x800
 8000258:	2202      	movs	r2, #2
 800025a:	f007 fcb3 	bl	8007bc4 <_ZN4core3fmt9Formatter3pad17h0369ee55ba314ae2E>
 800025e:	b004      	add	sp, #16
 8000260:	bd80      	pop	{r7, pc}

08000262 <_ZN4core3fmt9Arguments6new_v117h3eb9fef7a16c6557E>:
 8000262:	b580      	push	{r7, lr}
 8000264:	466f      	mov	r7, sp
 8000266:	b092      	sub	sp, #72	; 0x48
 8000268:	9301      	str	r3, [sp, #4]
 800026a:	9202      	str	r2, [sp, #8]
 800026c:	9103      	str	r1, [sp, #12]
 800026e:	9004      	str	r0, [sp, #16]
 8000270:	68b8      	ldr	r0, [r7, #8]
 8000272:	9005      	str	r0, [sp, #20]
 8000274:	910c      	str	r1, [sp, #48]	; 0x30
 8000276:	920d      	str	r2, [sp, #52]	; 0x34
 8000278:	930e      	str	r3, [sp, #56]	; 0x38
 800027a:	900f      	str	r0, [sp, #60]	; 0x3c
 800027c:	4282      	cmp	r2, r0
 800027e:	d306      	bcc.n	800028e <_ZN4core3fmt9Arguments6new_v117h3eb9fef7a16c6557E+0x2c>
 8000280:	e7ff      	b.n	8000282 <_ZN4core3fmt9Arguments6new_v117h3eb9fef7a16c6557E+0x20>
 8000282:	9802      	ldr	r0, [sp, #8]
 8000284:	9905      	ldr	r1, [sp, #20]
 8000286:	3101      	adds	r1, #1
 8000288:	4288      	cmp	r0, r1
 800028a:	d833      	bhi.n	80002f4 <_ZN4core3fmt9Arguments6new_v117h3eb9fef7a16c6557E+0x92>
 800028c:	e01b      	b.n	80002c6 <_ZN4core3fmt9Arguments6new_v117h3eb9fef7a16c6557E+0x64>
 800028e:	f648 214c 	movw	r1, #35404	; 0x8a4c
 8000292:	f6c0 0100 	movt	r1, #2048	; 0x800
 8000296:	9110      	str	r1, [sp, #64]	; 0x40
 8000298:	2001      	movs	r0, #1
 800029a:	9011      	str	r0, [sp, #68]	; 0x44
 800029c:	9106      	str	r1, [sp, #24]
 800029e:	9007      	str	r0, [sp, #28]
 80002a0:	f648 2028 	movw	r0, #35368	; 0x8a28
 80002a4:	f6c0 0000 	movt	r0, #2048	; 0x800
 80002a8:	6801      	ldr	r1, [r0, #0]
 80002aa:	6840      	ldr	r0, [r0, #4]
 80002ac:	910a      	str	r1, [sp, #40]	; 0x28
 80002ae:	900b      	str	r0, [sp, #44]	; 0x2c
 80002b0:	2004      	movs	r0, #4
 80002b2:	9008      	str	r0, [sp, #32]
 80002b4:	2000      	movs	r0, #0
 80002b6:	9009      	str	r0, [sp, #36]	; 0x24
 80002b8:	f648 21a0 	movw	r1, #35488	; 0x8aa0
 80002bc:	f6c0 0100 	movt	r1, #2048	; 0x800
 80002c0:	a806      	add	r0, sp, #24
 80002c2:	f007 f986 	bl	80075d2 <_ZN4core9panicking9panic_fmt17hfc78cf87d9b52ef4E>
 80002c6:	9805      	ldr	r0, [sp, #20]
 80002c8:	9904      	ldr	r1, [sp, #16]
 80002ca:	9a01      	ldr	r2, [sp, #4]
 80002cc:	9b02      	ldr	r3, [sp, #8]
 80002ce:	f8dd c00c 	ldr.w	ip, [sp, #12]
 80002d2:	f8c1 c000 	str.w	ip, [r1]
 80002d6:	604b      	str	r3, [r1, #4]
 80002d8:	f648 2328 	movw	r3, #35368	; 0x8a28
 80002dc:	f6c0 0300 	movt	r3, #2048	; 0x800
 80002e0:	f8d3 c000 	ldr.w	ip, [r3]
 80002e4:	685b      	ldr	r3, [r3, #4]
 80002e6:	f8c1 c010 	str.w	ip, [r1, #16]
 80002ea:	614b      	str	r3, [r1, #20]
 80002ec:	608a      	str	r2, [r1, #8]
 80002ee:	60c8      	str	r0, [r1, #12]
 80002f0:	b012      	add	sp, #72	; 0x48
 80002f2:	bd80      	pop	{r7, pc}
 80002f4:	e7cb      	b.n	800028e <_ZN4core3fmt9Arguments6new_v117h3eb9fef7a16c6557E+0x2c>

080002f6 <_ZN7stm32f39stm32f30311Peripherals4take28_$u7b$$u7b$closure$u7d$$u7d$17haf7e37618ac08c09E>:
 80002f6:	b580      	push	{r7, lr}
 80002f8:	466f      	mov	r7, sp
 80002fa:	b082      	sub	sp, #8
 80002fc:	9001      	str	r0, [sp, #4]
 80002fe:	f240 0010 	movw	r0, #16
 8000302:	f2c2 0000 	movt	r0, #8192	; 0x2000
 8000306:	7800      	ldrb	r0, [r0, #0]
 8000308:	07c0      	lsls	r0, r0, #31
 800030a:	b930      	cbnz	r0, 800031a <_ZN7stm32f39stm32f30311Peripherals4take28_$u7b$$u7b$closure$u7d$$u7d$17haf7e37618ac08c09E+0x24>
 800030c:	e7ff      	b.n	800030e <_ZN7stm32f39stm32f30311Peripherals4take28_$u7b$$u7b$closure$u7d$$u7d$17haf7e37618ac08c09E+0x18>
 800030e:	f7ff ff90 	bl	8000232 <_ZN7stm32f39stm32f30311Peripherals5steal17h0aa2b01d41e45a70E>
 8000312:	2001      	movs	r0, #1
 8000314:	f807 0c06 	strb.w	r0, [r7, #-6]
 8000318:	e003      	b.n	8000322 <_ZN7stm32f39stm32f30311Peripherals4take28_$u7b$$u7b$closure$u7d$$u7d$17haf7e37618ac08c09E+0x2c>
 800031a:	2000      	movs	r0, #0
 800031c:	f807 0c06 	strb.w	r0, [r7, #-6]
 8000320:	e7ff      	b.n	8000322 <_ZN7stm32f39stm32f30311Peripherals4take28_$u7b$$u7b$closure$u7d$$u7d$17haf7e37618ac08c09E+0x2c>
 8000322:	f817 0c06 	ldrb.w	r0, [r7, #-6]
 8000326:	f000 0001 	and.w	r0, r0, #1
 800032a:	b002      	add	sp, #8
 800032c:	bd80      	pop	{r7, pc}

0800032e <_ZN50_$LT$T$u20$as$u20$core..convert..Into$LT$U$GT$$GT$4into17h350beb4f9fd1127bE>:
 800032e:	b081      	sub	sp, #4
 8000330:	f88d 0002 	strb.w	r0, [sp, #2]
 8000334:	f88d 0003 	strb.w	r0, [sp, #3]
 8000338:	f89d 0003 	ldrb.w	r0, [sp, #3]
 800033c:	f000 0001 	and.w	r0, r0, #1
 8000340:	b001      	add	sp, #4
 8000342:	4770      	bx	lr

08000344 <_ZN52_$LT$$BP$const$u20$T$u20$as$u20$core..fmt..Debug$GT$3fmt17h8608c50c0e9b9e73E>:
 8000344:	b580      	push	{r7, lr}
 8000346:	466f      	mov	r7, sp
 8000348:	b084      	sub	sp, #16
 800034a:	9001      	str	r0, [sp, #4]
 800034c:	9102      	str	r1, [sp, #8]
 800034e:	6800      	ldr	r0, [r0, #0]
 8000350:	9003      	str	r0, [sp, #12]
 8000352:	f007 fd5e 	bl	8007e12 <_ZN4core3fmt17pointer_fmt_inner17ha989d9bfa1e1866dE>
 8000356:	b004      	add	sp, #16
 8000358:	bd80      	pop	{r7, pc}

0800035a <_ZN50_$LT$T$u20$as$u20$core..convert..Into$LT$U$GT$$GT$4into17h71f57894845e8bf0E>:
 800035a:	b081      	sub	sp, #4
 800035c:	f88d 0002 	strb.w	r0, [sp, #2]
 8000360:	f88d 0003 	strb.w	r0, [sp, #3]
 8000364:	f89d 0003 	ldrb.w	r0, [sp, #3]
 8000368:	b001      	add	sp, #4
 800036a:	4770      	bx	lr

0800036c <_ZN4core3mem11size_of_val17hfc21bfe817b3317aE>:
 800036c:	b082      	sub	sp, #8
 800036e:	9000      	str	r0, [sp, #0]
 8000370:	2002      	movs	r0, #2
 8000372:	9001      	str	r0, [sp, #4]
 8000374:	9801      	ldr	r0, [sp, #4]
 8000376:	b002      	add	sp, #8
 8000378:	4770      	bx	lr

0800037a <_ZN4mem310checkpoint14initialization28_$u7b$$u7b$closure$u7d$$u7d$17hdd777259f9d799e3E>:
 800037a:	b087      	sub	sp, #28
 800037c:	9001      	str	r0, [sp, #4]
 800037e:	9003      	str	r0, [sp, #12]
 8000380:	9002      	str	r0, [sp, #8]
 8000382:	9802      	ldr	r0, [sp, #8]
 8000384:	9004      	str	r0, [sp, #16]
 8000386:	9005      	str	r0, [sp, #20]
 8000388:	2001      	movs	r0, #1
 800038a:	f88d 001b 	strb.w	r0, [sp, #27]
 800038e:	9905      	ldr	r1, [sp, #20]
 8000390:	6808      	ldr	r0, [r1, #0]
 8000392:	f040 0001 	orr.w	r0, r0, #1
 8000396:	6008      	str	r0, [r1, #0]
 8000398:	9805      	ldr	r0, [sp, #20]
 800039a:	b007      	add	sp, #28
 800039c:	4770      	bx	lr

0800039e <_ZN4mem310checkpoint14initialization28_$u7b$$u7b$closure$u7d$$u7d$17h89f8f6221cae59bfE>:
 800039e:	b088      	sub	sp, #32
 80003a0:	9001      	str	r0, [sp, #4]
 80003a2:	9102      	str	r1, [sp, #8]
 80003a4:	9104      	str	r1, [sp, #16]
 80003a6:	9103      	str	r1, [sp, #12]
 80003a8:	9803      	ldr	r0, [sp, #12]
 80003aa:	9005      	str	r0, [sp, #20]
 80003ac:	9006      	str	r0, [sp, #24]
 80003ae:	2000      	movs	r0, #0
 80003b0:	f88d 001f 	strb.w	r0, [sp, #31]
 80003b4:	9906      	ldr	r1, [sp, #24]
 80003b6:	6808      	ldr	r0, [r1, #0]
 80003b8:	f020 7080 	bic.w	r0, r0, #16777216	; 0x1000000
 80003bc:	6008      	str	r0, [r1, #0]
 80003be:	9806      	ldr	r0, [sp, #24]
 80003c0:	b008      	add	sp, #32
 80003c2:	4770      	bx	lr

080003c4 <_ZN4mem310checkpoint14initialization28_$u7b$$u7b$closure$u7d$$u7d$17he48d7eb1df9f88c3E>:
 80003c4:	b580      	push	{r7, lr}
 80003c6:	466f      	mov	r7, sp
 80003c8:	b08c      	sub	sp, #48	; 0x30
 80003ca:	9002      	str	r0, [sp, #8]
 80003cc:	9103      	str	r1, [sp, #12]
 80003ce:	9105      	str	r1, [sp, #20]
 80003d0:	9104      	str	r1, [sp, #16]
 80003d2:	9904      	ldr	r1, [sp, #16]
 80003d4:	9100      	str	r1, [sp, #0]
 80003d6:	9107      	str	r1, [sp, #28]
 80003d8:	2001      	movs	r0, #1
 80003da:	f807 0c15 	strb.w	r0, [r7, #-21]
 80003de:	f817 0c15 	ldrb.w	r0, [r7, #-21]
 80003e2:	9108      	str	r1, [sp, #32]
 80003e4:	f807 0c09 	strb.w	r0, [r7, #-9]
 80003e8:	f648 31e0 	movw	r1, #35808	; 0x8be0
 80003ec:	f6c0 0100 	movt	r1, #2048	; 0x800
 80003f0:	f006 f8e3 	bl	80065ba <_ZN50_$LT$T$u20$as$u20$core..convert..Into$LT$U$GT$$GT$4into17h7f13e95ada7b88cdE>
 80003f4:	4602      	mov	r2, r0
 80003f6:	9800      	ldr	r0, [sp, #0]
 80003f8:	900a      	str	r0, [sp, #40]	; 0x28
 80003fa:	f807 2c01 	strb.w	r2, [r7, #-1]
 80003fe:	990a      	ldr	r1, [sp, #40]	; 0x28
 8000400:	6808      	ldr	r0, [r1, #0]
 8000402:	f420 30c0 	bic.w	r0, r0, #98304	; 0x18000
 8000406:	f002 0203 	and.w	r2, r2, #3
 800040a:	ea40 30c2 	orr.w	r0, r0, r2, lsl #15
 800040e:	6008      	str	r0, [r1, #0]
 8000410:	980a      	ldr	r0, [sp, #40]	; 0x28
 8000412:	b00c      	add	sp, #48	; 0x30
 8000414:	bd80      	pop	{r7, pc}

08000416 <_ZN4mem310checkpoint14initialization28_$u7b$$u7b$closure$u7d$$u7d$17hb12097bbe01ef4f9E>:
 8000416:	b580      	push	{r7, lr}
 8000418:	466f      	mov	r7, sp
 800041a:	b08c      	sub	sp, #48	; 0x30
 800041c:	9002      	str	r0, [sp, #8]
 800041e:	9103      	str	r1, [sp, #12]
 8000420:	9105      	str	r1, [sp, #20]
 8000422:	9104      	str	r1, [sp, #16]
 8000424:	9904      	ldr	r1, [sp, #16]
 8000426:	9100      	str	r1, [sp, #0]
 8000428:	9107      	str	r1, [sp, #28]
 800042a:	2000      	movs	r0, #0
 800042c:	f807 0c15 	strb.w	r0, [r7, #-21]
 8000430:	f817 0c15 	ldrb.w	r0, [r7, #-21]
 8000434:	9108      	str	r1, [sp, #32]
 8000436:	f807 0c09 	strb.w	r0, [r7, #-9]
 800043a:	f648 4158 	movw	r1, #35928	; 0x8c58
 800043e:	f6c0 0100 	movt	r1, #2048	; 0x800
 8000442:	f006 f8f2 	bl	800662a <_ZN50_$LT$T$u20$as$u20$core..convert..Into$LT$U$GT$$GT$4into17h5662f8df8ef25272E>
 8000446:	4602      	mov	r2, r0
 8000448:	9800      	ldr	r0, [sp, #0]
 800044a:	900a      	str	r0, [sp, #40]	; 0x28
 800044c:	f807 2c01 	strb.w	r2, [r7, #-1]
 8000450:	990a      	ldr	r1, [sp, #40]	; 0x28
 8000452:	6808      	ldr	r0, [r1, #0]
 8000454:	f362 0003 	bfi	r0, r2, #0, #4
 8000458:	6008      	str	r0, [r1, #0]
 800045a:	980a      	ldr	r0, [sp, #40]	; 0x28
 800045c:	b00c      	add	sp, #48	; 0x30
 800045e:	bd80      	pop	{r7, pc}

08000460 <_ZN4mem310checkpoint14initialization28_$u7b$$u7b$closure$u7d$$u7d$17h20e261f744b9fd8cE>:
 8000460:	b580      	push	{r7, lr}
 8000462:	466f      	mov	r7, sp
 8000464:	b08c      	sub	sp, #48	; 0x30
 8000466:	9002      	str	r0, [sp, #8]
 8000468:	9103      	str	r1, [sp, #12]
 800046a:	9105      	str	r1, [sp, #20]
 800046c:	9104      	str	r1, [sp, #16]
 800046e:	9904      	ldr	r1, [sp, #16]
 8000470:	9100      	str	r1, [sp, #0]
 8000472:	9107      	str	r1, [sp, #28]
 8000474:	2000      	movs	r0, #0
 8000476:	f807 0c15 	strb.w	r0, [r7, #-21]
 800047a:	f817 0c15 	ldrb.w	r0, [r7, #-21]
 800047e:	9108      	str	r1, [sp, #32]
 8000480:	f807 0c09 	strb.w	r0, [r7, #-9]
 8000484:	f648 31d0 	movw	r1, #35792	; 0x8bd0
 8000488:	f6c0 0100 	movt	r1, #2048	; 0x800
 800048c:	f006 f89e 	bl	80065cc <_ZN50_$LT$T$u20$as$u20$core..convert..Into$LT$U$GT$$GT$4into17hc364aac07f615d4fE>
 8000490:	4602      	mov	r2, r0
 8000492:	9800      	ldr	r0, [sp, #0]
 8000494:	900a      	str	r0, [sp, #40]	; 0x28
 8000496:	f807 2c01 	strb.w	r2, [r7, #-1]
 800049a:	990a      	ldr	r1, [sp, #40]	; 0x28
 800049c:	6808      	ldr	r0, [r1, #0]
 800049e:	f420 1070 	bic.w	r0, r0, #3932160	; 0x3c0000
 80004a2:	f002 020f 	and.w	r2, r2, #15
 80004a6:	ea40 4082 	orr.w	r0, r0, r2, lsl #18
 80004aa:	6008      	str	r0, [r1, #0]
 80004ac:	980a      	ldr	r0, [sp, #40]	; 0x28
 80004ae:	b00c      	add	sp, #48	; 0x30
 80004b0:	bd80      	pop	{r7, pc}

080004b2 <_ZN4mem310checkpoint14initialization28_$u7b$$u7b$closure$u7d$$u7d$17hd1acbf715ea6f79fE>:
 80004b2:	b580      	push	{r7, lr}
 80004b4:	466f      	mov	r7, sp
 80004b6:	b08c      	sub	sp, #48	; 0x30
 80004b8:	9002      	str	r0, [sp, #8]
 80004ba:	9103      	str	r1, [sp, #12]
 80004bc:	9105      	str	r1, [sp, #20]
 80004be:	9104      	str	r1, [sp, #16]
 80004c0:	9904      	ldr	r1, [sp, #16]
 80004c2:	9100      	str	r1, [sp, #0]
 80004c4:	9107      	str	r1, [sp, #28]
 80004c6:	2001      	movs	r0, #1
 80004c8:	f807 0c15 	strb.w	r0, [r7, #-21]
 80004cc:	f817 0c15 	ldrb.w	r0, [r7, #-21]
 80004d0:	9108      	str	r1, [sp, #32]
 80004d2:	f000 0001 	and.w	r0, r0, #1
 80004d6:	f807 0c09 	strb.w	r0, [r7, #-9]
 80004da:	f648 3118 	movw	r1, #35608	; 0x8b18
 80004de:	f6c0 0100 	movt	r1, #2048	; 0x800
 80004e2:	f006 f897 	bl	8006614 <_ZN50_$LT$T$u20$as$u20$core..convert..Into$LT$U$GT$$GT$4into17h88312d17502d1b80E>
 80004e6:	4602      	mov	r2, r0
 80004e8:	9800      	ldr	r0, [sp, #0]
 80004ea:	900a      	str	r0, [sp, #40]	; 0x28
 80004ec:	f807 2c01 	strb.w	r2, [r7, #-1]
 80004f0:	990a      	ldr	r1, [sp, #40]	; 0x28
 80004f2:	6808      	ldr	r0, [r1, #0]
 80004f4:	f020 7080 	bic.w	r0, r0, #16777216	; 0x1000000
 80004f8:	ea40 6002 	orr.w	r0, r0, r2, lsl #24
 80004fc:	6008      	str	r0, [r1, #0]
 80004fe:	980a      	ldr	r0, [sp, #40]	; 0x28
 8000500:	b00c      	add	sp, #48	; 0x30
 8000502:	bd80      	pop	{r7, pc}

08000504 <_ZN4mem310checkpoint14initialization28_$u7b$$u7b$closure$u7d$$u7d$17ha61d5a86f02d888eE>:
 8000504:	b580      	push	{r7, lr}
 8000506:	466f      	mov	r7, sp
 8000508:	b09e      	sub	sp, #120	; 0x78
 800050a:	9006      	str	r0, [sp, #24]
 800050c:	9107      	str	r1, [sp, #28]
 800050e:	9109      	str	r1, [sp, #36]	; 0x24
 8000510:	9108      	str	r1, [sp, #32]
 8000512:	9908      	ldr	r1, [sp, #32]
 8000514:	9101      	str	r1, [sp, #4]
 8000516:	910f      	str	r1, [sp, #60]	; 0x3c
 8000518:	2000      	movs	r0, #0
 800051a:	9003      	str	r0, [sp, #12]
 800051c:	f807 0c3d 	strb.w	r0, [r7, #-61]
 8000520:	f817 0c3d 	ldrb.w	r0, [r7, #-61]
 8000524:	9110      	str	r1, [sp, #64]	; 0x40
 8000526:	f807 0c31 	strb.w	r0, [r7, #-49]
 800052a:	f648 31a0 	movw	r1, #35744	; 0x8ba0
 800052e:	f6c0 0100 	movt	r1, #2048	; 0x800
 8000532:	f006 f854 	bl	80065de <_ZN50_$LT$T$u20$as$u20$core..convert..Into$LT$U$GT$$GT$4into17hddf3750a964ed257E>
 8000536:	4602      	mov	r2, r0
 8000538:	9801      	ldr	r0, [sp, #4]
 800053a:	9012      	str	r0, [sp, #72]	; 0x48
 800053c:	f807 2c2a 	strb.w	r2, [r7, #-42]
 8000540:	9912      	ldr	r1, [sp, #72]	; 0x48
 8000542:	6808      	ldr	r0, [r1, #0]
 8000544:	f020 00f0 	bic.w	r0, r0, #240	; 0xf0
 8000548:	f002 020f 	and.w	r2, r2, #15
 800054c:	ea40 1002 	orr.w	r0, r0, r2, lsl #4
 8000550:	6008      	str	r0, [r1, #0]
 8000552:	9812      	ldr	r0, [sp, #72]	; 0x48
 8000554:	900b      	str	r0, [sp, #44]	; 0x2c
 8000556:	900a      	str	r0, [sp, #40]	; 0x28
 8000558:	990a      	ldr	r1, [sp, #40]	; 0x28
 800055a:	9102      	str	r1, [sp, #8]
 800055c:	9114      	str	r1, [sp, #80]	; 0x50
 800055e:	2004      	movs	r0, #4
 8000560:	f807 0c29 	strb.w	r0, [r7, #-41]
 8000564:	f817 0c29 	ldrb.w	r0, [r7, #-41]
 8000568:	9115      	str	r1, [sp, #84]	; 0x54
 800056a:	f807 0c1d 	strb.w	r0, [r7, #-29]
 800056e:	f648 31b0 	movw	r1, #35760	; 0x8bb0
 8000572:	f6c0 0100 	movt	r1, #2048	; 0x800
 8000576:	f006 f817 	bl	80065a8 <_ZN50_$LT$T$u20$as$u20$core..convert..Into$LT$U$GT$$GT$4into17h65e6c423661941dfE>
 800057a:	9902      	ldr	r1, [sp, #8]
 800057c:	4603      	mov	r3, r0
 800057e:	9803      	ldr	r0, [sp, #12]
 8000580:	9117      	str	r1, [sp, #92]	; 0x5c
 8000582:	f807 3c16 	strb.w	r3, [r7, #-22]
 8000586:	9a17      	ldr	r2, [sp, #92]	; 0x5c
 8000588:	6811      	ldr	r1, [r2, #0]
 800058a:	f421 61e0 	bic.w	r1, r1, #1792	; 0x700
 800058e:	f003 0307 	and.w	r3, r3, #7
 8000592:	ea41 2103 	orr.w	r1, r1, r3, lsl #8
 8000596:	6011      	str	r1, [r2, #0]
 8000598:	9917      	ldr	r1, [sp, #92]	; 0x5c
 800059a:	910d      	str	r1, [sp, #52]	; 0x34
 800059c:	910c      	str	r1, [sp, #48]	; 0x30
 800059e:	990c      	ldr	r1, [sp, #48]	; 0x30
 80005a0:	9104      	str	r1, [sp, #16]
 80005a2:	9119      	str	r1, [sp, #100]	; 0x64
 80005a4:	f807 0c15 	strb.w	r0, [r7, #-21]
 80005a8:	f817 0c15 	ldrb.w	r0, [r7, #-21]
 80005ac:	911a      	str	r1, [sp, #104]	; 0x68
 80005ae:	f807 0c09 	strb.w	r0, [r7, #-9]
 80005b2:	f648 31c0 	movw	r1, #35776	; 0x8bc0
 80005b6:	f6c0 0100 	movt	r1, #2048	; 0x800
 80005ba:	f005 fff5 	bl	80065a8 <_ZN50_$LT$T$u20$as$u20$core..convert..Into$LT$U$GT$$GT$4into17h65e6c423661941dfE>
 80005be:	4602      	mov	r2, r0
 80005c0:	9804      	ldr	r0, [sp, #16]
 80005c2:	901c      	str	r0, [sp, #112]	; 0x70
 80005c4:	f807 2c01 	strb.w	r2, [r7, #-1]
 80005c8:	991c      	ldr	r1, [sp, #112]	; 0x70
 80005ca:	6808      	ldr	r0, [r1, #0]
 80005cc:	f420 5060 	bic.w	r0, r0, #14336	; 0x3800
 80005d0:	f002 0207 	and.w	r2, r2, #7
 80005d4:	ea40 20c2 	orr.w	r0, r0, r2, lsl #11
 80005d8:	6008      	str	r0, [r1, #0]
 80005da:	981c      	ldr	r0, [sp, #112]	; 0x70
 80005dc:	b01e      	add	sp, #120	; 0x78
 80005de:	bd80      	pop	{r7, pc}

080005e0 <_ZN4mem310checkpoint14initialization28_$u7b$$u7b$closure$u7d$$u7d$17h87a1b0ac4795f589E>:
 80005e0:	b580      	push	{r7, lr}
 80005e2:	466f      	mov	r7, sp
 80005e4:	b096      	sub	sp, #88	; 0x58
 80005e6:	9005      	str	r0, [sp, #20]
 80005e8:	9106      	str	r1, [sp, #24]
 80005ea:	9108      	str	r1, [sp, #32]
 80005ec:	9107      	str	r1, [sp, #28]
 80005ee:	9907      	ldr	r1, [sp, #28]
 80005f0:	9101      	str	r1, [sp, #4]
 80005f2:	910c      	str	r1, [sp, #48]	; 0x30
 80005f4:	2001      	movs	r0, #1
 80005f6:	9002      	str	r0, [sp, #8]
 80005f8:	f807 0c29 	strb.w	r0, [r7, #-41]
 80005fc:	f817 0c29 	ldrb.w	r0, [r7, #-41]
 8000600:	910d      	str	r1, [sp, #52]	; 0x34
 8000602:	f000 0001 	and.w	r0, r0, #1
 8000606:	f807 0c1d 	strb.w	r0, [r7, #-29]
 800060a:	f648 41d0 	movw	r1, #36048	; 0x8cd0
 800060e:	f6c0 0100 	movt	r1, #2048	; 0x800
 8000612:	f7ff fe8c 	bl	800032e <_ZN50_$LT$T$u20$as$u20$core..convert..Into$LT$U$GT$$GT$4into17h350beb4f9fd1127bE>
 8000616:	9901      	ldr	r1, [sp, #4]
 8000618:	4603      	mov	r3, r0
 800061a:	9802      	ldr	r0, [sp, #8]
 800061c:	910f      	str	r1, [sp, #60]	; 0x3c
 800061e:	f807 3c16 	strb.w	r3, [r7, #-22]
 8000622:	9a0f      	ldr	r2, [sp, #60]	; 0x3c
 8000624:	6811      	ldr	r1, [r2, #0]
 8000626:	f021 0110 	bic.w	r1, r1, #16
 800062a:	ea41 1103 	orr.w	r1, r1, r3, lsl #4
 800062e:	6011      	str	r1, [r2, #0]
 8000630:	990f      	ldr	r1, [sp, #60]	; 0x3c
 8000632:	910a      	str	r1, [sp, #40]	; 0x28
 8000634:	9109      	str	r1, [sp, #36]	; 0x24
 8000636:	9909      	ldr	r1, [sp, #36]	; 0x24
 8000638:	9103      	str	r1, [sp, #12]
 800063a:	9111      	str	r1, [sp, #68]	; 0x44
 800063c:	f807 0c15 	strb.w	r0, [r7, #-21]
 8000640:	f817 0c15 	ldrb.w	r0, [r7, #-21]
 8000644:	9112      	str	r1, [sp, #72]	; 0x48
 8000646:	f807 0c09 	strb.w	r0, [r7, #-9]
 800064a:	f648 41e0 	movw	r1, #36064	; 0x8ce0
 800064e:	f6c0 0100 	movt	r1, #2048	; 0x800
 8000652:	f005 ffd6 	bl	8006602 <_ZN50_$LT$T$u20$as$u20$core..convert..Into$LT$U$GT$$GT$4into17h59963b0761766895E>
 8000656:	4602      	mov	r2, r0
 8000658:	9803      	ldr	r0, [sp, #12]
 800065a:	9014      	str	r0, [sp, #80]	; 0x50
 800065c:	f807 2c01 	strb.w	r2, [r7, #-1]
 8000660:	9914      	ldr	r1, [sp, #80]	; 0x50
 8000662:	6808      	ldr	r0, [r1, #0]
 8000664:	f362 0002 	bfi	r0, r2, #0, #3
 8000668:	6008      	str	r0, [r1, #0]
 800066a:	9814      	ldr	r0, [sp, #80]	; 0x50
 800066c:	b016      	add	sp, #88	; 0x58
 800066e:	bd80      	pop	{r7, pc}

08000670 <_ZN4mem310checkpoint14initialization28_$u7b$$u7b$closure$u7d$$u7d$17hf703486b832bbd85E>:
 8000670:	b580      	push	{r7, lr}
 8000672:	466f      	mov	r7, sp
 8000674:	b08c      	sub	sp, #48	; 0x30
 8000676:	9002      	str	r0, [sp, #8]
 8000678:	9103      	str	r1, [sp, #12]
 800067a:	9105      	str	r1, [sp, #20]
 800067c:	9104      	str	r1, [sp, #16]
 800067e:	9904      	ldr	r1, [sp, #16]
 8000680:	9100      	str	r1, [sp, #0]
 8000682:	9107      	str	r1, [sp, #28]
 8000684:	2002      	movs	r0, #2
 8000686:	f807 0c15 	strb.w	r0, [r7, #-21]
 800068a:	f817 0c15 	ldrb.w	r0, [r7, #-21]
 800068e:	9108      	str	r1, [sp, #32]
 8000690:	f807 0c09 	strb.w	r0, [r7, #-9]
 8000694:	f648 3190 	movw	r1, #35728	; 0x8b90
 8000698:	f6c0 0100 	movt	r1, #2048	; 0x800
 800069c:	f005 ffa8 	bl	80065f0 <_ZN50_$LT$T$u20$as$u20$core..convert..Into$LT$U$GT$$GT$4into17he22c4200a7a01755E>
 80006a0:	4602      	mov	r2, r0
 80006a2:	9800      	ldr	r0, [sp, #0]
 80006a4:	900a      	str	r0, [sp, #40]	; 0x28
 80006a6:	f807 2c01 	strb.w	r2, [r7, #-1]
 80006aa:	990a      	ldr	r1, [sp, #40]	; 0x28
 80006ac:	6808      	ldr	r0, [r1, #0]
 80006ae:	f362 0001 	bfi	r0, r2, #0, #2
 80006b2:	6008      	str	r0, [r1, #0]
 80006b4:	980a      	ldr	r0, [sp, #40]	; 0x28
 80006b6:	b00c      	add	sp, #48	; 0x30
 80006b8:	bd80      	pop	{r7, pc}

080006ba <_ZN4mem310checkpoint14initialization28_$u7b$$u7b$closure$u7d$$u7d$17hbcb67bb0ce24f3e5E>:
 80006ba:	b088      	sub	sp, #32
 80006bc:	9001      	str	r0, [sp, #4]
 80006be:	9102      	str	r1, [sp, #8]
 80006c0:	9104      	str	r1, [sp, #16]
 80006c2:	9103      	str	r1, [sp, #12]
 80006c4:	9803      	ldr	r0, [sp, #12]
 80006c6:	9005      	str	r0, [sp, #20]
 80006c8:	9006      	str	r0, [sp, #24]
 80006ca:	2001      	movs	r0, #1
 80006cc:	f88d 001f 	strb.w	r0, [sp, #31]
 80006d0:	9906      	ldr	r1, [sp, #24]
 80006d2:	6808      	ldr	r0, [r1, #0]
 80006d4:	f440 2000 	orr.w	r0, r0, #524288	; 0x80000
 80006d8:	6008      	str	r0, [r1, #0]
 80006da:	9806      	ldr	r0, [sp, #24]
 80006dc:	b008      	add	sp, #32
 80006de:	4770      	bx	lr

080006e0 <_ZN4mem310checkpoint14initialization28_$u7b$$u7b$closure$u7d$$u7d$17h50f905d23fb49ca1E>:
 80006e0:	b088      	sub	sp, #32
 80006e2:	9001      	str	r0, [sp, #4]
 80006e4:	9102      	str	r1, [sp, #8]
 80006e6:	9104      	str	r1, [sp, #16]
 80006e8:	9103      	str	r1, [sp, #12]
 80006ea:	9803      	ldr	r0, [sp, #12]
 80006ec:	9005      	str	r0, [sp, #20]
 80006ee:	9006      	str	r0, [sp, #24]
 80006f0:	2001      	movs	r0, #1
 80006f2:	f88d 001f 	strb.w	r0, [sp, #31]
 80006f6:	9906      	ldr	r1, [sp, #24]
 80006f8:	6808      	ldr	r0, [r1, #0]
 80006fa:	f440 1080 	orr.w	r0, r0, #1048576	; 0x100000
 80006fe:	6008      	str	r0, [r1, #0]
 8000700:	9806      	ldr	r0, [sp, #24]
 8000702:	b008      	add	sp, #32
 8000704:	4770      	bx	lr

08000706 <_ZN4mem310checkpoint14initialization28_$u7b$$u7b$closure$u7d$$u7d$17had3fde5b628ec15dE>:
 8000706:	b088      	sub	sp, #32
 8000708:	9001      	str	r0, [sp, #4]
 800070a:	9102      	str	r1, [sp, #8]
 800070c:	9104      	str	r1, [sp, #16]
 800070e:	9103      	str	r1, [sp, #12]
 8000710:	9803      	ldr	r0, [sp, #12]
 8000712:	9005      	str	r0, [sp, #20]
 8000714:	9006      	str	r0, [sp, #24]
 8000716:	2001      	movs	r0, #1
 8000718:	f88d 001f 	strb.w	r0, [sp, #31]
 800071c:	9906      	ldr	r1, [sp, #24]
 800071e:	6808      	ldr	r0, [r1, #0]
 8000720:	f440 1000 	orr.w	r0, r0, #2097152	; 0x200000
 8000724:	6008      	str	r0, [r1, #0]
 8000726:	9806      	ldr	r0, [sp, #24]
 8000728:	b008      	add	sp, #32
 800072a:	4770      	bx	lr

0800072c <_ZN4mem310checkpoint14initialization28_$u7b$$u7b$closure$u7d$$u7d$17h402283c0c0c9a165E>:
 800072c:	b088      	sub	sp, #32
 800072e:	9001      	str	r0, [sp, #4]
 8000730:	9102      	str	r1, [sp, #8]
 8000732:	9104      	str	r1, [sp, #16]
 8000734:	9103      	str	r1, [sp, #12]
 8000736:	9803      	ldr	r0, [sp, #12]
 8000738:	9005      	str	r0, [sp, #20]
 800073a:	9006      	str	r0, [sp, #24]
 800073c:	2001      	movs	r0, #1
 800073e:	f88d 001f 	strb.w	r0, [sp, #31]
 8000742:	9906      	ldr	r1, [sp, #24]
 8000744:	6808      	ldr	r0, [r1, #0]
 8000746:	f440 0080 	orr.w	r0, r0, #4194304	; 0x400000
 800074a:	6008      	str	r0, [r1, #0]
 800074c:	9806      	ldr	r0, [sp, #24]
 800074e:	b008      	add	sp, #32
 8000750:	4770      	bx	lr

08000752 <_ZN4mem310checkpoint14initialization28_$u7b$$u7b$closure$u7d$$u7d$17he96672afe556b43cE>:
 8000752:	b088      	sub	sp, #32
 8000754:	9001      	str	r0, [sp, #4]
 8000756:	9102      	str	r1, [sp, #8]
 8000758:	9104      	str	r1, [sp, #16]
 800075a:	9103      	str	r1, [sp, #12]
 800075c:	9803      	ldr	r0, [sp, #12]
 800075e:	9005      	str	r0, [sp, #20]
 8000760:	9006      	str	r0, [sp, #24]
 8000762:	2001      	movs	r0, #1
 8000764:	f88d 001f 	strb.w	r0, [sp, #31]
 8000768:	9906      	ldr	r1, [sp, #24]
 800076a:	6808      	ldr	r0, [r1, #0]
 800076c:	f440 0000 	orr.w	r0, r0, #8388608	; 0x800000
 8000770:	6008      	str	r0, [r1, #0]
 8000772:	9806      	ldr	r0, [sp, #24]
 8000774:	b008      	add	sp, #32
 8000776:	4770      	bx	lr

08000778 <_ZN4mem310checkpoint14initialization28_$u7b$$u7b$closure$u7d$$u7d$17hff75884f3d37c389E>:
 8000778:	b088      	sub	sp, #32
 800077a:	9001      	str	r0, [sp, #4]
 800077c:	9102      	str	r1, [sp, #8]
 800077e:	9104      	str	r1, [sp, #16]
 8000780:	9103      	str	r1, [sp, #12]
 8000782:	9803      	ldr	r0, [sp, #12]
 8000784:	9005      	str	r0, [sp, #20]
 8000786:	9006      	str	r0, [sp, #24]
 8000788:	2001      	movs	r0, #1
 800078a:	f88d 001f 	strb.w	r0, [sp, #31]
 800078e:	9906      	ldr	r1, [sp, #24]
 8000790:	6808      	ldr	r0, [r1, #0]
 8000792:	f440 3080 	orr.w	r0, r0, #65536	; 0x10000
 8000796:	6008      	str	r0, [r1, #0]
 8000798:	9806      	ldr	r0, [sp, #24]
 800079a:	b008      	add	sp, #32
 800079c:	4770      	bx	lr

0800079e <_ZN4mem310checkpoint14initialization28_$u7b$$u7b$closure$u7d$$u7d$17hfb0af2e8d0a9d3afE>:
 800079e:	b088      	sub	sp, #32
 80007a0:	9001      	str	r0, [sp, #4]
 80007a2:	9102      	str	r1, [sp, #8]
 80007a4:	9104      	str	r1, [sp, #16]
 80007a6:	9103      	str	r1, [sp, #12]
 80007a8:	9803      	ldr	r0, [sp, #12]
 80007aa:	9005      	str	r0, [sp, #20]
 80007ac:	9006      	str	r0, [sp, #24]
 80007ae:	2001      	movs	r0, #1
 80007b0:	f88d 001f 	strb.w	r0, [sp, #31]
 80007b4:	9906      	ldr	r1, [sp, #24]
 80007b6:	6808      	ldr	r0, [r1, #0]
 80007b8:	f040 0004 	orr.w	r0, r0, #4
 80007bc:	6008      	str	r0, [r1, #0]
 80007be:	9806      	ldr	r0, [sp, #24]
 80007c0:	b008      	add	sp, #32
 80007c2:	4770      	bx	lr

080007c4 <_ZN4mem310checkpoint14initialization28_$u7b$$u7b$closure$u7d$$u7d$17h4725ab3c8c80e638E>:
 80007c4:	b088      	sub	sp, #32
 80007c6:	9001      	str	r0, [sp, #4]
 80007c8:	9102      	str	r1, [sp, #8]
 80007ca:	9104      	str	r1, [sp, #16]
 80007cc:	9103      	str	r1, [sp, #12]
 80007ce:	9803      	ldr	r0, [sp, #12]
 80007d0:	9005      	str	r0, [sp, #20]
 80007d2:	9006      	str	r0, [sp, #24]
 80007d4:	2001      	movs	r0, #1
 80007d6:	f88d 001f 	strb.w	r0, [sp, #31]
 80007da:	9906      	ldr	r1, [sp, #24]
 80007dc:	6808      	ldr	r0, [r1, #0]
 80007de:	f040 0010 	orr.w	r0, r0, #16
 80007e2:	6008      	str	r0, [r1, #0]
 80007e4:	9806      	ldr	r0, [sp, #24]
 80007e6:	b008      	add	sp, #32
 80007e8:	4770      	bx	lr

080007ea <_ZN4mem310checkpoint14initialization28_$u7b$$u7b$closure$u7d$$u7d$17he4a62ee48a240cd8E>:
 80007ea:	b088      	sub	sp, #32
 80007ec:	9001      	str	r0, [sp, #4]
 80007ee:	9102      	str	r1, [sp, #8]
 80007f0:	9104      	str	r1, [sp, #16]
 80007f2:	9103      	str	r1, [sp, #12]
 80007f4:	9803      	ldr	r0, [sp, #12]
 80007f6:	9005      	str	r0, [sp, #20]
 80007f8:	9006      	str	r0, [sp, #24]
 80007fa:	2001      	movs	r0, #1
 80007fc:	f88d 001f 	strb.w	r0, [sp, #31]
 8000800:	9906      	ldr	r1, [sp, #24]
 8000802:	6808      	ldr	r0, [r1, #0]
 8000804:	f040 0020 	orr.w	r0, r0, #32
 8000808:	6008      	str	r0, [r1, #0]
 800080a:	9806      	ldr	r0, [sp, #24]
 800080c:	b008      	add	sp, #32
 800080e:	4770      	bx	lr

08000810 <_ZN4mem310checkpoint14initialization28_$u7b$$u7b$closure$u7d$$u7d$17h3579ce1b834de073E>:
 8000810:	b088      	sub	sp, #32
 8000812:	9001      	str	r0, [sp, #4]
 8000814:	9102      	str	r1, [sp, #8]
 8000816:	9107      	str	r1, [sp, #28]
 8000818:	9106      	str	r1, [sp, #24]
 800081a:	9806      	ldr	r0, [sp, #24]
 800081c:	9003      	str	r0, [sp, #12]
 800081e:	9004      	str	r0, [sp, #16]
 8000820:	2001      	movs	r0, #1
 8000822:	f88d 0017 	strb.w	r0, [sp, #23]
 8000826:	9904      	ldr	r1, [sp, #16]
 8000828:	6808      	ldr	r0, [r1, #0]
 800082a:	f040 0001 	orr.w	r0, r0, #1
 800082e:	6008      	str	r0, [r1, #0]
 8000830:	9804      	ldr	r0, [sp, #16]
 8000832:	b008      	add	sp, #32
 8000834:	4770      	bx	lr

08000836 <_ZN4mem310checkpoint14initialization28_$u7b$$u7b$closure$u7d$$u7d$17hb981377565f405baE>:
 8000836:	b088      	sub	sp, #32
 8000838:	9001      	str	r0, [sp, #4]
 800083a:	9102      	str	r1, [sp, #8]
 800083c:	9104      	str	r1, [sp, #16]
 800083e:	9103      	str	r1, [sp, #12]
 8000840:	9803      	ldr	r0, [sp, #12]
 8000842:	9005      	str	r0, [sp, #20]
 8000844:	9006      	str	r0, [sp, #24]
 8000846:	2001      	movs	r0, #1
 8000848:	f88d 001f 	strb.w	r0, [sp, #31]
 800084c:	9906      	ldr	r1, [sp, #24]
 800084e:	6808      	ldr	r0, [r1, #0]
 8000850:	f040 5080 	orr.w	r0, r0, #268435456	; 0x10000000
 8000854:	6008      	str	r0, [r1, #0]
 8000856:	9806      	ldr	r0, [sp, #24]
 8000858:	b008      	add	sp, #32
 800085a:	4770      	bx	lr

0800085c <_ZN4mem310checkpoint14initialization28_$u7b$$u7b$closure$u7d$$u7d$17h944ce05cf4c740b9E>:
 800085c:	b086      	sub	sp, #24
 800085e:	9001      	str	r0, [sp, #4]
 8000860:	9003      	str	r0, [sp, #12]
 8000862:	9002      	str	r0, [sp, #8]
 8000864:	9802      	ldr	r0, [sp, #8]
 8000866:	9004      	str	r0, [sp, #16]
 8000868:	2201      	movs	r2, #1
 800086a:	f88d 2017 	strb.w	r2, [sp, #23]
 800086e:	9904      	ldr	r1, [sp, #16]
 8000870:	6808      	ldr	r0, [r1, #0]
 8000872:	f362 5015 	bfi	r0, r2, #20, #2
 8000876:	6008      	str	r0, [r1, #0]
 8000878:	9804      	ldr	r0, [sp, #16]
 800087a:	b006      	add	sp, #24
 800087c:	4770      	bx	lr

0800087e <_ZN4mem310checkpoint14initialization28_$u7b$$u7b$closure$u7d$$u7d$17h897aceea0448d3e7E>:
 800087e:	b086      	sub	sp, #24
 8000880:	9001      	str	r0, [sp, #4]
 8000882:	9003      	str	r0, [sp, #12]
 8000884:	9002      	str	r0, [sp, #8]
 8000886:	9802      	ldr	r0, [sp, #8]
 8000888:	9004      	str	r0, [sp, #16]
 800088a:	2201      	movs	r2, #1
 800088c:	f88d 2017 	strb.w	r2, [sp, #23]
 8000890:	9904      	ldr	r1, [sp, #16]
 8000892:	6808      	ldr	r0, [r1, #0]
 8000894:	f362 5097 	bfi	r0, r2, #22, #2
 8000898:	6008      	str	r0, [r1, #0]
 800089a:	9804      	ldr	r0, [sp, #16]
 800089c:	b006      	add	sp, #24
 800089e:	4770      	bx	lr

080008a0 <_ZN4mem310checkpoint14initialization28_$u7b$$u7b$closure$u7d$$u7d$17ha2bd79f5a4021dc6E>:
 80008a0:	b087      	sub	sp, #28
 80008a2:	9001      	str	r0, [sp, #4]
 80008a4:	9003      	str	r0, [sp, #12]
 80008a6:	9002      	str	r0, [sp, #8]
 80008a8:	9802      	ldr	r0, [sp, #8]
 80008aa:	9004      	str	r0, [sp, #16]
 80008ac:	9005      	str	r0, [sp, #20]
 80008ae:	2001      	movs	r0, #1
 80008b0:	f88d 001b 	strb.w	r0, [sp, #27]
 80008b4:	9905      	ldr	r1, [sp, #20]
 80008b6:	6808      	ldr	r0, [r1, #0]
 80008b8:	f440 6080 	orr.w	r0, r0, #1024	; 0x400
 80008bc:	6008      	str	r0, [r1, #0]
 80008be:	9805      	ldr	r0, [sp, #20]
 80008c0:	b007      	add	sp, #28
 80008c2:	4770      	bx	lr

080008c4 <_ZN4mem310checkpoint14initialization28_$u7b$$u7b$closure$u7d$$u7d$17hde8f32e78d6fb2f6E>:
 80008c4:	b087      	sub	sp, #28
 80008c6:	9001      	str	r0, [sp, #4]
 80008c8:	9003      	str	r0, [sp, #12]
 80008ca:	9002      	str	r0, [sp, #8]
 80008cc:	9802      	ldr	r0, [sp, #8]
 80008ce:	9004      	str	r0, [sp, #16]
 80008d0:	9005      	str	r0, [sp, #20]
 80008d2:	2001      	movs	r0, #1
 80008d4:	f88d 001b 	strb.w	r0, [sp, #27]
 80008d8:	9905      	ldr	r1, [sp, #20]
 80008da:	6808      	ldr	r0, [r1, #0]
 80008dc:	f440 6000 	orr.w	r0, r0, #2048	; 0x800
 80008e0:	6008      	str	r0, [r1, #0]
 80008e2:	9805      	ldr	r0, [sp, #20]
 80008e4:	b007      	add	sp, #28
 80008e6:	4770      	bx	lr

080008e8 <_ZN4mem310checkpoint14initialization28_$u7b$$u7b$closure$u7d$$u7d$17h0085ec3819a354aaE>:
 80008e8:	b580      	push	{r7, lr}
 80008ea:	466f      	mov	r7, sp
 80008ec:	b08c      	sub	sp, #48	; 0x30
 80008ee:	9002      	str	r0, [sp, #8]
 80008f0:	9103      	str	r1, [sp, #12]
 80008f2:	9105      	str	r1, [sp, #20]
 80008f4:	9104      	str	r1, [sp, #16]
 80008f6:	9904      	ldr	r1, [sp, #16]
 80008f8:	9100      	str	r1, [sp, #0]
 80008fa:	9107      	str	r1, [sp, #28]
 80008fc:	2002      	movs	r0, #2
 80008fe:	f807 0c15 	strb.w	r0, [r7, #-21]
 8000902:	f817 0c15 	ldrb.w	r0, [r7, #-21]
 8000906:	9108      	str	r1, [sp, #32]
 8000908:	f807 0c09 	strb.w	r0, [r7, #-9]
 800090c:	f648 7124 	movw	r1, #36644	; 0x8f24
 8000910:	f6c0 0100 	movt	r1, #2048	; 0x800
 8000914:	f002 faae 	bl	8002e74 <_ZN50_$LT$T$u20$as$u20$core..convert..Into$LT$U$GT$$GT$4into17h09173358117f67deE>
 8000918:	4602      	mov	r2, r0
 800091a:	9800      	ldr	r0, [sp, #0]
 800091c:	900a      	str	r0, [sp, #40]	; 0x28
 800091e:	f807 2c01 	strb.w	r2, [r7, #-1]
 8000922:	990a      	ldr	r1, [sp, #40]	; 0x28
 8000924:	6808      	ldr	r0, [r1, #0]
 8000926:	f362 0001 	bfi	r0, r2, #0, #2
 800092a:	6008      	str	r0, [r1, #0]
 800092c:	980a      	ldr	r0, [sp, #40]	; 0x28
 800092e:	b00c      	add	sp, #48	; 0x30
 8000930:	bd80      	pop	{r7, pc}

08000932 <_ZN4mem310checkpoint14initialization28_$u7b$$u7b$closure$u7d$$u7d$17hd2e4416b4d3a7e79E>:
 8000932:	b580      	push	{r7, lr}
 8000934:	466f      	mov	r7, sp
 8000936:	b08c      	sub	sp, #48	; 0x30
 8000938:	9002      	str	r0, [sp, #8]
 800093a:	9103      	str	r1, [sp, #12]
 800093c:	9105      	str	r1, [sp, #20]
 800093e:	9104      	str	r1, [sp, #16]
 8000940:	9904      	ldr	r1, [sp, #16]
 8000942:	9100      	str	r1, [sp, #0]
 8000944:	9107      	str	r1, [sp, #28]
 8000946:	200c      	movs	r0, #12
 8000948:	f807 0c15 	strb.w	r0, [r7, #-21]
 800094c:	f817 0c15 	ldrb.w	r0, [r7, #-21]
 8000950:	9108      	str	r1, [sp, #32]
 8000952:	f807 0c09 	strb.w	r0, [r7, #-9]
 8000956:	f648 6148 	movw	r1, #36424	; 0x8e48
 800095a:	f6c0 0100 	movt	r1, #2048	; 0x800
 800095e:	f002 f9c6 	bl	8002cee <_ZN50_$LT$T$u20$as$u20$core..convert..Into$LT$U$GT$$GT$4into17he9c5b7d8674cbccbE>
 8000962:	4602      	mov	r2, r0
 8000964:	9800      	ldr	r0, [sp, #0]
 8000966:	900a      	str	r0, [sp, #40]	; 0x28
 8000968:	f807 2c01 	strb.w	r2, [r7, #-1]
 800096c:	990a      	ldr	r1, [sp, #40]	; 0x28
 800096e:	6808      	ldr	r0, [r1, #0]
 8000970:	f362 0003 	bfi	r0, r2, #0, #4
 8000974:	6008      	str	r0, [r1, #0]
 8000976:	980a      	ldr	r0, [sp, #40]	; 0x28
 8000978:	b00c      	add	sp, #48	; 0x30
 800097a:	bd80      	pop	{r7, pc}

0800097c <_ZN4mem310checkpoint14initialization28_$u7b$$u7b$closure$u7d$$u7d$17hbc9dd1c4a5722e98E>:
 800097c:	b580      	push	{r7, lr}
 800097e:	466f      	mov	r7, sp
 8000980:	b08c      	sub	sp, #48	; 0x30
 8000982:	9002      	str	r0, [sp, #8]
 8000984:	9103      	str	r1, [sp, #12]
 8000986:	910b      	str	r1, [sp, #44]	; 0x2c
 8000988:	910a      	str	r1, [sp, #40]	; 0x28
 800098a:	990a      	ldr	r1, [sp, #40]	; 0x28
 800098c:	9100      	str	r1, [sp, #0]
 800098e:	9105      	str	r1, [sp, #20]
 8000990:	2003      	movs	r0, #3
 8000992:	f807 0c1d 	strb.w	r0, [r7, #-29]
 8000996:	f817 0c1d 	ldrb.w	r0, [r7, #-29]
 800099a:	9106      	str	r1, [sp, #24]
 800099c:	f807 0c11 	strb.w	r0, [r7, #-17]
 80009a0:	f249 0180 	movw	r1, #36992	; 0x9080
 80009a4:	f6c0 0100 	movt	r1, #2048	; 0x800
 80009a8:	f005 fd30 	bl	800640c <_ZN50_$LT$T$u20$as$u20$core..convert..Into$LT$U$GT$$GT$4into17hd0fa2a7d0802ab5aE>
 80009ac:	4602      	mov	r2, r0
 80009ae:	9800      	ldr	r0, [sp, #0]
 80009b0:	9008      	str	r0, [sp, #32]
 80009b2:	f807 2c09 	strb.w	r2, [r7, #-9]
 80009b6:	9908      	ldr	r1, [sp, #32]
 80009b8:	6808      	ldr	r0, [r1, #0]
 80009ba:	f362 0001 	bfi	r0, r2, #0, #2
 80009be:	6008      	str	r0, [r1, #0]
 80009c0:	9808      	ldr	r0, [sp, #32]
 80009c2:	b00c      	add	sp, #48	; 0x30
 80009c4:	bd80      	pop	{r7, pc}

080009c6 <_ZN4mem310checkpoint14initialization28_$u7b$$u7b$closure$u7d$$u7d$17h94593b7575b11cb0E>:
 80009c6:	b580      	push	{r7, lr}
 80009c8:	466f      	mov	r7, sp
 80009ca:	b08c      	sub	sp, #48	; 0x30
 80009cc:	9002      	str	r0, [sp, #8]
 80009ce:	9103      	str	r1, [sp, #12]
 80009d0:	9105      	str	r1, [sp, #20]
 80009d2:	9104      	str	r1, [sp, #16]
 80009d4:	9904      	ldr	r1, [sp, #16]
 80009d6:	9100      	str	r1, [sp, #0]
 80009d8:	9107      	str	r1, [sp, #28]
 80009da:	2002      	movs	r0, #2
 80009dc:	f807 0c15 	strb.w	r0, [r7, #-21]
 80009e0:	f817 0c15 	ldrb.w	r0, [r7, #-21]
 80009e4:	9108      	str	r1, [sp, #32]
 80009e6:	f807 0c09 	strb.w	r0, [r7, #-9]
 80009ea:	f648 7134 	movw	r1, #36660	; 0x8f34
 80009ee:	f6c0 0100 	movt	r1, #2048	; 0x800
 80009f2:	f002 fa3f 	bl	8002e74 <_ZN50_$LT$T$u20$as$u20$core..convert..Into$LT$U$GT$$GT$4into17h09173358117f67deE>
 80009f6:	4602      	mov	r2, r0
 80009f8:	9800      	ldr	r0, [sp, #0]
 80009fa:	900a      	str	r0, [sp, #40]	; 0x28
 80009fc:	f807 2c01 	strb.w	r2, [r7, #-1]
 8000a00:	990a      	ldr	r1, [sp, #40]	; 0x28
 8000a02:	6808      	ldr	r0, [r1, #0]
 8000a04:	f020 000c 	bic.w	r0, r0, #12
 8000a08:	f002 0203 	and.w	r2, r2, #3
 8000a0c:	ea40 0082 	orr.w	r0, r0, r2, lsl #2
 8000a10:	6008      	str	r0, [r1, #0]
 8000a12:	980a      	ldr	r0, [sp, #40]	; 0x28
 8000a14:	b00c      	add	sp, #48	; 0x30
 8000a16:	bd80      	pop	{r7, pc}

08000a18 <_ZN4mem310checkpoint14initialization28_$u7b$$u7b$closure$u7d$$u7d$17h4df02161c80f4d8dE>:
 8000a18:	b580      	push	{r7, lr}
 8000a1a:	466f      	mov	r7, sp
 8000a1c:	b08c      	sub	sp, #48	; 0x30
 8000a1e:	9002      	str	r0, [sp, #8]
 8000a20:	9103      	str	r1, [sp, #12]
 8000a22:	9105      	str	r1, [sp, #20]
 8000a24:	9104      	str	r1, [sp, #16]
 8000a26:	9904      	ldr	r1, [sp, #16]
 8000a28:	9100      	str	r1, [sp, #0]
 8000a2a:	9107      	str	r1, [sp, #28]
 8000a2c:	200c      	movs	r0, #12
 8000a2e:	f807 0c15 	strb.w	r0, [r7, #-21]
 8000a32:	f817 0c15 	ldrb.w	r0, [r7, #-21]
 8000a36:	9108      	str	r1, [sp, #32]
 8000a38:	f807 0c09 	strb.w	r0, [r7, #-9]
 8000a3c:	f648 6158 	movw	r1, #36440	; 0x8e58
 8000a40:	f6c0 0100 	movt	r1, #2048	; 0x800
 8000a44:	f002 f953 	bl	8002cee <_ZN50_$LT$T$u20$as$u20$core..convert..Into$LT$U$GT$$GT$4into17he9c5b7d8674cbccbE>
 8000a48:	4602      	mov	r2, r0
 8000a4a:	9800      	ldr	r0, [sp, #0]
 8000a4c:	900a      	str	r0, [sp, #40]	; 0x28
 8000a4e:	f807 2c01 	strb.w	r2, [r7, #-1]
 8000a52:	990a      	ldr	r1, [sp, #40]	; 0x28
 8000a54:	6808      	ldr	r0, [r1, #0]
 8000a56:	f020 00f0 	bic.w	r0, r0, #240	; 0xf0
 8000a5a:	f002 020f 	and.w	r2, r2, #15
 8000a5e:	ea40 1002 	orr.w	r0, r0, r2, lsl #4
 8000a62:	6008      	str	r0, [r1, #0]
 8000a64:	980a      	ldr	r0, [sp, #40]	; 0x28
 8000a66:	b00c      	add	sp, #48	; 0x30
 8000a68:	bd80      	pop	{r7, pc}

08000a6a <_ZN4mem310checkpoint14initialization28_$u7b$$u7b$closure$u7d$$u7d$17h6f0e1a9fa20d7d3fE>:
 8000a6a:	b580      	push	{r7, lr}
 8000a6c:	466f      	mov	r7, sp
 8000a6e:	b08c      	sub	sp, #48	; 0x30
 8000a70:	9002      	str	r0, [sp, #8]
 8000a72:	9103      	str	r1, [sp, #12]
 8000a74:	910b      	str	r1, [sp, #44]	; 0x2c
 8000a76:	910a      	str	r1, [sp, #40]	; 0x28
 8000a78:	990a      	ldr	r1, [sp, #40]	; 0x28
 8000a7a:	9100      	str	r1, [sp, #0]
 8000a7c:	9105      	str	r1, [sp, #20]
 8000a7e:	2003      	movs	r0, #3
 8000a80:	f807 0c1d 	strb.w	r0, [r7, #-29]
 8000a84:	f817 0c1d 	ldrb.w	r0, [r7, #-29]
 8000a88:	9106      	str	r1, [sp, #24]
 8000a8a:	f807 0c11 	strb.w	r0, [r7, #-17]
 8000a8e:	f249 0190 	movw	r1, #37008	; 0x9090
 8000a92:	f6c0 0100 	movt	r1, #2048	; 0x800
 8000a96:	f005 fcb9 	bl	800640c <_ZN50_$LT$T$u20$as$u20$core..convert..Into$LT$U$GT$$GT$4into17hd0fa2a7d0802ab5aE>
 8000a9a:	4602      	mov	r2, r0
 8000a9c:	9800      	ldr	r0, [sp, #0]
 8000a9e:	9008      	str	r0, [sp, #32]
 8000aa0:	f807 2c09 	strb.w	r2, [r7, #-9]
 8000aa4:	9908      	ldr	r1, [sp, #32]
 8000aa6:	6808      	ldr	r0, [r1, #0]
 8000aa8:	f020 000c 	bic.w	r0, r0, #12
 8000aac:	f002 0203 	and.w	r2, r2, #3
 8000ab0:	ea40 0082 	orr.w	r0, r0, r2, lsl #2
 8000ab4:	6008      	str	r0, [r1, #0]
 8000ab6:	9808      	ldr	r0, [sp, #32]
 8000ab8:	b00c      	add	sp, #48	; 0x30
 8000aba:	bd80      	pop	{r7, pc}

08000abc <_ZN4mem310checkpoint14initialization28_$u7b$$u7b$closure$u7d$$u7d$17h8753bc3404f4efb9E>:
 8000abc:	b580      	push	{r7, lr}
 8000abe:	466f      	mov	r7, sp
 8000ac0:	b08c      	sub	sp, #48	; 0x30
 8000ac2:	9002      	str	r0, [sp, #8]
 8000ac4:	9103      	str	r1, [sp, #12]
 8000ac6:	9105      	str	r1, [sp, #20]
 8000ac8:	9104      	str	r1, [sp, #16]
 8000aca:	9904      	ldr	r1, [sp, #16]
 8000acc:	9100      	str	r1, [sp, #0]
 8000ace:	9107      	str	r1, [sp, #28]
 8000ad0:	2002      	movs	r0, #2
 8000ad2:	f807 0c15 	strb.w	r0, [r7, #-21]
 8000ad6:	f817 0c15 	ldrb.w	r0, [r7, #-21]
 8000ada:	9108      	str	r1, [sp, #32]
 8000adc:	f807 0c09 	strb.w	r0, [r7, #-9]
 8000ae0:	f648 7144 	movw	r1, #36676	; 0x8f44
 8000ae4:	f6c0 0100 	movt	r1, #2048	; 0x800
 8000ae8:	f002 f9c4 	bl	8002e74 <_ZN50_$LT$T$u20$as$u20$core..convert..Into$LT$U$GT$$GT$4into17h09173358117f67deE>
 8000aec:	4602      	mov	r2, r0
 8000aee:	9800      	ldr	r0, [sp, #0]
 8000af0:	900a      	str	r0, [sp, #40]	; 0x28
 8000af2:	f807 2c01 	strb.w	r2, [r7, #-1]
 8000af6:	990a      	ldr	r1, [sp, #40]	; 0x28
 8000af8:	6808      	ldr	r0, [r1, #0]
 8000afa:	f020 0030 	bic.w	r0, r0, #48	; 0x30
 8000afe:	f002 0203 	and.w	r2, r2, #3
 8000b02:	ea40 1002 	orr.w	r0, r0, r2, lsl #4
 8000b06:	6008      	str	r0, [r1, #0]
 8000b08:	980a      	ldr	r0, [sp, #40]	; 0x28
 8000b0a:	b00c      	add	sp, #48	; 0x30
 8000b0c:	bd80      	pop	{r7, pc}

08000b0e <_ZN4mem310checkpoint14initialization28_$u7b$$u7b$closure$u7d$$u7d$17hc3f55ba626535b6aE>:
 8000b0e:	b580      	push	{r7, lr}
 8000b10:	466f      	mov	r7, sp
 8000b12:	b08c      	sub	sp, #48	; 0x30
 8000b14:	9002      	str	r0, [sp, #8]
 8000b16:	9103      	str	r1, [sp, #12]
 8000b18:	9105      	str	r1, [sp, #20]
 8000b1a:	9104      	str	r1, [sp, #16]
 8000b1c:	9904      	ldr	r1, [sp, #16]
 8000b1e:	9100      	str	r1, [sp, #0]
 8000b20:	9107      	str	r1, [sp, #28]
 8000b22:	200c      	movs	r0, #12
 8000b24:	f807 0c15 	strb.w	r0, [r7, #-21]
 8000b28:	f817 0c15 	ldrb.w	r0, [r7, #-21]
 8000b2c:	9108      	str	r1, [sp, #32]
 8000b2e:	f807 0c09 	strb.w	r0, [r7, #-9]
 8000b32:	f648 6168 	movw	r1, #36456	; 0x8e68
 8000b36:	f6c0 0100 	movt	r1, #2048	; 0x800
 8000b3a:	f002 f8d8 	bl	8002cee <_ZN50_$LT$T$u20$as$u20$core..convert..Into$LT$U$GT$$GT$4into17he9c5b7d8674cbccbE>
 8000b3e:	4602      	mov	r2, r0
 8000b40:	9800      	ldr	r0, [sp, #0]
 8000b42:	900a      	str	r0, [sp, #40]	; 0x28
 8000b44:	f807 2c01 	strb.w	r2, [r7, #-1]
 8000b48:	990a      	ldr	r1, [sp, #40]	; 0x28
 8000b4a:	6808      	ldr	r0, [r1, #0]
 8000b4c:	f420 6070 	bic.w	r0, r0, #3840	; 0xf00
 8000b50:	f002 020f 	and.w	r2, r2, #15
 8000b54:	ea40 2002 	orr.w	r0, r0, r2, lsl #8
 8000b58:	6008      	str	r0, [r1, #0]
 8000b5a:	980a      	ldr	r0, [sp, #40]	; 0x28
 8000b5c:	b00c      	add	sp, #48	; 0x30
 8000b5e:	bd80      	pop	{r7, pc}

08000b60 <_ZN4mem310checkpoint14initialization28_$u7b$$u7b$closure$u7d$$u7d$17hf6960a9fd36376f5E>:
 8000b60:	b580      	push	{r7, lr}
 8000b62:	466f      	mov	r7, sp
 8000b64:	b08c      	sub	sp, #48	; 0x30
 8000b66:	9002      	str	r0, [sp, #8]
 8000b68:	9103      	str	r1, [sp, #12]
 8000b6a:	910b      	str	r1, [sp, #44]	; 0x2c
 8000b6c:	910a      	str	r1, [sp, #40]	; 0x28
 8000b6e:	990a      	ldr	r1, [sp, #40]	; 0x28
 8000b70:	9100      	str	r1, [sp, #0]
 8000b72:	9105      	str	r1, [sp, #20]
 8000b74:	2003      	movs	r0, #3
 8000b76:	f807 0c1d 	strb.w	r0, [r7, #-29]
 8000b7a:	f817 0c1d 	ldrb.w	r0, [r7, #-29]
 8000b7e:	9106      	str	r1, [sp, #24]
 8000b80:	f807 0c11 	strb.w	r0, [r7, #-17]
 8000b84:	f249 01a0 	movw	r1, #37024	; 0x90a0
 8000b88:	f6c0 0100 	movt	r1, #2048	; 0x800
 8000b8c:	f005 fc3e 	bl	800640c <_ZN50_$LT$T$u20$as$u20$core..convert..Into$LT$U$GT$$GT$4into17hd0fa2a7d0802ab5aE>
 8000b90:	4602      	mov	r2, r0
 8000b92:	9800      	ldr	r0, [sp, #0]
 8000b94:	9008      	str	r0, [sp, #32]
 8000b96:	f807 2c09 	strb.w	r2, [r7, #-9]
 8000b9a:	9908      	ldr	r1, [sp, #32]
 8000b9c:	6808      	ldr	r0, [r1, #0]
 8000b9e:	f020 0030 	bic.w	r0, r0, #48	; 0x30
 8000ba2:	f002 0203 	and.w	r2, r2, #3
 8000ba6:	ea40 1002 	orr.w	r0, r0, r2, lsl #4
 8000baa:	6008      	str	r0, [r1, #0]
 8000bac:	9808      	ldr	r0, [sp, #32]
 8000bae:	b00c      	add	sp, #48	; 0x30
 8000bb0:	bd80      	pop	{r7, pc}

08000bb2 <_ZN4mem310checkpoint14initialization28_$u7b$$u7b$closure$u7d$$u7d$17hddfc1d4f87258aaaE>:
 8000bb2:	b580      	push	{r7, lr}
 8000bb4:	466f      	mov	r7, sp
 8000bb6:	b08c      	sub	sp, #48	; 0x30
 8000bb8:	9002      	str	r0, [sp, #8]
 8000bba:	9103      	str	r1, [sp, #12]
 8000bbc:	9105      	str	r1, [sp, #20]
 8000bbe:	9104      	str	r1, [sp, #16]
 8000bc0:	9904      	ldr	r1, [sp, #16]
 8000bc2:	9100      	str	r1, [sp, #0]
 8000bc4:	9107      	str	r1, [sp, #28]
 8000bc6:	2002      	movs	r0, #2
 8000bc8:	f807 0c15 	strb.w	r0, [r7, #-21]
 8000bcc:	f817 0c15 	ldrb.w	r0, [r7, #-21]
 8000bd0:	9108      	str	r1, [sp, #32]
 8000bd2:	f807 0c09 	strb.w	r0, [r7, #-9]
 8000bd6:	f648 7154 	movw	r1, #36692	; 0x8f54
 8000bda:	f6c0 0100 	movt	r1, #2048	; 0x800
 8000bde:	f002 f949 	bl	8002e74 <_ZN50_$LT$T$u20$as$u20$core..convert..Into$LT$U$GT$$GT$4into17h09173358117f67deE>
 8000be2:	4602      	mov	r2, r0
 8000be4:	9800      	ldr	r0, [sp, #0]
 8000be6:	900a      	str	r0, [sp, #40]	; 0x28
 8000be8:	f807 2c01 	strb.w	r2, [r7, #-1]
 8000bec:	990a      	ldr	r1, [sp, #40]	; 0x28
 8000bee:	6808      	ldr	r0, [r1, #0]
 8000bf0:	f020 00c0 	bic.w	r0, r0, #192	; 0xc0
 8000bf4:	f002 0203 	and.w	r2, r2, #3
 8000bf8:	ea40 1082 	orr.w	r0, r0, r2, lsl #6
 8000bfc:	6008      	str	r0, [r1, #0]
 8000bfe:	980a      	ldr	r0, [sp, #40]	; 0x28
 8000c00:	b00c      	add	sp, #48	; 0x30
 8000c02:	bd80      	pop	{r7, pc}

08000c04 <_ZN4mem310checkpoint14initialization28_$u7b$$u7b$closure$u7d$$u7d$17hfbaa0175f7a5cb30E>:
 8000c04:	b580      	push	{r7, lr}
 8000c06:	466f      	mov	r7, sp
 8000c08:	b08c      	sub	sp, #48	; 0x30
 8000c0a:	9002      	str	r0, [sp, #8]
 8000c0c:	9103      	str	r1, [sp, #12]
 8000c0e:	9105      	str	r1, [sp, #20]
 8000c10:	9104      	str	r1, [sp, #16]
 8000c12:	9904      	ldr	r1, [sp, #16]
 8000c14:	9100      	str	r1, [sp, #0]
 8000c16:	9107      	str	r1, [sp, #28]
 8000c18:	200c      	movs	r0, #12
 8000c1a:	f807 0c15 	strb.w	r0, [r7, #-21]
 8000c1e:	f817 0c15 	ldrb.w	r0, [r7, #-21]
 8000c22:	9108      	str	r1, [sp, #32]
 8000c24:	f807 0c09 	strb.w	r0, [r7, #-9]
 8000c28:	f648 6178 	movw	r1, #36472	; 0x8e78
 8000c2c:	f6c0 0100 	movt	r1, #2048	; 0x800
 8000c30:	f002 f85d 	bl	8002cee <_ZN50_$LT$T$u20$as$u20$core..convert..Into$LT$U$GT$$GT$4into17he9c5b7d8674cbccbE>
 8000c34:	4602      	mov	r2, r0
 8000c36:	9800      	ldr	r0, [sp, #0]
 8000c38:	900a      	str	r0, [sp, #40]	; 0x28
 8000c3a:	f807 2c01 	strb.w	r2, [r7, #-1]
 8000c3e:	990a      	ldr	r1, [sp, #40]	; 0x28
 8000c40:	6808      	ldr	r0, [r1, #0]
 8000c42:	f420 4070 	bic.w	r0, r0, #61440	; 0xf000
 8000c46:	f002 020f 	and.w	r2, r2, #15
 8000c4a:	ea40 3002 	orr.w	r0, r0, r2, lsl #12
 8000c4e:	6008      	str	r0, [r1, #0]
 8000c50:	980a      	ldr	r0, [sp, #40]	; 0x28
 8000c52:	b00c      	add	sp, #48	; 0x30
 8000c54:	bd80      	pop	{r7, pc}

08000c56 <_ZN4mem310checkpoint14initialization28_$u7b$$u7b$closure$u7d$$u7d$17h6b874422224f3290E>:
 8000c56:	b580      	push	{r7, lr}
 8000c58:	466f      	mov	r7, sp
 8000c5a:	b08c      	sub	sp, #48	; 0x30
 8000c5c:	9002      	str	r0, [sp, #8]
 8000c5e:	9103      	str	r1, [sp, #12]
 8000c60:	910b      	str	r1, [sp, #44]	; 0x2c
 8000c62:	910a      	str	r1, [sp, #40]	; 0x28
 8000c64:	990a      	ldr	r1, [sp, #40]	; 0x28
 8000c66:	9100      	str	r1, [sp, #0]
 8000c68:	9105      	str	r1, [sp, #20]
 8000c6a:	2003      	movs	r0, #3
 8000c6c:	f807 0c1d 	strb.w	r0, [r7, #-29]
 8000c70:	f817 0c1d 	ldrb.w	r0, [r7, #-29]
 8000c74:	9106      	str	r1, [sp, #24]
 8000c76:	f807 0c11 	strb.w	r0, [r7, #-17]
 8000c7a:	f249 01b0 	movw	r1, #37040	; 0x90b0
 8000c7e:	f6c0 0100 	movt	r1, #2048	; 0x800
 8000c82:	f005 fbc3 	bl	800640c <_ZN50_$LT$T$u20$as$u20$core..convert..Into$LT$U$GT$$GT$4into17hd0fa2a7d0802ab5aE>
 8000c86:	4602      	mov	r2, r0
 8000c88:	9800      	ldr	r0, [sp, #0]
 8000c8a:	9008      	str	r0, [sp, #32]
 8000c8c:	f807 2c09 	strb.w	r2, [r7, #-9]
 8000c90:	9908      	ldr	r1, [sp, #32]
 8000c92:	6808      	ldr	r0, [r1, #0]
 8000c94:	f020 00c0 	bic.w	r0, r0, #192	; 0xc0
 8000c98:	f002 0203 	and.w	r2, r2, #3
 8000c9c:	ea40 1082 	orr.w	r0, r0, r2, lsl #6
 8000ca0:	6008      	str	r0, [r1, #0]
 8000ca2:	9808      	ldr	r0, [sp, #32]
 8000ca4:	b00c      	add	sp, #48	; 0x30
 8000ca6:	bd80      	pop	{r7, pc}

08000ca8 <_ZN4mem310checkpoint14initialization28_$u7b$$u7b$closure$u7d$$u7d$17h25c1f1d5a325095aE>:
 8000ca8:	b580      	push	{r7, lr}
 8000caa:	466f      	mov	r7, sp
 8000cac:	b08c      	sub	sp, #48	; 0x30
 8000cae:	9002      	str	r0, [sp, #8]
 8000cb0:	9103      	str	r1, [sp, #12]
 8000cb2:	9105      	str	r1, [sp, #20]
 8000cb4:	9104      	str	r1, [sp, #16]
 8000cb6:	9904      	ldr	r1, [sp, #16]
 8000cb8:	9100      	str	r1, [sp, #0]
 8000cba:	9107      	str	r1, [sp, #28]
 8000cbc:	2002      	movs	r0, #2
 8000cbe:	f807 0c15 	strb.w	r0, [r7, #-21]
 8000cc2:	f817 0c15 	ldrb.w	r0, [r7, #-21]
 8000cc6:	9108      	str	r1, [sp, #32]
 8000cc8:	f807 0c09 	strb.w	r0, [r7, #-9]
 8000ccc:	f648 7164 	movw	r1, #36708	; 0x8f64
 8000cd0:	f6c0 0100 	movt	r1, #2048	; 0x800
 8000cd4:	f002 f8ce 	bl	8002e74 <_ZN50_$LT$T$u20$as$u20$core..convert..Into$LT$U$GT$$GT$4into17h09173358117f67deE>
 8000cd8:	4602      	mov	r2, r0
 8000cda:	9800      	ldr	r0, [sp, #0]
 8000cdc:	900a      	str	r0, [sp, #40]	; 0x28
 8000cde:	f807 2c01 	strb.w	r2, [r7, #-1]
 8000ce2:	990a      	ldr	r1, [sp, #40]	; 0x28
 8000ce4:	6808      	ldr	r0, [r1, #0]
 8000ce6:	f420 7040 	bic.w	r0, r0, #768	; 0x300
 8000cea:	f002 0203 	and.w	r2, r2, #3
 8000cee:	ea40 2002 	orr.w	r0, r0, r2, lsl #8
 8000cf2:	6008      	str	r0, [r1, #0]
 8000cf4:	980a      	ldr	r0, [sp, #40]	; 0x28
 8000cf6:	b00c      	add	sp, #48	; 0x30
 8000cf8:	bd80      	pop	{r7, pc}

08000cfa <_ZN4mem310checkpoint14initialization28_$u7b$$u7b$closure$u7d$$u7d$17hee4b2b8e0a6a9548E>:
 8000cfa:	b580      	push	{r7, lr}
 8000cfc:	466f      	mov	r7, sp
 8000cfe:	b08c      	sub	sp, #48	; 0x30
 8000d00:	9002      	str	r0, [sp, #8]
 8000d02:	9103      	str	r1, [sp, #12]
 8000d04:	9105      	str	r1, [sp, #20]
 8000d06:	9104      	str	r1, [sp, #16]
 8000d08:	9904      	ldr	r1, [sp, #16]
 8000d0a:	9100      	str	r1, [sp, #0]
 8000d0c:	9107      	str	r1, [sp, #28]
 8000d0e:	200c      	movs	r0, #12
 8000d10:	f807 0c15 	strb.w	r0, [r7, #-21]
 8000d14:	f817 0c15 	ldrb.w	r0, [r7, #-21]
 8000d18:	9108      	str	r1, [sp, #32]
 8000d1a:	f807 0c09 	strb.w	r0, [r7, #-9]
 8000d1e:	f648 6188 	movw	r1, #36488	; 0x8e88
 8000d22:	f6c0 0100 	movt	r1, #2048	; 0x800
 8000d26:	f001 ffe2 	bl	8002cee <_ZN50_$LT$T$u20$as$u20$core..convert..Into$LT$U$GT$$GT$4into17he9c5b7d8674cbccbE>
 8000d2a:	4602      	mov	r2, r0
 8000d2c:	9800      	ldr	r0, [sp, #0]
 8000d2e:	900a      	str	r0, [sp, #40]	; 0x28
 8000d30:	f807 2c01 	strb.w	r2, [r7, #-1]
 8000d34:	990a      	ldr	r1, [sp, #40]	; 0x28
 8000d36:	6808      	ldr	r0, [r1, #0]
 8000d38:	f420 2070 	bic.w	r0, r0, #983040	; 0xf0000
 8000d3c:	f002 020f 	and.w	r2, r2, #15
 8000d40:	ea40 4002 	orr.w	r0, r0, r2, lsl #16
 8000d44:	6008      	str	r0, [r1, #0]
 8000d46:	980a      	ldr	r0, [sp, #40]	; 0x28
 8000d48:	b00c      	add	sp, #48	; 0x30
 8000d4a:	bd80      	pop	{r7, pc}

08000d4c <_ZN4mem310checkpoint14initialization28_$u7b$$u7b$closure$u7d$$u7d$17hf6dd0c597c0df35bE>:
 8000d4c:	b580      	push	{r7, lr}
 8000d4e:	466f      	mov	r7, sp
 8000d50:	b08c      	sub	sp, #48	; 0x30
 8000d52:	9002      	str	r0, [sp, #8]
 8000d54:	9103      	str	r1, [sp, #12]
 8000d56:	910b      	str	r1, [sp, #44]	; 0x2c
 8000d58:	910a      	str	r1, [sp, #40]	; 0x28
 8000d5a:	990a      	ldr	r1, [sp, #40]	; 0x28
 8000d5c:	9100      	str	r1, [sp, #0]
 8000d5e:	9105      	str	r1, [sp, #20]
 8000d60:	2003      	movs	r0, #3
 8000d62:	f807 0c1d 	strb.w	r0, [r7, #-29]
 8000d66:	f817 0c1d 	ldrb.w	r0, [r7, #-29]
 8000d6a:	9106      	str	r1, [sp, #24]
 8000d6c:	f807 0c11 	strb.w	r0, [r7, #-17]
 8000d70:	f249 01c0 	movw	r1, #37056	; 0x90c0
 8000d74:	f6c0 0100 	movt	r1, #2048	; 0x800
 8000d78:	f005 fb48 	bl	800640c <_ZN50_$LT$T$u20$as$u20$core..convert..Into$LT$U$GT$$GT$4into17hd0fa2a7d0802ab5aE>
 8000d7c:	4602      	mov	r2, r0
 8000d7e:	9800      	ldr	r0, [sp, #0]
 8000d80:	9008      	str	r0, [sp, #32]
 8000d82:	f807 2c09 	strb.w	r2, [r7, #-9]
 8000d86:	9908      	ldr	r1, [sp, #32]
 8000d88:	6808      	ldr	r0, [r1, #0]
 8000d8a:	f420 7040 	bic.w	r0, r0, #768	; 0x300
 8000d8e:	f002 0203 	and.w	r2, r2, #3
 8000d92:	ea40 2002 	orr.w	r0, r0, r2, lsl #8
 8000d96:	6008      	str	r0, [r1, #0]
 8000d98:	9808      	ldr	r0, [sp, #32]
 8000d9a:	b00c      	add	sp, #48	; 0x30
 8000d9c:	bd80      	pop	{r7, pc}

08000d9e <_ZN4mem310checkpoint14initialization28_$u7b$$u7b$closure$u7d$$u7d$17haec990b88fc15cfbE>:
 8000d9e:	b580      	push	{r7, lr}
 8000da0:	466f      	mov	r7, sp
 8000da2:	b08c      	sub	sp, #48	; 0x30
 8000da4:	9002      	str	r0, [sp, #8]
 8000da6:	9103      	str	r1, [sp, #12]
 8000da8:	9105      	str	r1, [sp, #20]
 8000daa:	9104      	str	r1, [sp, #16]
 8000dac:	9904      	ldr	r1, [sp, #16]
 8000dae:	9100      	str	r1, [sp, #0]
 8000db0:	9107      	str	r1, [sp, #28]
 8000db2:	2002      	movs	r0, #2
 8000db4:	f807 0c15 	strb.w	r0, [r7, #-21]
 8000db8:	f817 0c15 	ldrb.w	r0, [r7, #-21]
 8000dbc:	9108      	str	r1, [sp, #32]
 8000dbe:	f807 0c09 	strb.w	r0, [r7, #-9]
 8000dc2:	f648 7174 	movw	r1, #36724	; 0x8f74
 8000dc6:	f6c0 0100 	movt	r1, #2048	; 0x800
 8000dca:	f002 f853 	bl	8002e74 <_ZN50_$LT$T$u20$as$u20$core..convert..Into$LT$U$GT$$GT$4into17h09173358117f67deE>
 8000dce:	4602      	mov	r2, r0
 8000dd0:	9800      	ldr	r0, [sp, #0]
 8000dd2:	900a      	str	r0, [sp, #40]	; 0x28
 8000dd4:	f807 2c01 	strb.w	r2, [r7, #-1]
 8000dd8:	990a      	ldr	r1, [sp, #40]	; 0x28
 8000dda:	6808      	ldr	r0, [r1, #0]
 8000ddc:	f420 6040 	bic.w	r0, r0, #3072	; 0xc00
 8000de0:	f002 0203 	and.w	r2, r2, #3
 8000de4:	ea40 2082 	orr.w	r0, r0, r2, lsl #10
 8000de8:	6008      	str	r0, [r1, #0]
 8000dea:	980a      	ldr	r0, [sp, #40]	; 0x28
 8000dec:	b00c      	add	sp, #48	; 0x30
 8000dee:	bd80      	pop	{r7, pc}

08000df0 <_ZN4mem310checkpoint14initialization28_$u7b$$u7b$closure$u7d$$u7d$17h234011e7e72be7b9E>:
 8000df0:	b580      	push	{r7, lr}
 8000df2:	466f      	mov	r7, sp
 8000df4:	b08c      	sub	sp, #48	; 0x30
 8000df6:	9002      	str	r0, [sp, #8]
 8000df8:	9103      	str	r1, [sp, #12]
 8000dfa:	9105      	str	r1, [sp, #20]
 8000dfc:	9104      	str	r1, [sp, #16]
 8000dfe:	9904      	ldr	r1, [sp, #16]
 8000e00:	9100      	str	r1, [sp, #0]
 8000e02:	9107      	str	r1, [sp, #28]
 8000e04:	200c      	movs	r0, #12
 8000e06:	f807 0c15 	strb.w	r0, [r7, #-21]
 8000e0a:	f817 0c15 	ldrb.w	r0, [r7, #-21]
 8000e0e:	9108      	str	r1, [sp, #32]
 8000e10:	f807 0c09 	strb.w	r0, [r7, #-9]
 8000e14:	f648 6198 	movw	r1, #36504	; 0x8e98
 8000e18:	f6c0 0100 	movt	r1, #2048	; 0x800
 8000e1c:	f001 ff67 	bl	8002cee <_ZN50_$LT$T$u20$as$u20$core..convert..Into$LT$U$GT$$GT$4into17he9c5b7d8674cbccbE>
 8000e20:	4602      	mov	r2, r0
 8000e22:	9800      	ldr	r0, [sp, #0]
 8000e24:	900a      	str	r0, [sp, #40]	; 0x28
 8000e26:	f807 2c01 	strb.w	r2, [r7, #-1]
 8000e2a:	990a      	ldr	r1, [sp, #40]	; 0x28
 8000e2c:	6808      	ldr	r0, [r1, #0]
 8000e2e:	f420 0070 	bic.w	r0, r0, #15728640	; 0xf00000
 8000e32:	f002 020f 	and.w	r2, r2, #15
 8000e36:	ea40 5002 	orr.w	r0, r0, r2, lsl #20
 8000e3a:	6008      	str	r0, [r1, #0]
 8000e3c:	980a      	ldr	r0, [sp, #40]	; 0x28
 8000e3e:	b00c      	add	sp, #48	; 0x30
 8000e40:	bd80      	pop	{r7, pc}

08000e42 <_ZN4mem310checkpoint14initialization28_$u7b$$u7b$closure$u7d$$u7d$17hcbf3fb1073633e72E>:
 8000e42:	b580      	push	{r7, lr}
 8000e44:	466f      	mov	r7, sp
 8000e46:	b08c      	sub	sp, #48	; 0x30
 8000e48:	9002      	str	r0, [sp, #8]
 8000e4a:	9103      	str	r1, [sp, #12]
 8000e4c:	910b      	str	r1, [sp, #44]	; 0x2c
 8000e4e:	910a      	str	r1, [sp, #40]	; 0x28
 8000e50:	990a      	ldr	r1, [sp, #40]	; 0x28
 8000e52:	9100      	str	r1, [sp, #0]
 8000e54:	9105      	str	r1, [sp, #20]
 8000e56:	2003      	movs	r0, #3
 8000e58:	f807 0c1d 	strb.w	r0, [r7, #-29]
 8000e5c:	f817 0c1d 	ldrb.w	r0, [r7, #-29]
 8000e60:	9106      	str	r1, [sp, #24]
 8000e62:	f807 0c11 	strb.w	r0, [r7, #-17]
 8000e66:	f249 01d0 	movw	r1, #37072	; 0x90d0
 8000e6a:	f6c0 0100 	movt	r1, #2048	; 0x800
 8000e6e:	f005 facd 	bl	800640c <_ZN50_$LT$T$u20$as$u20$core..convert..Into$LT$U$GT$$GT$4into17hd0fa2a7d0802ab5aE>
 8000e72:	4602      	mov	r2, r0
 8000e74:	9800      	ldr	r0, [sp, #0]
 8000e76:	9008      	str	r0, [sp, #32]
 8000e78:	f807 2c09 	strb.w	r2, [r7, #-9]
 8000e7c:	9908      	ldr	r1, [sp, #32]
 8000e7e:	6808      	ldr	r0, [r1, #0]
 8000e80:	f420 6040 	bic.w	r0, r0, #3072	; 0xc00
 8000e84:	f002 0203 	and.w	r2, r2, #3
 8000e88:	ea40 2082 	orr.w	r0, r0, r2, lsl #10
 8000e8c:	6008      	str	r0, [r1, #0]
 8000e8e:	9808      	ldr	r0, [sp, #32]
 8000e90:	b00c      	add	sp, #48	; 0x30
 8000e92:	bd80      	pop	{r7, pc}

08000e94 <_ZN4mem310checkpoint14initialization28_$u7b$$u7b$closure$u7d$$u7d$17hfea7bc50c85e5e92E>:
 8000e94:	b580      	push	{r7, lr}
 8000e96:	466f      	mov	r7, sp
 8000e98:	b08c      	sub	sp, #48	; 0x30
 8000e9a:	9002      	str	r0, [sp, #8]
 8000e9c:	9103      	str	r1, [sp, #12]
 8000e9e:	9105      	str	r1, [sp, #20]
 8000ea0:	9104      	str	r1, [sp, #16]
 8000ea2:	9904      	ldr	r1, [sp, #16]
 8000ea4:	9100      	str	r1, [sp, #0]
 8000ea6:	9107      	str	r1, [sp, #28]
 8000ea8:	2002      	movs	r0, #2
 8000eaa:	f807 0c15 	strb.w	r0, [r7, #-21]
 8000eae:	f817 0c15 	ldrb.w	r0, [r7, #-21]
 8000eb2:	9108      	str	r1, [sp, #32]
 8000eb4:	f807 0c09 	strb.w	r0, [r7, #-9]
 8000eb8:	f648 71d4 	movw	r1, #36820	; 0x8fd4
 8000ebc:	f6c0 0100 	movt	r1, #2048	; 0x800
 8000ec0:	f001 ffd8 	bl	8002e74 <_ZN50_$LT$T$u20$as$u20$core..convert..Into$LT$U$GT$$GT$4into17h09173358117f67deE>
 8000ec4:	4602      	mov	r2, r0
 8000ec6:	9800      	ldr	r0, [sp, #0]
 8000ec8:	900a      	str	r0, [sp, #40]	; 0x28
 8000eca:	f807 2c01 	strb.w	r2, [r7, #-1]
 8000ece:	990a      	ldr	r1, [sp, #40]	; 0x28
 8000ed0:	6808      	ldr	r0, [r1, #0]
 8000ed2:	f020 7040 	bic.w	r0, r0, #50331648	; 0x3000000
 8000ed6:	f002 0203 	and.w	r2, r2, #3
 8000eda:	ea40 6002 	orr.w	r0, r0, r2, lsl #24
 8000ede:	6008      	str	r0, [r1, #0]
 8000ee0:	980a      	ldr	r0, [sp, #40]	; 0x28
 8000ee2:	b00c      	add	sp, #48	; 0x30
 8000ee4:	bd80      	pop	{r7, pc}

08000ee6 <_ZN4mem310checkpoint14initialization28_$u7b$$u7b$closure$u7d$$u7d$17hc8ab11208bbd6f91E>:
 8000ee6:	b580      	push	{r7, lr}
 8000ee8:	466f      	mov	r7, sp
 8000eea:	b08c      	sub	sp, #48	; 0x30
 8000eec:	9002      	str	r0, [sp, #8]
 8000eee:	9103      	str	r1, [sp, #12]
 8000ef0:	9105      	str	r1, [sp, #20]
 8000ef2:	9104      	str	r1, [sp, #16]
 8000ef4:	9904      	ldr	r1, [sp, #16]
 8000ef6:	9100      	str	r1, [sp, #0]
 8000ef8:	9107      	str	r1, [sp, #28]
 8000efa:	200c      	movs	r0, #12
 8000efc:	f807 0c15 	strb.w	r0, [r7, #-21]
 8000f00:	f817 0c15 	ldrb.w	r0, [r7, #-21]
 8000f04:	9108      	str	r1, [sp, #32]
 8000f06:	f807 0c09 	strb.w	r0, [r7, #-9]
 8000f0a:	f648 519c 	movw	r1, #36252	; 0x8d9c
 8000f0e:	f6c0 0100 	movt	r1, #2048	; 0x800
 8000f12:	f7ff fa22 	bl	800035a <_ZN50_$LT$T$u20$as$u20$core..convert..Into$LT$U$GT$$GT$4into17h71f57894845e8bf0E>
 8000f16:	4602      	mov	r2, r0
 8000f18:	9800      	ldr	r0, [sp, #0]
 8000f1a:	900a      	str	r0, [sp, #40]	; 0x28
 8000f1c:	f807 2c01 	strb.w	r2, [r7, #-1]
 8000f20:	990a      	ldr	r1, [sp, #40]	; 0x28
 8000f22:	6808      	ldr	r0, [r1, #0]
 8000f24:	f420 2070 	bic.w	r0, r0, #983040	; 0xf0000
 8000f28:	f002 020f 	and.w	r2, r2, #15
 8000f2c:	ea40 4002 	orr.w	r0, r0, r2, lsl #16
 8000f30:	6008      	str	r0, [r1, #0]
 8000f32:	980a      	ldr	r0, [sp, #40]	; 0x28
 8000f34:	b00c      	add	sp, #48	; 0x30
 8000f36:	bd80      	pop	{r7, pc}

08000f38 <_ZN4mem310checkpoint14initialization28_$u7b$$u7b$closure$u7d$$u7d$17hf9cafcfad234f579E>:
 8000f38:	b580      	push	{r7, lr}
 8000f3a:	466f      	mov	r7, sp
 8000f3c:	b08c      	sub	sp, #48	; 0x30
 8000f3e:	9002      	str	r0, [sp, #8]
 8000f40:	9103      	str	r1, [sp, #12]
 8000f42:	910b      	str	r1, [sp, #44]	; 0x2c
 8000f44:	910a      	str	r1, [sp, #40]	; 0x28
 8000f46:	990a      	ldr	r1, [sp, #40]	; 0x28
 8000f48:	9100      	str	r1, [sp, #0]
 8000f4a:	9105      	str	r1, [sp, #20]
 8000f4c:	2003      	movs	r0, #3
 8000f4e:	f807 0c1d 	strb.w	r0, [r7, #-29]
 8000f52:	f817 0c1d 	ldrb.w	r0, [r7, #-29]
 8000f56:	9106      	str	r1, [sp, #24]
 8000f58:	f807 0c11 	strb.w	r0, [r7, #-17]
 8000f5c:	f249 1130 	movw	r1, #37168	; 0x9130
 8000f60:	f6c0 0100 	movt	r1, #2048	; 0x800
 8000f64:	f005 fa52 	bl	800640c <_ZN50_$LT$T$u20$as$u20$core..convert..Into$LT$U$GT$$GT$4into17hd0fa2a7d0802ab5aE>
 8000f68:	4602      	mov	r2, r0
 8000f6a:	9800      	ldr	r0, [sp, #0]
 8000f6c:	9008      	str	r0, [sp, #32]
 8000f6e:	f807 2c09 	strb.w	r2, [r7, #-9]
 8000f72:	9908      	ldr	r1, [sp, #32]
 8000f74:	6808      	ldr	r0, [r1, #0]
 8000f76:	f020 7040 	bic.w	r0, r0, #50331648	; 0x3000000
 8000f7a:	f002 0203 	and.w	r2, r2, #3
 8000f7e:	ea40 6002 	orr.w	r0, r0, r2, lsl #24
 8000f82:	6008      	str	r0, [r1, #0]
 8000f84:	9808      	ldr	r0, [sp, #32]
 8000f86:	b00c      	add	sp, #48	; 0x30
 8000f88:	bd80      	pop	{r7, pc}

08000f8a <_ZN4mem310checkpoint14initialization28_$u7b$$u7b$closure$u7d$$u7d$17h63d61ebebf8e2b9aE>:
 8000f8a:	b580      	push	{r7, lr}
 8000f8c:	466f      	mov	r7, sp
 8000f8e:	b08c      	sub	sp, #48	; 0x30
 8000f90:	9002      	str	r0, [sp, #8]
 8000f92:	9103      	str	r1, [sp, #12]
 8000f94:	9105      	str	r1, [sp, #20]
 8000f96:	9104      	str	r1, [sp, #16]
 8000f98:	9904      	ldr	r1, [sp, #16]
 8000f9a:	9100      	str	r1, [sp, #0]
 8000f9c:	9107      	str	r1, [sp, #28]
 8000f9e:	2002      	movs	r0, #2
 8000fa0:	f807 0c15 	strb.w	r0, [r7, #-21]
 8000fa4:	f817 0c15 	ldrb.w	r0, [r7, #-21]
 8000fa8:	9108      	str	r1, [sp, #32]
 8000faa:	f807 0c09 	strb.w	r0, [r7, #-9]
 8000fae:	f648 71e4 	movw	r1, #36836	; 0x8fe4
 8000fb2:	f6c0 0100 	movt	r1, #2048	; 0x800
 8000fb6:	f001 ff5d 	bl	8002e74 <_ZN50_$LT$T$u20$as$u20$core..convert..Into$LT$U$GT$$GT$4into17h09173358117f67deE>
 8000fba:	4602      	mov	r2, r0
 8000fbc:	9800      	ldr	r0, [sp, #0]
 8000fbe:	900a      	str	r0, [sp, #40]	; 0x28
 8000fc0:	f807 2c01 	strb.w	r2, [r7, #-1]
 8000fc4:	990a      	ldr	r1, [sp, #40]	; 0x28
 8000fc6:	6808      	ldr	r0, [r1, #0]
 8000fc8:	f020 6040 	bic.w	r0, r0, #201326592	; 0xc000000
 8000fcc:	f002 0203 	and.w	r2, r2, #3
 8000fd0:	ea40 6082 	orr.w	r0, r0, r2, lsl #26
 8000fd4:	6008      	str	r0, [r1, #0]
 8000fd6:	980a      	ldr	r0, [sp, #40]	; 0x28
 8000fd8:	b00c      	add	sp, #48	; 0x30
 8000fda:	bd80      	pop	{r7, pc}

08000fdc <_ZN4mem310checkpoint14initialization28_$u7b$$u7b$closure$u7d$$u7d$17h545cadd446397d7aE>:
 8000fdc:	b580      	push	{r7, lr}
 8000fde:	466f      	mov	r7, sp
 8000fe0:	b08c      	sub	sp, #48	; 0x30
 8000fe2:	9002      	str	r0, [sp, #8]
 8000fe4:	9103      	str	r1, [sp, #12]
 8000fe6:	9105      	str	r1, [sp, #20]
 8000fe8:	9104      	str	r1, [sp, #16]
 8000fea:	9904      	ldr	r1, [sp, #16]
 8000fec:	9100      	str	r1, [sp, #0]
 8000fee:	9107      	str	r1, [sp, #28]
 8000ff0:	200c      	movs	r0, #12
 8000ff2:	f807 0c15 	strb.w	r0, [r7, #-21]
 8000ff6:	f817 0c15 	ldrb.w	r0, [r7, #-21]
 8000ffa:	9108      	str	r1, [sp, #32]
 8000ffc:	f807 0c09 	strb.w	r0, [r7, #-9]
 8001000:	f648 51ac 	movw	r1, #36268	; 0x8dac
 8001004:	f6c0 0100 	movt	r1, #2048	; 0x800
 8001008:	f7ff f9a7 	bl	800035a <_ZN50_$LT$T$u20$as$u20$core..convert..Into$LT$U$GT$$GT$4into17h71f57894845e8bf0E>
 800100c:	4602      	mov	r2, r0
 800100e:	9800      	ldr	r0, [sp, #0]
 8001010:	900a      	str	r0, [sp, #40]	; 0x28
 8001012:	f807 2c01 	strb.w	r2, [r7, #-1]
 8001016:	990a      	ldr	r1, [sp, #40]	; 0x28
 8001018:	6808      	ldr	r0, [r1, #0]
 800101a:	f420 0070 	bic.w	r0, r0, #15728640	; 0xf00000
 800101e:	f002 020f 	and.w	r2, r2, #15
 8001022:	ea40 5002 	orr.w	r0, r0, r2, lsl #20
 8001026:	6008      	str	r0, [r1, #0]
 8001028:	980a      	ldr	r0, [sp, #40]	; 0x28
 800102a:	b00c      	add	sp, #48	; 0x30
 800102c:	bd80      	pop	{r7, pc}

0800102e <_ZN4mem310checkpoint14initialization28_$u7b$$u7b$closure$u7d$$u7d$17hae9af8be013071caE>:
 800102e:	b580      	push	{r7, lr}
 8001030:	466f      	mov	r7, sp
 8001032:	b08c      	sub	sp, #48	; 0x30
 8001034:	9002      	str	r0, [sp, #8]
 8001036:	9103      	str	r1, [sp, #12]
 8001038:	910b      	str	r1, [sp, #44]	; 0x2c
 800103a:	910a      	str	r1, [sp, #40]	; 0x28
 800103c:	990a      	ldr	r1, [sp, #40]	; 0x28
 800103e:	9100      	str	r1, [sp, #0]
 8001040:	9105      	str	r1, [sp, #20]
 8001042:	2003      	movs	r0, #3
 8001044:	f807 0c1d 	strb.w	r0, [r7, #-29]
 8001048:	f817 0c1d 	ldrb.w	r0, [r7, #-29]
 800104c:	9106      	str	r1, [sp, #24]
 800104e:	f807 0c11 	strb.w	r0, [r7, #-17]
 8001052:	f249 1140 	movw	r1, #37184	; 0x9140
 8001056:	f6c0 0100 	movt	r1, #2048	; 0x800
 800105a:	f005 f9d7 	bl	800640c <_ZN50_$LT$T$u20$as$u20$core..convert..Into$LT$U$GT$$GT$4into17hd0fa2a7d0802ab5aE>
 800105e:	4602      	mov	r2, r0
 8001060:	9800      	ldr	r0, [sp, #0]
 8001062:	9008      	str	r0, [sp, #32]
 8001064:	f807 2c09 	strb.w	r2, [r7, #-9]
 8001068:	9908      	ldr	r1, [sp, #32]
 800106a:	6808      	ldr	r0, [r1, #0]
 800106c:	f020 6040 	bic.w	r0, r0, #201326592	; 0xc000000
 8001070:	f002 0203 	and.w	r2, r2, #3
 8001074:	ea40 6082 	orr.w	r0, r0, r2, lsl #26
 8001078:	6008      	str	r0, [r1, #0]
 800107a:	9808      	ldr	r0, [sp, #32]
 800107c:	b00c      	add	sp, #48	; 0x30
 800107e:	bd80      	pop	{r7, pc}

08001080 <_ZN4mem310checkpoint14initialization28_$u7b$$u7b$closure$u7d$$u7d$17h80ae122164428f14E>:
 8001080:	b580      	push	{r7, lr}
 8001082:	466f      	mov	r7, sp
 8001084:	b08c      	sub	sp, #48	; 0x30
 8001086:	9002      	str	r0, [sp, #8]
 8001088:	9103      	str	r1, [sp, #12]
 800108a:	9105      	str	r1, [sp, #20]
 800108c:	9104      	str	r1, [sp, #16]
 800108e:	9904      	ldr	r1, [sp, #16]
 8001090:	9100      	str	r1, [sp, #0]
 8001092:	9107      	str	r1, [sp, #28]
 8001094:	2002      	movs	r0, #2
 8001096:	f807 0c15 	strb.w	r0, [r7, #-21]
 800109a:	f817 0c15 	ldrb.w	r0, [r7, #-21]
 800109e:	9108      	str	r1, [sp, #32]
 80010a0:	f807 0c09 	strb.w	r0, [r7, #-9]
 80010a4:	f648 71f4 	movw	r1, #36852	; 0x8ff4
 80010a8:	f6c0 0100 	movt	r1, #2048	; 0x800
 80010ac:	f001 fee2 	bl	8002e74 <_ZN50_$LT$T$u20$as$u20$core..convert..Into$LT$U$GT$$GT$4into17h09173358117f67deE>
 80010b0:	4602      	mov	r2, r0
 80010b2:	9800      	ldr	r0, [sp, #0]
 80010b4:	900a      	str	r0, [sp, #40]	; 0x28
 80010b6:	f807 2c01 	strb.w	r2, [r7, #-1]
 80010ba:	990a      	ldr	r1, [sp, #40]	; 0x28
 80010bc:	6808      	ldr	r0, [r1, #0]
 80010be:	f020 5040 	bic.w	r0, r0, #805306368	; 0x30000000
 80010c2:	f002 0203 	and.w	r2, r2, #3
 80010c6:	ea40 7002 	orr.w	r0, r0, r2, lsl #28
 80010ca:	6008      	str	r0, [r1, #0]
 80010cc:	980a      	ldr	r0, [sp, #40]	; 0x28
 80010ce:	b00c      	add	sp, #48	; 0x30
 80010d0:	bd80      	pop	{r7, pc}

080010d2 <_ZN4mem310checkpoint14initialization28_$u7b$$u7b$closure$u7d$$u7d$17h7438c05bb67b58d5E>:
 80010d2:	b580      	push	{r7, lr}
 80010d4:	466f      	mov	r7, sp
 80010d6:	b08c      	sub	sp, #48	; 0x30
 80010d8:	9002      	str	r0, [sp, #8]
 80010da:	9103      	str	r1, [sp, #12]
 80010dc:	9105      	str	r1, [sp, #20]
 80010de:	9104      	str	r1, [sp, #16]
 80010e0:	9904      	ldr	r1, [sp, #16]
 80010e2:	9100      	str	r1, [sp, #0]
 80010e4:	9107      	str	r1, [sp, #28]
 80010e6:	200c      	movs	r0, #12
 80010e8:	f807 0c15 	strb.w	r0, [r7, #-21]
 80010ec:	f817 0c15 	ldrb.w	r0, [r7, #-21]
 80010f0:	9108      	str	r1, [sp, #32]
 80010f2:	f807 0c09 	strb.w	r0, [r7, #-9]
 80010f6:	f648 51bc 	movw	r1, #36284	; 0x8dbc
 80010fa:	f6c0 0100 	movt	r1, #2048	; 0x800
 80010fe:	f7ff f92c 	bl	800035a <_ZN50_$LT$T$u20$as$u20$core..convert..Into$LT$U$GT$$GT$4into17h71f57894845e8bf0E>
 8001102:	4602      	mov	r2, r0
 8001104:	9800      	ldr	r0, [sp, #0]
 8001106:	900a      	str	r0, [sp, #40]	; 0x28
 8001108:	f807 2c01 	strb.w	r2, [r7, #-1]
 800110c:	990a      	ldr	r1, [sp, #40]	; 0x28
 800110e:	6808      	ldr	r0, [r1, #0]
 8001110:	f020 6070 	bic.w	r0, r0, #251658240	; 0xf000000
 8001114:	f002 020f 	and.w	r2, r2, #15
 8001118:	ea40 6002 	orr.w	r0, r0, r2, lsl #24
 800111c:	6008      	str	r0, [r1, #0]
 800111e:	980a      	ldr	r0, [sp, #40]	; 0x28
 8001120:	b00c      	add	sp, #48	; 0x30
 8001122:	bd80      	pop	{r7, pc}

08001124 <_ZN4mem310checkpoint14initialization28_$u7b$$u7b$closure$u7d$$u7d$17hefaf12c55297acebE>:
 8001124:	b580      	push	{r7, lr}
 8001126:	466f      	mov	r7, sp
 8001128:	b08c      	sub	sp, #48	; 0x30
 800112a:	9002      	str	r0, [sp, #8]
 800112c:	9103      	str	r1, [sp, #12]
 800112e:	910b      	str	r1, [sp, #44]	; 0x2c
 8001130:	910a      	str	r1, [sp, #40]	; 0x28
 8001132:	990a      	ldr	r1, [sp, #40]	; 0x28
 8001134:	9100      	str	r1, [sp, #0]
 8001136:	9105      	str	r1, [sp, #20]
 8001138:	2003      	movs	r0, #3
 800113a:	f807 0c1d 	strb.w	r0, [r7, #-29]
 800113e:	f817 0c1d 	ldrb.w	r0, [r7, #-29]
 8001142:	9106      	str	r1, [sp, #24]
 8001144:	f807 0c11 	strb.w	r0, [r7, #-17]
 8001148:	f249 1150 	movw	r1, #37200	; 0x9150
 800114c:	f6c0 0100 	movt	r1, #2048	; 0x800
 8001150:	f005 f95c 	bl	800640c <_ZN50_$LT$T$u20$as$u20$core..convert..Into$LT$U$GT$$GT$4into17hd0fa2a7d0802ab5aE>
 8001154:	4602      	mov	r2, r0
 8001156:	9800      	ldr	r0, [sp, #0]
 8001158:	9008      	str	r0, [sp, #32]
 800115a:	f807 2c09 	strb.w	r2, [r7, #-9]
 800115e:	9908      	ldr	r1, [sp, #32]
 8001160:	6808      	ldr	r0, [r1, #0]
 8001162:	f020 5040 	bic.w	r0, r0, #805306368	; 0x30000000
 8001166:	f002 0203 	and.w	r2, r2, #3
 800116a:	ea40 7002 	orr.w	r0, r0, r2, lsl #28
 800116e:	6008      	str	r0, [r1, #0]
 8001170:	9808      	ldr	r0, [sp, #32]
 8001172:	b00c      	add	sp, #48	; 0x30
 8001174:	bd80      	pop	{r7, pc}

08001176 <_ZN4mem310checkpoint14initialization28_$u7b$$u7b$closure$u7d$$u7d$17hc5dd05b6ad486997E>:
 8001176:	b580      	push	{r7, lr}
 8001178:	466f      	mov	r7, sp
 800117a:	b08c      	sub	sp, #48	; 0x30
 800117c:	9002      	str	r0, [sp, #8]
 800117e:	9103      	str	r1, [sp, #12]
 8001180:	9105      	str	r1, [sp, #20]
 8001182:	9104      	str	r1, [sp, #16]
 8001184:	9904      	ldr	r1, [sp, #16]
 8001186:	9100      	str	r1, [sp, #0]
 8001188:	9107      	str	r1, [sp, #28]
 800118a:	2002      	movs	r0, #2
 800118c:	f807 0c15 	strb.w	r0, [r7, #-21]
 8001190:	f817 0c15 	ldrb.w	r0, [r7, #-21]
 8001194:	9108      	str	r1, [sp, #32]
 8001196:	f807 0c09 	strb.w	r0, [r7, #-9]
 800119a:	f249 0104 	movw	r1, #36868	; 0x9004
 800119e:	f6c0 0100 	movt	r1, #2048	; 0x800
 80011a2:	f001 fe67 	bl	8002e74 <_ZN50_$LT$T$u20$as$u20$core..convert..Into$LT$U$GT$$GT$4into17h09173358117f67deE>
 80011a6:	4602      	mov	r2, r0
 80011a8:	9800      	ldr	r0, [sp, #0]
 80011aa:	900a      	str	r0, [sp, #40]	; 0x28
 80011ac:	f807 2c01 	strb.w	r2, [r7, #-1]
 80011b0:	990a      	ldr	r1, [sp, #40]	; 0x28
 80011b2:	6808      	ldr	r0, [r1, #0]
 80011b4:	f020 4040 	bic.w	r0, r0, #3221225472	; 0xc0000000
 80011b8:	ea40 7082 	orr.w	r0, r0, r2, lsl #30
 80011bc:	6008      	str	r0, [r1, #0]
 80011be:	980a      	ldr	r0, [sp, #40]	; 0x28
 80011c0:	b00c      	add	sp, #48	; 0x30
 80011c2:	bd80      	pop	{r7, pc}

080011c4 <_ZN4mem310checkpoint14initialization28_$u7b$$u7b$closure$u7d$$u7d$17he9436e464764b706E>:
 80011c4:	b580      	push	{r7, lr}
 80011c6:	466f      	mov	r7, sp
 80011c8:	b08c      	sub	sp, #48	; 0x30
 80011ca:	9002      	str	r0, [sp, #8]
 80011cc:	9103      	str	r1, [sp, #12]
 80011ce:	9105      	str	r1, [sp, #20]
 80011d0:	9104      	str	r1, [sp, #16]
 80011d2:	9904      	ldr	r1, [sp, #16]
 80011d4:	9100      	str	r1, [sp, #0]
 80011d6:	9107      	str	r1, [sp, #28]
 80011d8:	200c      	movs	r0, #12
 80011da:	f807 0c15 	strb.w	r0, [r7, #-21]
 80011de:	f817 0c15 	ldrb.w	r0, [r7, #-21]
 80011e2:	9108      	str	r1, [sp, #32]
 80011e4:	f807 0c09 	strb.w	r0, [r7, #-9]
 80011e8:	f648 51cc 	movw	r1, #36300	; 0x8dcc
 80011ec:	f6c0 0100 	movt	r1, #2048	; 0x800
 80011f0:	f7ff f8b3 	bl	800035a <_ZN50_$LT$T$u20$as$u20$core..convert..Into$LT$U$GT$$GT$4into17h71f57894845e8bf0E>
 80011f4:	4602      	mov	r2, r0
 80011f6:	9800      	ldr	r0, [sp, #0]
 80011f8:	900a      	str	r0, [sp, #40]	; 0x28
 80011fa:	f807 2c01 	strb.w	r2, [r7, #-1]
 80011fe:	990a      	ldr	r1, [sp, #40]	; 0x28
 8001200:	6808      	ldr	r0, [r1, #0]
 8001202:	f020 4070 	bic.w	r0, r0, #4026531840	; 0xf0000000
 8001206:	ea40 7002 	orr.w	r0, r0, r2, lsl #28
 800120a:	6008      	str	r0, [r1, #0]
 800120c:	980a      	ldr	r0, [sp, #40]	; 0x28
 800120e:	b00c      	add	sp, #48	; 0x30
 8001210:	bd80      	pop	{r7, pc}

08001212 <_ZN4mem310checkpoint14initialization28_$u7b$$u7b$closure$u7d$$u7d$17hf6b2a660979c4acbE>:
 8001212:	b580      	push	{r7, lr}
 8001214:	466f      	mov	r7, sp
 8001216:	b08c      	sub	sp, #48	; 0x30
 8001218:	9002      	str	r0, [sp, #8]
 800121a:	9103      	str	r1, [sp, #12]
 800121c:	910b      	str	r1, [sp, #44]	; 0x2c
 800121e:	910a      	str	r1, [sp, #40]	; 0x28
 8001220:	990a      	ldr	r1, [sp, #40]	; 0x28
 8001222:	9100      	str	r1, [sp, #0]
 8001224:	9105      	str	r1, [sp, #20]
 8001226:	2003      	movs	r0, #3
 8001228:	f807 0c1d 	strb.w	r0, [r7, #-29]
 800122c:	f817 0c1d 	ldrb.w	r0, [r7, #-29]
 8001230:	9106      	str	r1, [sp, #24]
 8001232:	f807 0c11 	strb.w	r0, [r7, #-17]
 8001236:	f249 1160 	movw	r1, #37216	; 0x9160
 800123a:	f6c0 0100 	movt	r1, #2048	; 0x800
 800123e:	f005 f8e5 	bl	800640c <_ZN50_$LT$T$u20$as$u20$core..convert..Into$LT$U$GT$$GT$4into17hd0fa2a7d0802ab5aE>
 8001242:	4602      	mov	r2, r0
 8001244:	9800      	ldr	r0, [sp, #0]
 8001246:	9008      	str	r0, [sp, #32]
 8001248:	f807 2c09 	strb.w	r2, [r7, #-9]
 800124c:	9908      	ldr	r1, [sp, #32]
 800124e:	6808      	ldr	r0, [r1, #0]
 8001250:	f020 4040 	bic.w	r0, r0, #3221225472	; 0xc0000000
 8001254:	ea40 7082 	orr.w	r0, r0, r2, lsl #30
 8001258:	6008      	str	r0, [r1, #0]
 800125a:	9808      	ldr	r0, [sp, #32]
 800125c:	b00c      	add	sp, #48	; 0x30
 800125e:	bd80      	pop	{r7, pc}

08001260 <_ZN4mem310checkpoint14initialization28_$u7b$$u7b$closure$u7d$$u7d$17hba5b856812f4216bE>:
 8001260:	b580      	push	{r7, lr}
 8001262:	466f      	mov	r7, sp
 8001264:	b08c      	sub	sp, #48	; 0x30
 8001266:	9002      	str	r0, [sp, #8]
 8001268:	9103      	str	r1, [sp, #12]
 800126a:	9105      	str	r1, [sp, #20]
 800126c:	9104      	str	r1, [sp, #16]
 800126e:	9904      	ldr	r1, [sp, #16]
 8001270:	9100      	str	r1, [sp, #0]
 8001272:	9107      	str	r1, [sp, #28]
 8001274:	2002      	movs	r0, #2
 8001276:	f807 0c15 	strb.w	r0, [r7, #-21]
 800127a:	f817 0c15 	ldrb.w	r0, [r7, #-21]
 800127e:	9108      	str	r1, [sp, #32]
 8001280:	f807 0c09 	strb.w	r0, [r7, #-9]
 8001284:	f648 7124 	movw	r1, #36644	; 0x8f24
 8001288:	f6c0 0100 	movt	r1, #2048	; 0x800
 800128c:	f001 fdf2 	bl	8002e74 <_ZN50_$LT$T$u20$as$u20$core..convert..Into$LT$U$GT$$GT$4into17h09173358117f67deE>
 8001290:	4602      	mov	r2, r0
 8001292:	9800      	ldr	r0, [sp, #0]
 8001294:	900a      	str	r0, [sp, #40]	; 0x28
 8001296:	f807 2c01 	strb.w	r2, [r7, #-1]
 800129a:	990a      	ldr	r1, [sp, #40]	; 0x28
 800129c:	6808      	ldr	r0, [r1, #0]
 800129e:	f362 0001 	bfi	r0, r2, #0, #2
 80012a2:	6008      	str	r0, [r1, #0]
 80012a4:	980a      	ldr	r0, [sp, #40]	; 0x28
 80012a6:	b00c      	add	sp, #48	; 0x30
 80012a8:	bd80      	pop	{r7, pc}

080012aa <_ZN4mem310checkpoint14initialization28_$u7b$$u7b$closure$u7d$$u7d$17h30a26d6ff20f47e4E>:
 80012aa:	b580      	push	{r7, lr}
 80012ac:	466f      	mov	r7, sp
 80012ae:	b08c      	sub	sp, #48	; 0x30
 80012b0:	9002      	str	r0, [sp, #8]
 80012b2:	9103      	str	r1, [sp, #12]
 80012b4:	9105      	str	r1, [sp, #20]
 80012b6:	9104      	str	r1, [sp, #16]
 80012b8:	9904      	ldr	r1, [sp, #16]
 80012ba:	9100      	str	r1, [sp, #0]
 80012bc:	9107      	str	r1, [sp, #28]
 80012be:	200c      	movs	r0, #12
 80012c0:	f807 0c15 	strb.w	r0, [r7, #-21]
 80012c4:	f817 0c15 	ldrb.w	r0, [r7, #-21]
 80012c8:	9108      	str	r1, [sp, #32]
 80012ca:	f807 0c09 	strb.w	r0, [r7, #-9]
 80012ce:	f648 6148 	movw	r1, #36424	; 0x8e48
 80012d2:	f6c0 0100 	movt	r1, #2048	; 0x800
 80012d6:	f001 fd0a 	bl	8002cee <_ZN50_$LT$T$u20$as$u20$core..convert..Into$LT$U$GT$$GT$4into17he9c5b7d8674cbccbE>
 80012da:	4602      	mov	r2, r0
 80012dc:	9800      	ldr	r0, [sp, #0]
 80012de:	900a      	str	r0, [sp, #40]	; 0x28
 80012e0:	f807 2c01 	strb.w	r2, [r7, #-1]
 80012e4:	990a      	ldr	r1, [sp, #40]	; 0x28
 80012e6:	6808      	ldr	r0, [r1, #0]
 80012e8:	f362 0003 	bfi	r0, r2, #0, #4
 80012ec:	6008      	str	r0, [r1, #0]
 80012ee:	980a      	ldr	r0, [sp, #40]	; 0x28
 80012f0:	b00c      	add	sp, #48	; 0x30
 80012f2:	bd80      	pop	{r7, pc}

080012f4 <_ZN4mem310checkpoint14initialization28_$u7b$$u7b$closure$u7d$$u7d$17h6539634417f393b8E>:
 80012f4:	b580      	push	{r7, lr}
 80012f6:	466f      	mov	r7, sp
 80012f8:	b08c      	sub	sp, #48	; 0x30
 80012fa:	9002      	str	r0, [sp, #8]
 80012fc:	9103      	str	r1, [sp, #12]
 80012fe:	910b      	str	r1, [sp, #44]	; 0x2c
 8001300:	910a      	str	r1, [sp, #40]	; 0x28
 8001302:	990a      	ldr	r1, [sp, #40]	; 0x28
 8001304:	9100      	str	r1, [sp, #0]
 8001306:	9105      	str	r1, [sp, #20]
 8001308:	2003      	movs	r0, #3
 800130a:	f807 0c1d 	strb.w	r0, [r7, #-29]
 800130e:	f817 0c1d 	ldrb.w	r0, [r7, #-29]
 8001312:	9106      	str	r1, [sp, #24]
 8001314:	f807 0c11 	strb.w	r0, [r7, #-17]
 8001318:	f249 0180 	movw	r1, #36992	; 0x9080
 800131c:	f6c0 0100 	movt	r1, #2048	; 0x800
 8001320:	f005 f874 	bl	800640c <_ZN50_$LT$T$u20$as$u20$core..convert..Into$LT$U$GT$$GT$4into17hd0fa2a7d0802ab5aE>
 8001324:	4602      	mov	r2, r0
 8001326:	9800      	ldr	r0, [sp, #0]
 8001328:	9008      	str	r0, [sp, #32]
 800132a:	f807 2c09 	strb.w	r2, [r7, #-9]
 800132e:	9908      	ldr	r1, [sp, #32]
 8001330:	6808      	ldr	r0, [r1, #0]
 8001332:	f362 0001 	bfi	r0, r2, #0, #2
 8001336:	6008      	str	r0, [r1, #0]
 8001338:	9808      	ldr	r0, [sp, #32]
 800133a:	b00c      	add	sp, #48	; 0x30
 800133c:	bd80      	pop	{r7, pc}

0800133e <_ZN4mem310checkpoint14initialization28_$u7b$$u7b$closure$u7d$$u7d$17h257246d2b6bf9995E>:
 800133e:	b580      	push	{r7, lr}
 8001340:	466f      	mov	r7, sp
 8001342:	b08c      	sub	sp, #48	; 0x30
 8001344:	9002      	str	r0, [sp, #8]
 8001346:	9103      	str	r1, [sp, #12]
 8001348:	9105      	str	r1, [sp, #20]
 800134a:	9104      	str	r1, [sp, #16]
 800134c:	9904      	ldr	r1, [sp, #16]
 800134e:	9100      	str	r1, [sp, #0]
 8001350:	9107      	str	r1, [sp, #28]
 8001352:	2002      	movs	r0, #2
 8001354:	f807 0c15 	strb.w	r0, [r7, #-21]
 8001358:	f817 0c15 	ldrb.w	r0, [r7, #-21]
 800135c:	9108      	str	r1, [sp, #32]
 800135e:	f807 0c09 	strb.w	r0, [r7, #-9]
 8001362:	f648 7134 	movw	r1, #36660	; 0x8f34
 8001366:	f6c0 0100 	movt	r1, #2048	; 0x800
 800136a:	f001 fd83 	bl	8002e74 <_ZN50_$LT$T$u20$as$u20$core..convert..Into$LT$U$GT$$GT$4into17h09173358117f67deE>
 800136e:	4602      	mov	r2, r0
 8001370:	9800      	ldr	r0, [sp, #0]
 8001372:	900a      	str	r0, [sp, #40]	; 0x28
 8001374:	f807 2c01 	strb.w	r2, [r7, #-1]
 8001378:	990a      	ldr	r1, [sp, #40]	; 0x28
 800137a:	6808      	ldr	r0, [r1, #0]
 800137c:	f020 000c 	bic.w	r0, r0, #12
 8001380:	f002 0203 	and.w	r2, r2, #3
 8001384:	ea40 0082 	orr.w	r0, r0, r2, lsl #2
 8001388:	6008      	str	r0, [r1, #0]
 800138a:	980a      	ldr	r0, [sp, #40]	; 0x28
 800138c:	b00c      	add	sp, #48	; 0x30
 800138e:	bd80      	pop	{r7, pc}

08001390 <_ZN4mem310checkpoint14initialization28_$u7b$$u7b$closure$u7d$$u7d$17h153b8323b5185f8aE>:
 8001390:	b580      	push	{r7, lr}
 8001392:	466f      	mov	r7, sp
 8001394:	b08c      	sub	sp, #48	; 0x30
 8001396:	9002      	str	r0, [sp, #8]
 8001398:	9103      	str	r1, [sp, #12]
 800139a:	9105      	str	r1, [sp, #20]
 800139c:	9104      	str	r1, [sp, #16]
 800139e:	9904      	ldr	r1, [sp, #16]
 80013a0:	9100      	str	r1, [sp, #0]
 80013a2:	9107      	str	r1, [sp, #28]
 80013a4:	200c      	movs	r0, #12
 80013a6:	f807 0c15 	strb.w	r0, [r7, #-21]
 80013aa:	f817 0c15 	ldrb.w	r0, [r7, #-21]
 80013ae:	9108      	str	r1, [sp, #32]
 80013b0:	f807 0c09 	strb.w	r0, [r7, #-9]
 80013b4:	f648 6158 	movw	r1, #36440	; 0x8e58
 80013b8:	f6c0 0100 	movt	r1, #2048	; 0x800
 80013bc:	f001 fc97 	bl	8002cee <_ZN50_$LT$T$u20$as$u20$core..convert..Into$LT$U$GT$$GT$4into17he9c5b7d8674cbccbE>
 80013c0:	4602      	mov	r2, r0
 80013c2:	9800      	ldr	r0, [sp, #0]
 80013c4:	900a      	str	r0, [sp, #40]	; 0x28
 80013c6:	f807 2c01 	strb.w	r2, [r7, #-1]
 80013ca:	990a      	ldr	r1, [sp, #40]	; 0x28
 80013cc:	6808      	ldr	r0, [r1, #0]
 80013ce:	f020 00f0 	bic.w	r0, r0, #240	; 0xf0
 80013d2:	f002 020f 	and.w	r2, r2, #15
 80013d6:	ea40 1002 	orr.w	r0, r0, r2, lsl #4
 80013da:	6008      	str	r0, [r1, #0]
 80013dc:	980a      	ldr	r0, [sp, #40]	; 0x28
 80013de:	b00c      	add	sp, #48	; 0x30
 80013e0:	bd80      	pop	{r7, pc}

080013e2 <_ZN4mem310checkpoint14initialization28_$u7b$$u7b$closure$u7d$$u7d$17h95392e744e248f8bE>:
 80013e2:	b580      	push	{r7, lr}
 80013e4:	466f      	mov	r7, sp
 80013e6:	b08c      	sub	sp, #48	; 0x30
 80013e8:	9002      	str	r0, [sp, #8]
 80013ea:	9103      	str	r1, [sp, #12]
 80013ec:	910b      	str	r1, [sp, #44]	; 0x2c
 80013ee:	910a      	str	r1, [sp, #40]	; 0x28
 80013f0:	990a      	ldr	r1, [sp, #40]	; 0x28
 80013f2:	9100      	str	r1, [sp, #0]
 80013f4:	9105      	str	r1, [sp, #20]
 80013f6:	2003      	movs	r0, #3
 80013f8:	f807 0c1d 	strb.w	r0, [r7, #-29]
 80013fc:	f817 0c1d 	ldrb.w	r0, [r7, #-29]
 8001400:	9106      	str	r1, [sp, #24]
 8001402:	f807 0c11 	strb.w	r0, [r7, #-17]
 8001406:	f249 0190 	movw	r1, #37008	; 0x9090
 800140a:	f6c0 0100 	movt	r1, #2048	; 0x800
 800140e:	f004 fffd 	bl	800640c <_ZN50_$LT$T$u20$as$u20$core..convert..Into$LT$U$GT$$GT$4into17hd0fa2a7d0802ab5aE>
 8001412:	4602      	mov	r2, r0
 8001414:	9800      	ldr	r0, [sp, #0]
 8001416:	9008      	str	r0, [sp, #32]
 8001418:	f807 2c09 	strb.w	r2, [r7, #-9]
 800141c:	9908      	ldr	r1, [sp, #32]
 800141e:	6808      	ldr	r0, [r1, #0]
 8001420:	f020 000c 	bic.w	r0, r0, #12
 8001424:	f002 0203 	and.w	r2, r2, #3
 8001428:	ea40 0082 	orr.w	r0, r0, r2, lsl #2
 800142c:	6008      	str	r0, [r1, #0]
 800142e:	9808      	ldr	r0, [sp, #32]
 8001430:	b00c      	add	sp, #48	; 0x30
 8001432:	bd80      	pop	{r7, pc}

08001434 <_ZN4mem310checkpoint14initialization28_$u7b$$u7b$closure$u7d$$u7d$17hc35dac7480372d2dE>:
 8001434:	b580      	push	{r7, lr}
 8001436:	466f      	mov	r7, sp
 8001438:	b08c      	sub	sp, #48	; 0x30
 800143a:	9002      	str	r0, [sp, #8]
 800143c:	9103      	str	r1, [sp, #12]
 800143e:	9105      	str	r1, [sp, #20]
 8001440:	9104      	str	r1, [sp, #16]
 8001442:	9904      	ldr	r1, [sp, #16]
 8001444:	9100      	str	r1, [sp, #0]
 8001446:	9107      	str	r1, [sp, #28]
 8001448:	2002      	movs	r0, #2
 800144a:	f807 0c15 	strb.w	r0, [r7, #-21]
 800144e:	f817 0c15 	ldrb.w	r0, [r7, #-21]
 8001452:	9108      	str	r1, [sp, #32]
 8001454:	f807 0c09 	strb.w	r0, [r7, #-9]
 8001458:	f648 7144 	movw	r1, #36676	; 0x8f44
 800145c:	f6c0 0100 	movt	r1, #2048	; 0x800
 8001460:	f001 fd08 	bl	8002e74 <_ZN50_$LT$T$u20$as$u20$core..convert..Into$LT$U$GT$$GT$4into17h09173358117f67deE>
 8001464:	4602      	mov	r2, r0
 8001466:	9800      	ldr	r0, [sp, #0]
 8001468:	900a      	str	r0, [sp, #40]	; 0x28
 800146a:	f807 2c01 	strb.w	r2, [r7, #-1]
 800146e:	990a      	ldr	r1, [sp, #40]	; 0x28
 8001470:	6808      	ldr	r0, [r1, #0]
 8001472:	f020 0030 	bic.w	r0, r0, #48	; 0x30
 8001476:	f002 0203 	and.w	r2, r2, #3
 800147a:	ea40 1002 	orr.w	r0, r0, r2, lsl #4
 800147e:	6008      	str	r0, [r1, #0]
 8001480:	980a      	ldr	r0, [sp, #40]	; 0x28
 8001482:	b00c      	add	sp, #48	; 0x30
 8001484:	bd80      	pop	{r7, pc}

08001486 <_ZN4mem310checkpoint14initialization28_$u7b$$u7b$closure$u7d$$u7d$17h1b850279a3c7e4a5E>:
 8001486:	b580      	push	{r7, lr}
 8001488:	466f      	mov	r7, sp
 800148a:	b08c      	sub	sp, #48	; 0x30
 800148c:	9002      	str	r0, [sp, #8]
 800148e:	9103      	str	r1, [sp, #12]
 8001490:	9105      	str	r1, [sp, #20]
 8001492:	9104      	str	r1, [sp, #16]
 8001494:	9904      	ldr	r1, [sp, #16]
 8001496:	9100      	str	r1, [sp, #0]
 8001498:	9107      	str	r1, [sp, #28]
 800149a:	200c      	movs	r0, #12
 800149c:	f807 0c15 	strb.w	r0, [r7, #-21]
 80014a0:	f817 0c15 	ldrb.w	r0, [r7, #-21]
 80014a4:	9108      	str	r1, [sp, #32]
 80014a6:	f807 0c09 	strb.w	r0, [r7, #-9]
 80014aa:	f648 6168 	movw	r1, #36456	; 0x8e68
 80014ae:	f6c0 0100 	movt	r1, #2048	; 0x800
 80014b2:	f001 fc1c 	bl	8002cee <_ZN50_$LT$T$u20$as$u20$core..convert..Into$LT$U$GT$$GT$4into17he9c5b7d8674cbccbE>
 80014b6:	4602      	mov	r2, r0
 80014b8:	9800      	ldr	r0, [sp, #0]
 80014ba:	900a      	str	r0, [sp, #40]	; 0x28
 80014bc:	f807 2c01 	strb.w	r2, [r7, #-1]
 80014c0:	990a      	ldr	r1, [sp, #40]	; 0x28
 80014c2:	6808      	ldr	r0, [r1, #0]
 80014c4:	f420 6070 	bic.w	r0, r0, #3840	; 0xf00
 80014c8:	f002 020f 	and.w	r2, r2, #15
 80014cc:	ea40 2002 	orr.w	r0, r0, r2, lsl #8
 80014d0:	6008      	str	r0, [r1, #0]
 80014d2:	980a      	ldr	r0, [sp, #40]	; 0x28
 80014d4:	b00c      	add	sp, #48	; 0x30
 80014d6:	bd80      	pop	{r7, pc}

080014d8 <_ZN4mem310checkpoint14initialization28_$u7b$$u7b$closure$u7d$$u7d$17h37d1c5dfd129c630E>:
 80014d8:	b580      	push	{r7, lr}
 80014da:	466f      	mov	r7, sp
 80014dc:	b08c      	sub	sp, #48	; 0x30
 80014de:	9002      	str	r0, [sp, #8]
 80014e0:	9103      	str	r1, [sp, #12]
 80014e2:	910b      	str	r1, [sp, #44]	; 0x2c
 80014e4:	910a      	str	r1, [sp, #40]	; 0x28
 80014e6:	990a      	ldr	r1, [sp, #40]	; 0x28
 80014e8:	9100      	str	r1, [sp, #0]
 80014ea:	9105      	str	r1, [sp, #20]
 80014ec:	2003      	movs	r0, #3
 80014ee:	f807 0c1d 	strb.w	r0, [r7, #-29]
 80014f2:	f817 0c1d 	ldrb.w	r0, [r7, #-29]
 80014f6:	9106      	str	r1, [sp, #24]
 80014f8:	f807 0c11 	strb.w	r0, [r7, #-17]
 80014fc:	f249 01a0 	movw	r1, #37024	; 0x90a0
 8001500:	f6c0 0100 	movt	r1, #2048	; 0x800
 8001504:	f004 ff82 	bl	800640c <_ZN50_$LT$T$u20$as$u20$core..convert..Into$LT$U$GT$$GT$4into17hd0fa2a7d0802ab5aE>
 8001508:	4602      	mov	r2, r0
 800150a:	9800      	ldr	r0, [sp, #0]
 800150c:	9008      	str	r0, [sp, #32]
 800150e:	f807 2c09 	strb.w	r2, [r7, #-9]
 8001512:	9908      	ldr	r1, [sp, #32]
 8001514:	6808      	ldr	r0, [r1, #0]
 8001516:	f020 0030 	bic.w	r0, r0, #48	; 0x30
 800151a:	f002 0203 	and.w	r2, r2, #3
 800151e:	ea40 1002 	orr.w	r0, r0, r2, lsl #4
 8001522:	6008      	str	r0, [r1, #0]
 8001524:	9808      	ldr	r0, [sp, #32]
 8001526:	b00c      	add	sp, #48	; 0x30
 8001528:	bd80      	pop	{r7, pc}

0800152a <_ZN4mem310checkpoint14initialization28_$u7b$$u7b$closure$u7d$$u7d$17h16b933f1ef258bb1E>:
 800152a:	b580      	push	{r7, lr}
 800152c:	466f      	mov	r7, sp
 800152e:	b08c      	sub	sp, #48	; 0x30
 8001530:	9002      	str	r0, [sp, #8]
 8001532:	9103      	str	r1, [sp, #12]
 8001534:	9105      	str	r1, [sp, #20]
 8001536:	9104      	str	r1, [sp, #16]
 8001538:	9904      	ldr	r1, [sp, #16]
 800153a:	9100      	str	r1, [sp, #0]
 800153c:	9107      	str	r1, [sp, #28]
 800153e:	2002      	movs	r0, #2
 8001540:	f807 0c15 	strb.w	r0, [r7, #-21]
 8001544:	f817 0c15 	ldrb.w	r0, [r7, #-21]
 8001548:	9108      	str	r1, [sp, #32]
 800154a:	f807 0c09 	strb.w	r0, [r7, #-9]
 800154e:	f648 7154 	movw	r1, #36692	; 0x8f54
 8001552:	f6c0 0100 	movt	r1, #2048	; 0x800
 8001556:	f001 fc8d 	bl	8002e74 <_ZN50_$LT$T$u20$as$u20$core..convert..Into$LT$U$GT$$GT$4into17h09173358117f67deE>
 800155a:	4602      	mov	r2, r0
 800155c:	9800      	ldr	r0, [sp, #0]
 800155e:	900a      	str	r0, [sp, #40]	; 0x28
 8001560:	f807 2c01 	strb.w	r2, [r7, #-1]
 8001564:	990a      	ldr	r1, [sp, #40]	; 0x28
 8001566:	6808      	ldr	r0, [r1, #0]
 8001568:	f020 00c0 	bic.w	r0, r0, #192	; 0xc0
 800156c:	f002 0203 	and.w	r2, r2, #3
 8001570:	ea40 1082 	orr.w	r0, r0, r2, lsl #6
 8001574:	6008      	str	r0, [r1, #0]
 8001576:	980a      	ldr	r0, [sp, #40]	; 0x28
 8001578:	b00c      	add	sp, #48	; 0x30
 800157a:	bd80      	pop	{r7, pc}

0800157c <_ZN4mem310checkpoint14initialization28_$u7b$$u7b$closure$u7d$$u7d$17hca84cfdcf0f5bf20E>:
 800157c:	b580      	push	{r7, lr}
 800157e:	466f      	mov	r7, sp
 8001580:	b08c      	sub	sp, #48	; 0x30
 8001582:	9002      	str	r0, [sp, #8]
 8001584:	9103      	str	r1, [sp, #12]
 8001586:	9105      	str	r1, [sp, #20]
 8001588:	9104      	str	r1, [sp, #16]
 800158a:	9904      	ldr	r1, [sp, #16]
 800158c:	9100      	str	r1, [sp, #0]
 800158e:	9107      	str	r1, [sp, #28]
 8001590:	200c      	movs	r0, #12
 8001592:	f807 0c15 	strb.w	r0, [r7, #-21]
 8001596:	f817 0c15 	ldrb.w	r0, [r7, #-21]
 800159a:	9108      	str	r1, [sp, #32]
 800159c:	f807 0c09 	strb.w	r0, [r7, #-9]
 80015a0:	f648 6178 	movw	r1, #36472	; 0x8e78
 80015a4:	f6c0 0100 	movt	r1, #2048	; 0x800
 80015a8:	f001 fba1 	bl	8002cee <_ZN50_$LT$T$u20$as$u20$core..convert..Into$LT$U$GT$$GT$4into17he9c5b7d8674cbccbE>
 80015ac:	4602      	mov	r2, r0
 80015ae:	9800      	ldr	r0, [sp, #0]
 80015b0:	900a      	str	r0, [sp, #40]	; 0x28
 80015b2:	f807 2c01 	strb.w	r2, [r7, #-1]
 80015b6:	990a      	ldr	r1, [sp, #40]	; 0x28
 80015b8:	6808      	ldr	r0, [r1, #0]
 80015ba:	f420 4070 	bic.w	r0, r0, #61440	; 0xf000
 80015be:	f002 020f 	and.w	r2, r2, #15
 80015c2:	ea40 3002 	orr.w	r0, r0, r2, lsl #12
 80015c6:	6008      	str	r0, [r1, #0]
 80015c8:	980a      	ldr	r0, [sp, #40]	; 0x28
 80015ca:	b00c      	add	sp, #48	; 0x30
 80015cc:	bd80      	pop	{r7, pc}

080015ce <_ZN4mem310checkpoint14initialization28_$u7b$$u7b$closure$u7d$$u7d$17hba6dec74ce82aa1eE>:
 80015ce:	b580      	push	{r7, lr}
 80015d0:	466f      	mov	r7, sp
 80015d2:	b08c      	sub	sp, #48	; 0x30
 80015d4:	9002      	str	r0, [sp, #8]
 80015d6:	9103      	str	r1, [sp, #12]
 80015d8:	910b      	str	r1, [sp, #44]	; 0x2c
 80015da:	910a      	str	r1, [sp, #40]	; 0x28
 80015dc:	990a      	ldr	r1, [sp, #40]	; 0x28
 80015de:	9100      	str	r1, [sp, #0]
 80015e0:	9105      	str	r1, [sp, #20]
 80015e2:	2003      	movs	r0, #3
 80015e4:	f807 0c1d 	strb.w	r0, [r7, #-29]
 80015e8:	f817 0c1d 	ldrb.w	r0, [r7, #-29]
 80015ec:	9106      	str	r1, [sp, #24]
 80015ee:	f807 0c11 	strb.w	r0, [r7, #-17]
 80015f2:	f249 01b0 	movw	r1, #37040	; 0x90b0
 80015f6:	f6c0 0100 	movt	r1, #2048	; 0x800
 80015fa:	f004 ff07 	bl	800640c <_ZN50_$LT$T$u20$as$u20$core..convert..Into$LT$U$GT$$GT$4into17hd0fa2a7d0802ab5aE>
 80015fe:	4602      	mov	r2, r0
 8001600:	9800      	ldr	r0, [sp, #0]
 8001602:	9008      	str	r0, [sp, #32]
 8001604:	f807 2c09 	strb.w	r2, [r7, #-9]
 8001608:	9908      	ldr	r1, [sp, #32]
 800160a:	6808      	ldr	r0, [r1, #0]
 800160c:	f020 00c0 	bic.w	r0, r0, #192	; 0xc0
 8001610:	f002 0203 	and.w	r2, r2, #3
 8001614:	ea40 1082 	orr.w	r0, r0, r2, lsl #6
 8001618:	6008      	str	r0, [r1, #0]
 800161a:	9808      	ldr	r0, [sp, #32]
 800161c:	b00c      	add	sp, #48	; 0x30
 800161e:	bd80      	pop	{r7, pc}

08001620 <_ZN4mem310checkpoint14initialization28_$u7b$$u7b$closure$u7d$$u7d$17h6f79479acd81efa9E>:
 8001620:	b580      	push	{r7, lr}
 8001622:	466f      	mov	r7, sp
 8001624:	b08c      	sub	sp, #48	; 0x30
 8001626:	9002      	str	r0, [sp, #8]
 8001628:	9103      	str	r1, [sp, #12]
 800162a:	9105      	str	r1, [sp, #20]
 800162c:	9104      	str	r1, [sp, #16]
 800162e:	9904      	ldr	r1, [sp, #16]
 8001630:	9100      	str	r1, [sp, #0]
 8001632:	9107      	str	r1, [sp, #28]
 8001634:	2002      	movs	r0, #2
 8001636:	f807 0c15 	strb.w	r0, [r7, #-21]
 800163a:	f817 0c15 	ldrb.w	r0, [r7, #-21]
 800163e:	9108      	str	r1, [sp, #32]
 8001640:	f807 0c09 	strb.w	r0, [r7, #-9]
 8001644:	f648 7164 	movw	r1, #36708	; 0x8f64
 8001648:	f6c0 0100 	movt	r1, #2048	; 0x800
 800164c:	f001 fc12 	bl	8002e74 <_ZN50_$LT$T$u20$as$u20$core..convert..Into$LT$U$GT$$GT$4into17h09173358117f67deE>
 8001650:	4602      	mov	r2, r0
 8001652:	9800      	ldr	r0, [sp, #0]
 8001654:	900a      	str	r0, [sp, #40]	; 0x28
 8001656:	f807 2c01 	strb.w	r2, [r7, #-1]
 800165a:	990a      	ldr	r1, [sp, #40]	; 0x28
 800165c:	6808      	ldr	r0, [r1, #0]
 800165e:	f420 7040 	bic.w	r0, r0, #768	; 0x300
 8001662:	f002 0203 	and.w	r2, r2, #3
 8001666:	ea40 2002 	orr.w	r0, r0, r2, lsl #8
 800166a:	6008      	str	r0, [r1, #0]
 800166c:	980a      	ldr	r0, [sp, #40]	; 0x28
 800166e:	b00c      	add	sp, #48	; 0x30
 8001670:	bd80      	pop	{r7, pc}

08001672 <_ZN4mem310checkpoint14initialization28_$u7b$$u7b$closure$u7d$$u7d$17h25fb61d7d76d10f9E>:
 8001672:	b580      	push	{r7, lr}
 8001674:	466f      	mov	r7, sp
 8001676:	b08c      	sub	sp, #48	; 0x30
 8001678:	9002      	str	r0, [sp, #8]
 800167a:	9103      	str	r1, [sp, #12]
 800167c:	9105      	str	r1, [sp, #20]
 800167e:	9104      	str	r1, [sp, #16]
 8001680:	9904      	ldr	r1, [sp, #16]
 8001682:	9100      	str	r1, [sp, #0]
 8001684:	9107      	str	r1, [sp, #28]
 8001686:	200c      	movs	r0, #12
 8001688:	f807 0c15 	strb.w	r0, [r7, #-21]
 800168c:	f817 0c15 	ldrb.w	r0, [r7, #-21]
 8001690:	9108      	str	r1, [sp, #32]
 8001692:	f807 0c09 	strb.w	r0, [r7, #-9]
 8001696:	f648 6188 	movw	r1, #36488	; 0x8e88
 800169a:	f6c0 0100 	movt	r1, #2048	; 0x800
 800169e:	f001 fb26 	bl	8002cee <_ZN50_$LT$T$u20$as$u20$core..convert..Into$LT$U$GT$$GT$4into17he9c5b7d8674cbccbE>
 80016a2:	4602      	mov	r2, r0
 80016a4:	9800      	ldr	r0, [sp, #0]
 80016a6:	900a      	str	r0, [sp, #40]	; 0x28
 80016a8:	f807 2c01 	strb.w	r2, [r7, #-1]
 80016ac:	990a      	ldr	r1, [sp, #40]	; 0x28
 80016ae:	6808      	ldr	r0, [r1, #0]
 80016b0:	f420 2070 	bic.w	r0, r0, #983040	; 0xf0000
 80016b4:	f002 020f 	and.w	r2, r2, #15
 80016b8:	ea40 4002 	orr.w	r0, r0, r2, lsl #16
 80016bc:	6008      	str	r0, [r1, #0]
 80016be:	980a      	ldr	r0, [sp, #40]	; 0x28
 80016c0:	b00c      	add	sp, #48	; 0x30
 80016c2:	bd80      	pop	{r7, pc}

080016c4 <_ZN4mem310checkpoint14initialization28_$u7b$$u7b$closure$u7d$$u7d$17hfbe1dfc078396314E>:
 80016c4:	b580      	push	{r7, lr}
 80016c6:	466f      	mov	r7, sp
 80016c8:	b08c      	sub	sp, #48	; 0x30
 80016ca:	9002      	str	r0, [sp, #8]
 80016cc:	9103      	str	r1, [sp, #12]
 80016ce:	910b      	str	r1, [sp, #44]	; 0x2c
 80016d0:	910a      	str	r1, [sp, #40]	; 0x28
 80016d2:	990a      	ldr	r1, [sp, #40]	; 0x28
 80016d4:	9100      	str	r1, [sp, #0]
 80016d6:	9105      	str	r1, [sp, #20]
 80016d8:	2003      	movs	r0, #3
 80016da:	f807 0c1d 	strb.w	r0, [r7, #-29]
 80016de:	f817 0c1d 	ldrb.w	r0, [r7, #-29]
 80016e2:	9106      	str	r1, [sp, #24]
 80016e4:	f807 0c11 	strb.w	r0, [r7, #-17]
 80016e8:	f249 01c0 	movw	r1, #37056	; 0x90c0
 80016ec:	f6c0 0100 	movt	r1, #2048	; 0x800
 80016f0:	f004 fe8c 	bl	800640c <_ZN50_$LT$T$u20$as$u20$core..convert..Into$LT$U$GT$$GT$4into17hd0fa2a7d0802ab5aE>
 80016f4:	4602      	mov	r2, r0
 80016f6:	9800      	ldr	r0, [sp, #0]
 80016f8:	9008      	str	r0, [sp, #32]
 80016fa:	f807 2c09 	strb.w	r2, [r7, #-9]
 80016fe:	9908      	ldr	r1, [sp, #32]
 8001700:	6808      	ldr	r0, [r1, #0]
 8001702:	f420 7040 	bic.w	r0, r0, #768	; 0x300
 8001706:	f002 0203 	and.w	r2, r2, #3
 800170a:	ea40 2002 	orr.w	r0, r0, r2, lsl #8
 800170e:	6008      	str	r0, [r1, #0]
 8001710:	9808      	ldr	r0, [sp, #32]
 8001712:	b00c      	add	sp, #48	; 0x30
 8001714:	bd80      	pop	{r7, pc}

08001716 <_ZN4mem310checkpoint14initialization28_$u7b$$u7b$closure$u7d$$u7d$17h21f518cba86d7f37E>:
 8001716:	b580      	push	{r7, lr}
 8001718:	466f      	mov	r7, sp
 800171a:	b08c      	sub	sp, #48	; 0x30
 800171c:	9002      	str	r0, [sp, #8]
 800171e:	9103      	str	r1, [sp, #12]
 8001720:	9105      	str	r1, [sp, #20]
 8001722:	9104      	str	r1, [sp, #16]
 8001724:	9904      	ldr	r1, [sp, #16]
 8001726:	9100      	str	r1, [sp, #0]
 8001728:	9107      	str	r1, [sp, #28]
 800172a:	2002      	movs	r0, #2
 800172c:	f807 0c15 	strb.w	r0, [r7, #-21]
 8001730:	f817 0c15 	ldrb.w	r0, [r7, #-21]
 8001734:	9108      	str	r1, [sp, #32]
 8001736:	f807 0c09 	strb.w	r0, [r7, #-9]
 800173a:	f648 7174 	movw	r1, #36724	; 0x8f74
 800173e:	f6c0 0100 	movt	r1, #2048	; 0x800
 8001742:	f001 fb97 	bl	8002e74 <_ZN50_$LT$T$u20$as$u20$core..convert..Into$LT$U$GT$$GT$4into17h09173358117f67deE>
 8001746:	4602      	mov	r2, r0
 8001748:	9800      	ldr	r0, [sp, #0]
 800174a:	900a      	str	r0, [sp, #40]	; 0x28
 800174c:	f807 2c01 	strb.w	r2, [r7, #-1]
 8001750:	990a      	ldr	r1, [sp, #40]	; 0x28
 8001752:	6808      	ldr	r0, [r1, #0]
 8001754:	f420 6040 	bic.w	r0, r0, #3072	; 0xc00
 8001758:	f002 0203 	and.w	r2, r2, #3
 800175c:	ea40 2082 	orr.w	r0, r0, r2, lsl #10
 8001760:	6008      	str	r0, [r1, #0]
 8001762:	980a      	ldr	r0, [sp, #40]	; 0x28
 8001764:	b00c      	add	sp, #48	; 0x30
 8001766:	bd80      	pop	{r7, pc}

08001768 <_ZN4mem310checkpoint14initialization28_$u7b$$u7b$closure$u7d$$u7d$17h096011064112a9faE>:
 8001768:	b580      	push	{r7, lr}
 800176a:	466f      	mov	r7, sp
 800176c:	b08c      	sub	sp, #48	; 0x30
 800176e:	9002      	str	r0, [sp, #8]
 8001770:	9103      	str	r1, [sp, #12]
 8001772:	9105      	str	r1, [sp, #20]
 8001774:	9104      	str	r1, [sp, #16]
 8001776:	9904      	ldr	r1, [sp, #16]
 8001778:	9100      	str	r1, [sp, #0]
 800177a:	9107      	str	r1, [sp, #28]
 800177c:	200c      	movs	r0, #12
 800177e:	f807 0c15 	strb.w	r0, [r7, #-21]
 8001782:	f817 0c15 	ldrb.w	r0, [r7, #-21]
 8001786:	9108      	str	r1, [sp, #32]
 8001788:	f807 0c09 	strb.w	r0, [r7, #-9]
 800178c:	f648 6198 	movw	r1, #36504	; 0x8e98
 8001790:	f6c0 0100 	movt	r1, #2048	; 0x800
 8001794:	f001 faab 	bl	8002cee <_ZN50_$LT$T$u20$as$u20$core..convert..Into$LT$U$GT$$GT$4into17he9c5b7d8674cbccbE>
 8001798:	4602      	mov	r2, r0
 800179a:	9800      	ldr	r0, [sp, #0]
 800179c:	900a      	str	r0, [sp, #40]	; 0x28
 800179e:	f807 2c01 	strb.w	r2, [r7, #-1]
 80017a2:	990a      	ldr	r1, [sp, #40]	; 0x28
 80017a4:	6808      	ldr	r0, [r1, #0]
 80017a6:	f420 0070 	bic.w	r0, r0, #15728640	; 0xf00000
 80017aa:	f002 020f 	and.w	r2, r2, #15
 80017ae:	ea40 5002 	orr.w	r0, r0, r2, lsl #20
 80017b2:	6008      	str	r0, [r1, #0]
 80017b4:	980a      	ldr	r0, [sp, #40]	; 0x28
 80017b6:	b00c      	add	sp, #48	; 0x30
 80017b8:	bd80      	pop	{r7, pc}

080017ba <_ZN4mem310checkpoint14initialization28_$u7b$$u7b$closure$u7d$$u7d$17hf28812279b2c2a00E>:
 80017ba:	b580      	push	{r7, lr}
 80017bc:	466f      	mov	r7, sp
 80017be:	b08c      	sub	sp, #48	; 0x30
 80017c0:	9002      	str	r0, [sp, #8]
 80017c2:	9103      	str	r1, [sp, #12]
 80017c4:	910b      	str	r1, [sp, #44]	; 0x2c
 80017c6:	910a      	str	r1, [sp, #40]	; 0x28
 80017c8:	990a      	ldr	r1, [sp, #40]	; 0x28
 80017ca:	9100      	str	r1, [sp, #0]
 80017cc:	9105      	str	r1, [sp, #20]
 80017ce:	2003      	movs	r0, #3
 80017d0:	f807 0c1d 	strb.w	r0, [r7, #-29]
 80017d4:	f817 0c1d 	ldrb.w	r0, [r7, #-29]
 80017d8:	9106      	str	r1, [sp, #24]
 80017da:	f807 0c11 	strb.w	r0, [r7, #-17]
 80017de:	f249 01d0 	movw	r1, #37072	; 0x90d0
 80017e2:	f6c0 0100 	movt	r1, #2048	; 0x800
 80017e6:	f004 fe11 	bl	800640c <_ZN50_$LT$T$u20$as$u20$core..convert..Into$LT$U$GT$$GT$4into17hd0fa2a7d0802ab5aE>
 80017ea:	4602      	mov	r2, r0
 80017ec:	9800      	ldr	r0, [sp, #0]
 80017ee:	9008      	str	r0, [sp, #32]
 80017f0:	f807 2c09 	strb.w	r2, [r7, #-9]
 80017f4:	9908      	ldr	r1, [sp, #32]
 80017f6:	6808      	ldr	r0, [r1, #0]
 80017f8:	f420 6040 	bic.w	r0, r0, #3072	; 0xc00
 80017fc:	f002 0203 	and.w	r2, r2, #3
 8001800:	ea40 2082 	orr.w	r0, r0, r2, lsl #10
 8001804:	6008      	str	r0, [r1, #0]
 8001806:	9808      	ldr	r0, [sp, #32]
 8001808:	b00c      	add	sp, #48	; 0x30
 800180a:	bd80      	pop	{r7, pc}

0800180c <_ZN4mem310checkpoint14initialization28_$u7b$$u7b$closure$u7d$$u7d$17h81714c99b1bb50f2E>:
 800180c:	b580      	push	{r7, lr}
 800180e:	466f      	mov	r7, sp
 8001810:	b08c      	sub	sp, #48	; 0x30
 8001812:	9002      	str	r0, [sp, #8]
 8001814:	9103      	str	r1, [sp, #12]
 8001816:	9105      	str	r1, [sp, #20]
 8001818:	9104      	str	r1, [sp, #16]
 800181a:	9904      	ldr	r1, [sp, #16]
 800181c:	9100      	str	r1, [sp, #0]
 800181e:	9107      	str	r1, [sp, #28]
 8001820:	2002      	movs	r0, #2
 8001822:	f807 0c15 	strb.w	r0, [r7, #-21]
 8001826:	f817 0c15 	ldrb.w	r0, [r7, #-21]
 800182a:	9108      	str	r1, [sp, #32]
 800182c:	f807 0c09 	strb.w	r0, [r7, #-9]
 8001830:	f648 71f4 	movw	r1, #36852	; 0x8ff4
 8001834:	f6c0 0100 	movt	r1, #2048	; 0x800
 8001838:	f001 fb1c 	bl	8002e74 <_ZN50_$LT$T$u20$as$u20$core..convert..Into$LT$U$GT$$GT$4into17h09173358117f67deE>
 800183c:	4602      	mov	r2, r0
 800183e:	9800      	ldr	r0, [sp, #0]
 8001840:	900a      	str	r0, [sp, #40]	; 0x28
 8001842:	f807 2c01 	strb.w	r2, [r7, #-1]
 8001846:	990a      	ldr	r1, [sp, #40]	; 0x28
 8001848:	6808      	ldr	r0, [r1, #0]
 800184a:	f020 5040 	bic.w	r0, r0, #805306368	; 0x30000000
 800184e:	f002 0203 	and.w	r2, r2, #3
 8001852:	ea40 7002 	orr.w	r0, r0, r2, lsl #28
 8001856:	6008      	str	r0, [r1, #0]
 8001858:	980a      	ldr	r0, [sp, #40]	; 0x28
 800185a:	b00c      	add	sp, #48	; 0x30
 800185c:	bd80      	pop	{r7, pc}

0800185e <_ZN4mem310checkpoint14initialization28_$u7b$$u7b$closure$u7d$$u7d$17hfa6ad445c6718325E>:
 800185e:	b580      	push	{r7, lr}
 8001860:	466f      	mov	r7, sp
 8001862:	b08c      	sub	sp, #48	; 0x30
 8001864:	9002      	str	r0, [sp, #8]
 8001866:	9103      	str	r1, [sp, #12]
 8001868:	9105      	str	r1, [sp, #20]
 800186a:	9104      	str	r1, [sp, #16]
 800186c:	9904      	ldr	r1, [sp, #16]
 800186e:	9100      	str	r1, [sp, #0]
 8001870:	9107      	str	r1, [sp, #28]
 8001872:	200c      	movs	r0, #12
 8001874:	f807 0c15 	strb.w	r0, [r7, #-21]
 8001878:	f817 0c15 	ldrb.w	r0, [r7, #-21]
 800187c:	9108      	str	r1, [sp, #32]
 800187e:	f807 0c09 	strb.w	r0, [r7, #-9]
 8001882:	f648 51bc 	movw	r1, #36284	; 0x8dbc
 8001886:	f6c0 0100 	movt	r1, #2048	; 0x800
 800188a:	f7fe fd66 	bl	800035a <_ZN50_$LT$T$u20$as$u20$core..convert..Into$LT$U$GT$$GT$4into17h71f57894845e8bf0E>
 800188e:	4602      	mov	r2, r0
 8001890:	9800      	ldr	r0, [sp, #0]
 8001892:	900a      	str	r0, [sp, #40]	; 0x28
 8001894:	f807 2c01 	strb.w	r2, [r7, #-1]
 8001898:	990a      	ldr	r1, [sp, #40]	; 0x28
 800189a:	6808      	ldr	r0, [r1, #0]
 800189c:	f020 6070 	bic.w	r0, r0, #251658240	; 0xf000000
 80018a0:	f002 020f 	and.w	r2, r2, #15
 80018a4:	ea40 6002 	orr.w	r0, r0, r2, lsl #24
 80018a8:	6008      	str	r0, [r1, #0]
 80018aa:	980a      	ldr	r0, [sp, #40]	; 0x28
 80018ac:	b00c      	add	sp, #48	; 0x30
 80018ae:	bd80      	pop	{r7, pc}

080018b0 <_ZN4mem310checkpoint14initialization28_$u7b$$u7b$closure$u7d$$u7d$17hc126dfa96afa8153E>:
 80018b0:	b580      	push	{r7, lr}
 80018b2:	466f      	mov	r7, sp
 80018b4:	b08c      	sub	sp, #48	; 0x30
 80018b6:	9002      	str	r0, [sp, #8]
 80018b8:	9103      	str	r1, [sp, #12]
 80018ba:	910b      	str	r1, [sp, #44]	; 0x2c
 80018bc:	910a      	str	r1, [sp, #40]	; 0x28
 80018be:	990a      	ldr	r1, [sp, #40]	; 0x28
 80018c0:	9100      	str	r1, [sp, #0]
 80018c2:	9105      	str	r1, [sp, #20]
 80018c4:	2003      	movs	r0, #3
 80018c6:	f807 0c1d 	strb.w	r0, [r7, #-29]
 80018ca:	f817 0c1d 	ldrb.w	r0, [r7, #-29]
 80018ce:	9106      	str	r1, [sp, #24]
 80018d0:	f807 0c11 	strb.w	r0, [r7, #-17]
 80018d4:	f249 1150 	movw	r1, #37200	; 0x9150
 80018d8:	f6c0 0100 	movt	r1, #2048	; 0x800
 80018dc:	f004 fd96 	bl	800640c <_ZN50_$LT$T$u20$as$u20$core..convert..Into$LT$U$GT$$GT$4into17hd0fa2a7d0802ab5aE>
 80018e0:	4602      	mov	r2, r0
 80018e2:	9800      	ldr	r0, [sp, #0]
 80018e4:	9008      	str	r0, [sp, #32]
 80018e6:	f807 2c09 	strb.w	r2, [r7, #-9]
 80018ea:	9908      	ldr	r1, [sp, #32]
 80018ec:	6808      	ldr	r0, [r1, #0]
 80018ee:	f020 5040 	bic.w	r0, r0, #805306368	; 0x30000000
 80018f2:	f002 0203 	and.w	r2, r2, #3
 80018f6:	ea40 7002 	orr.w	r0, r0, r2, lsl #28
 80018fa:	6008      	str	r0, [r1, #0]
 80018fc:	9808      	ldr	r0, [sp, #32]
 80018fe:	b00c      	add	sp, #48	; 0x30
 8001900:	bd80      	pop	{r7, pc}

08001902 <_ZN4mem310checkpoint14initialization28_$u7b$$u7b$closure$u7d$$u7d$17h9aec1ceafdf26df6E>:
 8001902:	b580      	push	{r7, lr}
 8001904:	466f      	mov	r7, sp
 8001906:	b08c      	sub	sp, #48	; 0x30
 8001908:	9002      	str	r0, [sp, #8]
 800190a:	9103      	str	r1, [sp, #12]
 800190c:	9105      	str	r1, [sp, #20]
 800190e:	9104      	str	r1, [sp, #16]
 8001910:	9904      	ldr	r1, [sp, #16]
 8001912:	9100      	str	r1, [sp, #0]
 8001914:	9107      	str	r1, [sp, #28]
 8001916:	2002      	movs	r0, #2
 8001918:	f807 0c15 	strb.w	r0, [r7, #-21]
 800191c:	f817 0c15 	ldrb.w	r0, [r7, #-21]
 8001920:	9108      	str	r1, [sp, #32]
 8001922:	f807 0c09 	strb.w	r0, [r7, #-9]
 8001926:	f249 0104 	movw	r1, #36868	; 0x9004
 800192a:	f6c0 0100 	movt	r1, #2048	; 0x800
 800192e:	f001 faa1 	bl	8002e74 <_ZN50_$LT$T$u20$as$u20$core..convert..Into$LT$U$GT$$GT$4into17h09173358117f67deE>
 8001932:	4602      	mov	r2, r0
 8001934:	9800      	ldr	r0, [sp, #0]
 8001936:	900a      	str	r0, [sp, #40]	; 0x28
 8001938:	f807 2c01 	strb.w	r2, [r7, #-1]
 800193c:	990a      	ldr	r1, [sp, #40]	; 0x28
 800193e:	6808      	ldr	r0, [r1, #0]
 8001940:	f020 4040 	bic.w	r0, r0, #3221225472	; 0xc0000000
 8001944:	ea40 7082 	orr.w	r0, r0, r2, lsl #30
 8001948:	6008      	str	r0, [r1, #0]
 800194a:	980a      	ldr	r0, [sp, #40]	; 0x28
 800194c:	b00c      	add	sp, #48	; 0x30
 800194e:	bd80      	pop	{r7, pc}

08001950 <_ZN4mem310checkpoint14initialization28_$u7b$$u7b$closure$u7d$$u7d$17h9c9bcb11e17cc5f0E>:
 8001950:	b580      	push	{r7, lr}
 8001952:	466f      	mov	r7, sp
 8001954:	b08c      	sub	sp, #48	; 0x30
 8001956:	9002      	str	r0, [sp, #8]
 8001958:	9103      	str	r1, [sp, #12]
 800195a:	9105      	str	r1, [sp, #20]
 800195c:	9104      	str	r1, [sp, #16]
 800195e:	9904      	ldr	r1, [sp, #16]
 8001960:	9100      	str	r1, [sp, #0]
 8001962:	9107      	str	r1, [sp, #28]
 8001964:	200c      	movs	r0, #12
 8001966:	f807 0c15 	strb.w	r0, [r7, #-21]
 800196a:	f817 0c15 	ldrb.w	r0, [r7, #-21]
 800196e:	9108      	str	r1, [sp, #32]
 8001970:	f807 0c09 	strb.w	r0, [r7, #-9]
 8001974:	f648 51cc 	movw	r1, #36300	; 0x8dcc
 8001978:	f6c0 0100 	movt	r1, #2048	; 0x800
 800197c:	f7fe fced 	bl	800035a <_ZN50_$LT$T$u20$as$u20$core..convert..Into$LT$U$GT$$GT$4into17h71f57894845e8bf0E>
 8001980:	4602      	mov	r2, r0
 8001982:	9800      	ldr	r0, [sp, #0]
 8001984:	900a      	str	r0, [sp, #40]	; 0x28
 8001986:	f807 2c01 	strb.w	r2, [r7, #-1]
 800198a:	990a      	ldr	r1, [sp, #40]	; 0x28
 800198c:	6808      	ldr	r0, [r1, #0]
 800198e:	f020 4070 	bic.w	r0, r0, #4026531840	; 0xf0000000
 8001992:	ea40 7002 	orr.w	r0, r0, r2, lsl #28
 8001996:	6008      	str	r0, [r1, #0]
 8001998:	980a      	ldr	r0, [sp, #40]	; 0x28
 800199a:	b00c      	add	sp, #48	; 0x30
 800199c:	bd80      	pop	{r7, pc}

0800199e <_ZN4mem310checkpoint14initialization28_$u7b$$u7b$closure$u7d$$u7d$17h50e62298264fcd69E>:
 800199e:	b580      	push	{r7, lr}
 80019a0:	466f      	mov	r7, sp
 80019a2:	b08c      	sub	sp, #48	; 0x30
 80019a4:	9002      	str	r0, [sp, #8]
 80019a6:	9103      	str	r1, [sp, #12]
 80019a8:	910b      	str	r1, [sp, #44]	; 0x2c
 80019aa:	910a      	str	r1, [sp, #40]	; 0x28
 80019ac:	990a      	ldr	r1, [sp, #40]	; 0x28
 80019ae:	9100      	str	r1, [sp, #0]
 80019b0:	9105      	str	r1, [sp, #20]
 80019b2:	2003      	movs	r0, #3
 80019b4:	f807 0c1d 	strb.w	r0, [r7, #-29]
 80019b8:	f817 0c1d 	ldrb.w	r0, [r7, #-29]
 80019bc:	9106      	str	r1, [sp, #24]
 80019be:	f807 0c11 	strb.w	r0, [r7, #-17]
 80019c2:	f249 1160 	movw	r1, #37216	; 0x9160
 80019c6:	f6c0 0100 	movt	r1, #2048	; 0x800
 80019ca:	f004 fd1f 	bl	800640c <_ZN50_$LT$T$u20$as$u20$core..convert..Into$LT$U$GT$$GT$4into17hd0fa2a7d0802ab5aE>
 80019ce:	4602      	mov	r2, r0
 80019d0:	9800      	ldr	r0, [sp, #0]
 80019d2:	9008      	str	r0, [sp, #32]
 80019d4:	f807 2c09 	strb.w	r2, [r7, #-9]
 80019d8:	9908      	ldr	r1, [sp, #32]
 80019da:	6808      	ldr	r0, [r1, #0]
 80019dc:	f020 4040 	bic.w	r0, r0, #3221225472	; 0xc0000000
 80019e0:	ea40 7082 	orr.w	r0, r0, r2, lsl #30
 80019e4:	6008      	str	r0, [r1, #0]
 80019e6:	9808      	ldr	r0, [sp, #32]
 80019e8:	b00c      	add	sp, #48	; 0x30
 80019ea:	bd80      	pop	{r7, pc}

080019ec <_ZN4mem310checkpoint14initialization28_$u7b$$u7b$closure$u7d$$u7d$17h1da4cc072323c0c4E>:
 80019ec:	b580      	push	{r7, lr}
 80019ee:	466f      	mov	r7, sp
 80019f0:	b08c      	sub	sp, #48	; 0x30
 80019f2:	9002      	str	r0, [sp, #8]
 80019f4:	9103      	str	r1, [sp, #12]
 80019f6:	9105      	str	r1, [sp, #20]
 80019f8:	9104      	str	r1, [sp, #16]
 80019fa:	9904      	ldr	r1, [sp, #16]
 80019fc:	9100      	str	r1, [sp, #0]
 80019fe:	9107      	str	r1, [sp, #28]
 8001a00:	2002      	movs	r0, #2
 8001a02:	f807 0c15 	strb.w	r0, [r7, #-21]
 8001a06:	f817 0c15 	ldrb.w	r0, [r7, #-21]
 8001a0a:	9108      	str	r1, [sp, #32]
 8001a0c:	f807 0c09 	strb.w	r0, [r7, #-9]
 8001a10:	f648 7124 	movw	r1, #36644	; 0x8f24
 8001a14:	f6c0 0100 	movt	r1, #2048	; 0x800
 8001a18:	f001 fa2c 	bl	8002e74 <_ZN50_$LT$T$u20$as$u20$core..convert..Into$LT$U$GT$$GT$4into17h09173358117f67deE>
 8001a1c:	4602      	mov	r2, r0
 8001a1e:	9800      	ldr	r0, [sp, #0]
 8001a20:	900a      	str	r0, [sp, #40]	; 0x28
 8001a22:	f807 2c01 	strb.w	r2, [r7, #-1]
 8001a26:	990a      	ldr	r1, [sp, #40]	; 0x28
 8001a28:	6808      	ldr	r0, [r1, #0]
 8001a2a:	f362 0001 	bfi	r0, r2, #0, #2
 8001a2e:	6008      	str	r0, [r1, #0]
 8001a30:	980a      	ldr	r0, [sp, #40]	; 0x28
 8001a32:	b00c      	add	sp, #48	; 0x30
 8001a34:	bd80      	pop	{r7, pc}

08001a36 <_ZN4mem310checkpoint14initialization28_$u7b$$u7b$closure$u7d$$u7d$17h9c75536e229de59cE>:
 8001a36:	b580      	push	{r7, lr}
 8001a38:	466f      	mov	r7, sp
 8001a3a:	b08c      	sub	sp, #48	; 0x30
 8001a3c:	9002      	str	r0, [sp, #8]
 8001a3e:	9103      	str	r1, [sp, #12]
 8001a40:	9105      	str	r1, [sp, #20]
 8001a42:	9104      	str	r1, [sp, #16]
 8001a44:	9904      	ldr	r1, [sp, #16]
 8001a46:	9100      	str	r1, [sp, #0]
 8001a48:	9107      	str	r1, [sp, #28]
 8001a4a:	200c      	movs	r0, #12
 8001a4c:	f807 0c15 	strb.w	r0, [r7, #-21]
 8001a50:	f817 0c15 	ldrb.w	r0, [r7, #-21]
 8001a54:	9108      	str	r1, [sp, #32]
 8001a56:	f807 0c09 	strb.w	r0, [r7, #-9]
 8001a5a:	f648 6148 	movw	r1, #36424	; 0x8e48
 8001a5e:	f6c0 0100 	movt	r1, #2048	; 0x800
 8001a62:	f001 f944 	bl	8002cee <_ZN50_$LT$T$u20$as$u20$core..convert..Into$LT$U$GT$$GT$4into17he9c5b7d8674cbccbE>
 8001a66:	4602      	mov	r2, r0
 8001a68:	9800      	ldr	r0, [sp, #0]
 8001a6a:	900a      	str	r0, [sp, #40]	; 0x28
 8001a6c:	f807 2c01 	strb.w	r2, [r7, #-1]
 8001a70:	990a      	ldr	r1, [sp, #40]	; 0x28
 8001a72:	6808      	ldr	r0, [r1, #0]
 8001a74:	f362 0003 	bfi	r0, r2, #0, #4
 8001a78:	6008      	str	r0, [r1, #0]
 8001a7a:	980a      	ldr	r0, [sp, #40]	; 0x28
 8001a7c:	b00c      	add	sp, #48	; 0x30
 8001a7e:	bd80      	pop	{r7, pc}

08001a80 <_ZN4mem310checkpoint14initialization28_$u7b$$u7b$closure$u7d$$u7d$17h03fb92e39688d90dE>:
 8001a80:	b580      	push	{r7, lr}
 8001a82:	466f      	mov	r7, sp
 8001a84:	b08c      	sub	sp, #48	; 0x30
 8001a86:	9002      	str	r0, [sp, #8]
 8001a88:	9103      	str	r1, [sp, #12]
 8001a8a:	910b      	str	r1, [sp, #44]	; 0x2c
 8001a8c:	910a      	str	r1, [sp, #40]	; 0x28
 8001a8e:	990a      	ldr	r1, [sp, #40]	; 0x28
 8001a90:	9100      	str	r1, [sp, #0]
 8001a92:	9105      	str	r1, [sp, #20]
 8001a94:	2003      	movs	r0, #3
 8001a96:	f807 0c1d 	strb.w	r0, [r7, #-29]
 8001a9a:	f817 0c1d 	ldrb.w	r0, [r7, #-29]
 8001a9e:	9106      	str	r1, [sp, #24]
 8001aa0:	f807 0c11 	strb.w	r0, [r7, #-17]
 8001aa4:	f249 0180 	movw	r1, #36992	; 0x9080
 8001aa8:	f6c0 0100 	movt	r1, #2048	; 0x800
 8001aac:	f004 fcae 	bl	800640c <_ZN50_$LT$T$u20$as$u20$core..convert..Into$LT$U$GT$$GT$4into17hd0fa2a7d0802ab5aE>
 8001ab0:	4602      	mov	r2, r0
 8001ab2:	9800      	ldr	r0, [sp, #0]
 8001ab4:	9008      	str	r0, [sp, #32]
 8001ab6:	f807 2c09 	strb.w	r2, [r7, #-9]
 8001aba:	9908      	ldr	r1, [sp, #32]
 8001abc:	6808      	ldr	r0, [r1, #0]
 8001abe:	f362 0001 	bfi	r0, r2, #0, #2
 8001ac2:	6008      	str	r0, [r1, #0]
 8001ac4:	9808      	ldr	r0, [sp, #32]
 8001ac6:	b00c      	add	sp, #48	; 0x30
 8001ac8:	bd80      	pop	{r7, pc}

08001aca <_ZN4mem310checkpoint14initialization28_$u7b$$u7b$closure$u7d$$u7d$17h66ecaab3ec13f5a3E>:
 8001aca:	b580      	push	{r7, lr}
 8001acc:	466f      	mov	r7, sp
 8001ace:	b08c      	sub	sp, #48	; 0x30
 8001ad0:	9002      	str	r0, [sp, #8]
 8001ad2:	9103      	str	r1, [sp, #12]
 8001ad4:	9105      	str	r1, [sp, #20]
 8001ad6:	9104      	str	r1, [sp, #16]
 8001ad8:	9904      	ldr	r1, [sp, #16]
 8001ada:	9100      	str	r1, [sp, #0]
 8001adc:	9107      	str	r1, [sp, #28]
 8001ade:	2002      	movs	r0, #2
 8001ae0:	f807 0c15 	strb.w	r0, [r7, #-21]
 8001ae4:	f817 0c15 	ldrb.w	r0, [r7, #-21]
 8001ae8:	9108      	str	r1, [sp, #32]
 8001aea:	f807 0c09 	strb.w	r0, [r7, #-9]
 8001aee:	f648 7134 	movw	r1, #36660	; 0x8f34
 8001af2:	f6c0 0100 	movt	r1, #2048	; 0x800
 8001af6:	f001 f9bd 	bl	8002e74 <_ZN50_$LT$T$u20$as$u20$core..convert..Into$LT$U$GT$$GT$4into17h09173358117f67deE>
 8001afa:	4602      	mov	r2, r0
 8001afc:	9800      	ldr	r0, [sp, #0]
 8001afe:	900a      	str	r0, [sp, #40]	; 0x28
 8001b00:	f807 2c01 	strb.w	r2, [r7, #-1]
 8001b04:	990a      	ldr	r1, [sp, #40]	; 0x28
 8001b06:	6808      	ldr	r0, [r1, #0]
 8001b08:	f020 000c 	bic.w	r0, r0, #12
 8001b0c:	f002 0203 	and.w	r2, r2, #3
 8001b10:	ea40 0082 	orr.w	r0, r0, r2, lsl #2
 8001b14:	6008      	str	r0, [r1, #0]
 8001b16:	980a      	ldr	r0, [sp, #40]	; 0x28
 8001b18:	b00c      	add	sp, #48	; 0x30
 8001b1a:	bd80      	pop	{r7, pc}

08001b1c <_ZN4mem310checkpoint14initialization28_$u7b$$u7b$closure$u7d$$u7d$17he0ed33d9bc9d95a2E>:
 8001b1c:	b580      	push	{r7, lr}
 8001b1e:	466f      	mov	r7, sp
 8001b20:	b08c      	sub	sp, #48	; 0x30
 8001b22:	9002      	str	r0, [sp, #8]
 8001b24:	9103      	str	r1, [sp, #12]
 8001b26:	9105      	str	r1, [sp, #20]
 8001b28:	9104      	str	r1, [sp, #16]
 8001b2a:	9904      	ldr	r1, [sp, #16]
 8001b2c:	9100      	str	r1, [sp, #0]
 8001b2e:	9107      	str	r1, [sp, #28]
 8001b30:	200c      	movs	r0, #12
 8001b32:	f807 0c15 	strb.w	r0, [r7, #-21]
 8001b36:	f817 0c15 	ldrb.w	r0, [r7, #-21]
 8001b3a:	9108      	str	r1, [sp, #32]
 8001b3c:	f807 0c09 	strb.w	r0, [r7, #-9]
 8001b40:	f648 6158 	movw	r1, #36440	; 0x8e58
 8001b44:	f6c0 0100 	movt	r1, #2048	; 0x800
 8001b48:	f001 f8d1 	bl	8002cee <_ZN50_$LT$T$u20$as$u20$core..convert..Into$LT$U$GT$$GT$4into17he9c5b7d8674cbccbE>
 8001b4c:	4602      	mov	r2, r0
 8001b4e:	9800      	ldr	r0, [sp, #0]
 8001b50:	900a      	str	r0, [sp, #40]	; 0x28
 8001b52:	f807 2c01 	strb.w	r2, [r7, #-1]
 8001b56:	990a      	ldr	r1, [sp, #40]	; 0x28
 8001b58:	6808      	ldr	r0, [r1, #0]
 8001b5a:	f020 00f0 	bic.w	r0, r0, #240	; 0xf0
 8001b5e:	f002 020f 	and.w	r2, r2, #15
 8001b62:	ea40 1002 	orr.w	r0, r0, r2, lsl #4
 8001b66:	6008      	str	r0, [r1, #0]
 8001b68:	980a      	ldr	r0, [sp, #40]	; 0x28
 8001b6a:	b00c      	add	sp, #48	; 0x30
 8001b6c:	bd80      	pop	{r7, pc}

08001b6e <_ZN4mem310checkpoint14initialization28_$u7b$$u7b$closure$u7d$$u7d$17hdbc68c0e3c43a813E>:
 8001b6e:	b580      	push	{r7, lr}
 8001b70:	466f      	mov	r7, sp
 8001b72:	b08c      	sub	sp, #48	; 0x30
 8001b74:	9002      	str	r0, [sp, #8]
 8001b76:	9103      	str	r1, [sp, #12]
 8001b78:	910b      	str	r1, [sp, #44]	; 0x2c
 8001b7a:	910a      	str	r1, [sp, #40]	; 0x28
 8001b7c:	990a      	ldr	r1, [sp, #40]	; 0x28
 8001b7e:	9100      	str	r1, [sp, #0]
 8001b80:	9105      	str	r1, [sp, #20]
 8001b82:	2003      	movs	r0, #3
 8001b84:	f807 0c1d 	strb.w	r0, [r7, #-29]
 8001b88:	f817 0c1d 	ldrb.w	r0, [r7, #-29]
 8001b8c:	9106      	str	r1, [sp, #24]
 8001b8e:	f807 0c11 	strb.w	r0, [r7, #-17]
 8001b92:	f249 0190 	movw	r1, #37008	; 0x9090
 8001b96:	f6c0 0100 	movt	r1, #2048	; 0x800
 8001b9a:	f004 fc37 	bl	800640c <_ZN50_$LT$T$u20$as$u20$core..convert..Into$LT$U$GT$$GT$4into17hd0fa2a7d0802ab5aE>
 8001b9e:	4602      	mov	r2, r0
 8001ba0:	9800      	ldr	r0, [sp, #0]
 8001ba2:	9008      	str	r0, [sp, #32]
 8001ba4:	f807 2c09 	strb.w	r2, [r7, #-9]
 8001ba8:	9908      	ldr	r1, [sp, #32]
 8001baa:	6808      	ldr	r0, [r1, #0]
 8001bac:	f020 000c 	bic.w	r0, r0, #12
 8001bb0:	f002 0203 	and.w	r2, r2, #3
 8001bb4:	ea40 0082 	orr.w	r0, r0, r2, lsl #2
 8001bb8:	6008      	str	r0, [r1, #0]
 8001bba:	9808      	ldr	r0, [sp, #32]
 8001bbc:	b00c      	add	sp, #48	; 0x30
 8001bbe:	bd80      	pop	{r7, pc}

08001bc0 <_ZN4mem310checkpoint14initialization28_$u7b$$u7b$closure$u7d$$u7d$17hd6e80b4702543309E>:
 8001bc0:	b580      	push	{r7, lr}
 8001bc2:	466f      	mov	r7, sp
 8001bc4:	b08c      	sub	sp, #48	; 0x30
 8001bc6:	9002      	str	r0, [sp, #8]
 8001bc8:	9103      	str	r1, [sp, #12]
 8001bca:	9105      	str	r1, [sp, #20]
 8001bcc:	9104      	str	r1, [sp, #16]
 8001bce:	9904      	ldr	r1, [sp, #16]
 8001bd0:	9100      	str	r1, [sp, #0]
 8001bd2:	9107      	str	r1, [sp, #28]
 8001bd4:	2002      	movs	r0, #2
 8001bd6:	f807 0c15 	strb.w	r0, [r7, #-21]
 8001bda:	f817 0c15 	ldrb.w	r0, [r7, #-21]
 8001bde:	9108      	str	r1, [sp, #32]
 8001be0:	f807 0c09 	strb.w	r0, [r7, #-9]
 8001be4:	f648 7184 	movw	r1, #36740	; 0x8f84
 8001be8:	f6c0 0100 	movt	r1, #2048	; 0x800
 8001bec:	f001 f942 	bl	8002e74 <_ZN50_$LT$T$u20$as$u20$core..convert..Into$LT$U$GT$$GT$4into17h09173358117f67deE>
 8001bf0:	4602      	mov	r2, r0
 8001bf2:	9800      	ldr	r0, [sp, #0]
 8001bf4:	900a      	str	r0, [sp, #40]	; 0x28
 8001bf6:	f807 2c01 	strb.w	r2, [r7, #-1]
 8001bfa:	990a      	ldr	r1, [sp, #40]	; 0x28
 8001bfc:	6808      	ldr	r0, [r1, #0]
 8001bfe:	f420 4040 	bic.w	r0, r0, #49152	; 0xc000
 8001c02:	f002 0203 	and.w	r2, r2, #3
 8001c06:	ea40 3082 	orr.w	r0, r0, r2, lsl #14
 8001c0a:	6008      	str	r0, [r1, #0]
 8001c0c:	980a      	ldr	r0, [sp, #40]	; 0x28
 8001c0e:	b00c      	add	sp, #48	; 0x30
 8001c10:	bd80      	pop	{r7, pc}

08001c12 <_ZN4mem310checkpoint14initialization28_$u7b$$u7b$closure$u7d$$u7d$17hce6637cceaedbc31E>:
 8001c12:	b580      	push	{r7, lr}
 8001c14:	466f      	mov	r7, sp
 8001c16:	b08c      	sub	sp, #48	; 0x30
 8001c18:	9002      	str	r0, [sp, #8]
 8001c1a:	9103      	str	r1, [sp, #12]
 8001c1c:	9105      	str	r1, [sp, #20]
 8001c1e:	9104      	str	r1, [sp, #16]
 8001c20:	9904      	ldr	r1, [sp, #16]
 8001c22:	9100      	str	r1, [sp, #0]
 8001c24:	9107      	str	r1, [sp, #28]
 8001c26:	200c      	movs	r0, #12
 8001c28:	f807 0c15 	strb.w	r0, [r7, #-21]
 8001c2c:	f817 0c15 	ldrb.w	r0, [r7, #-21]
 8001c30:	9108      	str	r1, [sp, #32]
 8001c32:	f807 0c09 	strb.w	r0, [r7, #-9]
 8001c36:	f648 61a8 	movw	r1, #36520	; 0x8ea8
 8001c3a:	f6c0 0100 	movt	r1, #2048	; 0x800
 8001c3e:	f001 f856 	bl	8002cee <_ZN50_$LT$T$u20$as$u20$core..convert..Into$LT$U$GT$$GT$4into17he9c5b7d8674cbccbE>
 8001c42:	4602      	mov	r2, r0
 8001c44:	9800      	ldr	r0, [sp, #0]
 8001c46:	900a      	str	r0, [sp, #40]	; 0x28
 8001c48:	f807 2c01 	strb.w	r2, [r7, #-1]
 8001c4c:	990a      	ldr	r1, [sp, #40]	; 0x28
 8001c4e:	6808      	ldr	r0, [r1, #0]
 8001c50:	f020 4070 	bic.w	r0, r0, #4026531840	; 0xf0000000
 8001c54:	ea40 7002 	orr.w	r0, r0, r2, lsl #28
 8001c58:	6008      	str	r0, [r1, #0]
 8001c5a:	980a      	ldr	r0, [sp, #40]	; 0x28
 8001c5c:	b00c      	add	sp, #48	; 0x30
 8001c5e:	bd80      	pop	{r7, pc}

08001c60 <_ZN4mem310checkpoint14initialization28_$u7b$$u7b$closure$u7d$$u7d$17h300f96ffe67667c6E>:
 8001c60:	b580      	push	{r7, lr}
 8001c62:	466f      	mov	r7, sp
 8001c64:	b08c      	sub	sp, #48	; 0x30
 8001c66:	9002      	str	r0, [sp, #8]
 8001c68:	9103      	str	r1, [sp, #12]
 8001c6a:	910b      	str	r1, [sp, #44]	; 0x2c
 8001c6c:	910a      	str	r1, [sp, #40]	; 0x28
 8001c6e:	990a      	ldr	r1, [sp, #40]	; 0x28
 8001c70:	9100      	str	r1, [sp, #0]
 8001c72:	9105      	str	r1, [sp, #20]
 8001c74:	2003      	movs	r0, #3
 8001c76:	f807 0c1d 	strb.w	r0, [r7, #-29]
 8001c7a:	f817 0c1d 	ldrb.w	r0, [r7, #-29]
 8001c7e:	9106      	str	r1, [sp, #24]
 8001c80:	f807 0c11 	strb.w	r0, [r7, #-17]
 8001c84:	f249 01e0 	movw	r1, #37088	; 0x90e0
 8001c88:	f6c0 0100 	movt	r1, #2048	; 0x800
 8001c8c:	f004 fbbe 	bl	800640c <_ZN50_$LT$T$u20$as$u20$core..convert..Into$LT$U$GT$$GT$4into17hd0fa2a7d0802ab5aE>
 8001c90:	4602      	mov	r2, r0
 8001c92:	9800      	ldr	r0, [sp, #0]
 8001c94:	9008      	str	r0, [sp, #32]
 8001c96:	f807 2c09 	strb.w	r2, [r7, #-9]
 8001c9a:	9908      	ldr	r1, [sp, #32]
 8001c9c:	6808      	ldr	r0, [r1, #0]
 8001c9e:	f420 4040 	bic.w	r0, r0, #49152	; 0xc000
 8001ca2:	f002 0203 	and.w	r2, r2, #3
 8001ca6:	ea40 3082 	orr.w	r0, r0, r2, lsl #14
 8001caa:	6008      	str	r0, [r1, #0]
 8001cac:	9808      	ldr	r0, [sp, #32]
 8001cae:	b00c      	add	sp, #48	; 0x30
 8001cb0:	bd80      	pop	{r7, pc}

08001cb2 <_ZN4mem310checkpoint14initialization28_$u7b$$u7b$closure$u7d$$u7d$17hd973813acab7d629E>:
 8001cb2:	b580      	push	{r7, lr}
 8001cb4:	466f      	mov	r7, sp
 8001cb6:	b08c      	sub	sp, #48	; 0x30
 8001cb8:	9002      	str	r0, [sp, #8]
 8001cba:	9103      	str	r1, [sp, #12]
 8001cbc:	9105      	str	r1, [sp, #20]
 8001cbe:	9104      	str	r1, [sp, #16]
 8001cc0:	9904      	ldr	r1, [sp, #16]
 8001cc2:	9100      	str	r1, [sp, #0]
 8001cc4:	9107      	str	r1, [sp, #28]
 8001cc6:	2002      	movs	r0, #2
 8001cc8:	f807 0c15 	strb.w	r0, [r7, #-21]
 8001ccc:	f817 0c15 	ldrb.w	r0, [r7, #-21]
 8001cd0:	9108      	str	r1, [sp, #32]
 8001cd2:	f807 0c09 	strb.w	r0, [r7, #-9]
 8001cd6:	f648 7194 	movw	r1, #36756	; 0x8f94
 8001cda:	f6c0 0100 	movt	r1, #2048	; 0x800
 8001cde:	f001 f8c9 	bl	8002e74 <_ZN50_$LT$T$u20$as$u20$core..convert..Into$LT$U$GT$$GT$4into17h09173358117f67deE>
 8001ce2:	4602      	mov	r2, r0
 8001ce4:	9800      	ldr	r0, [sp, #0]
 8001ce6:	900a      	str	r0, [sp, #40]	; 0x28
 8001ce8:	f807 2c01 	strb.w	r2, [r7, #-1]
 8001cec:	990a      	ldr	r1, [sp, #40]	; 0x28
 8001cee:	6808      	ldr	r0, [r1, #0]
 8001cf0:	f420 3040 	bic.w	r0, r0, #196608	; 0x30000
 8001cf4:	f002 0203 	and.w	r2, r2, #3
 8001cf8:	ea40 4002 	orr.w	r0, r0, r2, lsl #16
 8001cfc:	6008      	str	r0, [r1, #0]
 8001cfe:	980a      	ldr	r0, [sp, #40]	; 0x28
 8001d00:	b00c      	add	sp, #48	; 0x30
 8001d02:	bd80      	pop	{r7, pc}

08001d04 <_ZN4mem310checkpoint14initialization28_$u7b$$u7b$closure$u7d$$u7d$17h4910b00916d14a50E>:
 8001d04:	b580      	push	{r7, lr}
 8001d06:	466f      	mov	r7, sp
 8001d08:	b08c      	sub	sp, #48	; 0x30
 8001d0a:	9002      	str	r0, [sp, #8]
 8001d0c:	9103      	str	r1, [sp, #12]
 8001d0e:	9105      	str	r1, [sp, #20]
 8001d10:	9104      	str	r1, [sp, #16]
 8001d12:	9904      	ldr	r1, [sp, #16]
 8001d14:	9100      	str	r1, [sp, #0]
 8001d16:	9107      	str	r1, [sp, #28]
 8001d18:	200c      	movs	r0, #12
 8001d1a:	f807 0c15 	strb.w	r0, [r7, #-21]
 8001d1e:	f817 0c15 	ldrb.w	r0, [r7, #-21]
 8001d22:	9108      	str	r1, [sp, #32]
 8001d24:	f807 0c09 	strb.w	r0, [r7, #-9]
 8001d28:	f648 515c 	movw	r1, #36188	; 0x8d5c
 8001d2c:	f6c0 0100 	movt	r1, #2048	; 0x800
 8001d30:	f7fe fb13 	bl	800035a <_ZN50_$LT$T$u20$as$u20$core..convert..Into$LT$U$GT$$GT$4into17h71f57894845e8bf0E>
 8001d34:	4602      	mov	r2, r0
 8001d36:	9800      	ldr	r0, [sp, #0]
 8001d38:	900a      	str	r0, [sp, #40]	; 0x28
 8001d3a:	f807 2c01 	strb.w	r2, [r7, #-1]
 8001d3e:	990a      	ldr	r1, [sp, #40]	; 0x28
 8001d40:	6808      	ldr	r0, [r1, #0]
 8001d42:	f362 0003 	bfi	r0, r2, #0, #4
 8001d46:	6008      	str	r0, [r1, #0]
 8001d48:	980a      	ldr	r0, [sp, #40]	; 0x28
 8001d4a:	b00c      	add	sp, #48	; 0x30
 8001d4c:	bd80      	pop	{r7, pc}

08001d4e <_ZN4mem310checkpoint14initialization28_$u7b$$u7b$closure$u7d$$u7d$17h9bb6125f4670bb60E>:
 8001d4e:	b580      	push	{r7, lr}
 8001d50:	466f      	mov	r7, sp
 8001d52:	b08c      	sub	sp, #48	; 0x30
 8001d54:	9002      	str	r0, [sp, #8]
 8001d56:	9103      	str	r1, [sp, #12]
 8001d58:	910b      	str	r1, [sp, #44]	; 0x2c
 8001d5a:	910a      	str	r1, [sp, #40]	; 0x28
 8001d5c:	990a      	ldr	r1, [sp, #40]	; 0x28
 8001d5e:	9100      	str	r1, [sp, #0]
 8001d60:	9105      	str	r1, [sp, #20]
 8001d62:	2003      	movs	r0, #3
 8001d64:	f807 0c1d 	strb.w	r0, [r7, #-29]
 8001d68:	f817 0c1d 	ldrb.w	r0, [r7, #-29]
 8001d6c:	9106      	str	r1, [sp, #24]
 8001d6e:	f807 0c11 	strb.w	r0, [r7, #-17]
 8001d72:	f249 01f0 	movw	r1, #37104	; 0x90f0
 8001d76:	f6c0 0100 	movt	r1, #2048	; 0x800
 8001d7a:	f004 fb47 	bl	800640c <_ZN50_$LT$T$u20$as$u20$core..convert..Into$LT$U$GT$$GT$4into17hd0fa2a7d0802ab5aE>
 8001d7e:	4602      	mov	r2, r0
 8001d80:	9800      	ldr	r0, [sp, #0]
 8001d82:	9008      	str	r0, [sp, #32]
 8001d84:	f807 2c09 	strb.w	r2, [r7, #-9]
 8001d88:	9908      	ldr	r1, [sp, #32]
 8001d8a:	6808      	ldr	r0, [r1, #0]
 8001d8c:	f420 3040 	bic.w	r0, r0, #196608	; 0x30000
 8001d90:	f002 0203 	and.w	r2, r2, #3
 8001d94:	ea40 4002 	orr.w	r0, r0, r2, lsl #16
 8001d98:	6008      	str	r0, [r1, #0]
 8001d9a:	9808      	ldr	r0, [sp, #32]
 8001d9c:	b00c      	add	sp, #48	; 0x30
 8001d9e:	bd80      	pop	{r7, pc}

08001da0 <_ZN4mem310checkpoint14initialization28_$u7b$$u7b$closure$u7d$$u7d$17h712cfc9407d9512eE>:
 8001da0:	b580      	push	{r7, lr}
 8001da2:	466f      	mov	r7, sp
 8001da4:	b08c      	sub	sp, #48	; 0x30
 8001da6:	9002      	str	r0, [sp, #8]
 8001da8:	9103      	str	r1, [sp, #12]
 8001daa:	9105      	str	r1, [sp, #20]
 8001dac:	9104      	str	r1, [sp, #16]
 8001dae:	9904      	ldr	r1, [sp, #16]
 8001db0:	9100      	str	r1, [sp, #0]
 8001db2:	9107      	str	r1, [sp, #28]
 8001db4:	2002      	movs	r0, #2
 8001db6:	f807 0c15 	strb.w	r0, [r7, #-21]
 8001dba:	f817 0c15 	ldrb.w	r0, [r7, #-21]
 8001dbe:	9108      	str	r1, [sp, #32]
 8001dc0:	f807 0c09 	strb.w	r0, [r7, #-9]
 8001dc4:	f648 71a4 	movw	r1, #36772	; 0x8fa4
 8001dc8:	f6c0 0100 	movt	r1, #2048	; 0x800
 8001dcc:	f001 f852 	bl	8002e74 <_ZN50_$LT$T$u20$as$u20$core..convert..Into$LT$U$GT$$GT$4into17h09173358117f67deE>
 8001dd0:	4602      	mov	r2, r0
 8001dd2:	9800      	ldr	r0, [sp, #0]
 8001dd4:	900a      	str	r0, [sp, #40]	; 0x28
 8001dd6:	f807 2c01 	strb.w	r2, [r7, #-1]
 8001dda:	990a      	ldr	r1, [sp, #40]	; 0x28
 8001ddc:	6808      	ldr	r0, [r1, #0]
 8001dde:	f420 2040 	bic.w	r0, r0, #786432	; 0xc0000
 8001de2:	f002 0203 	and.w	r2, r2, #3
 8001de6:	ea40 4082 	orr.w	r0, r0, r2, lsl #18
 8001dea:	6008      	str	r0, [r1, #0]
 8001dec:	980a      	ldr	r0, [sp, #40]	; 0x28
 8001dee:	b00c      	add	sp, #48	; 0x30
 8001df0:	bd80      	pop	{r7, pc}

08001df2 <_ZN4mem310checkpoint14initialization28_$u7b$$u7b$closure$u7d$$u7d$17h8888660a330147ddE>:
 8001df2:	b580      	push	{r7, lr}
 8001df4:	466f      	mov	r7, sp
 8001df6:	b08c      	sub	sp, #48	; 0x30
 8001df8:	9002      	str	r0, [sp, #8]
 8001dfa:	9103      	str	r1, [sp, #12]
 8001dfc:	9105      	str	r1, [sp, #20]
 8001dfe:	9104      	str	r1, [sp, #16]
 8001e00:	9904      	ldr	r1, [sp, #16]
 8001e02:	9100      	str	r1, [sp, #0]
 8001e04:	9107      	str	r1, [sp, #28]
 8001e06:	200c      	movs	r0, #12
 8001e08:	f807 0c15 	strb.w	r0, [r7, #-21]
 8001e0c:	f817 0c15 	ldrb.w	r0, [r7, #-21]
 8001e10:	9108      	str	r1, [sp, #32]
 8001e12:	f807 0c09 	strb.w	r0, [r7, #-9]
 8001e16:	f648 516c 	movw	r1, #36204	; 0x8d6c
 8001e1a:	f6c0 0100 	movt	r1, #2048	; 0x800
 8001e1e:	f7fe fa9c 	bl	800035a <_ZN50_$LT$T$u20$as$u20$core..convert..Into$LT$U$GT$$GT$4into17h71f57894845e8bf0E>
 8001e22:	4602      	mov	r2, r0
 8001e24:	9800      	ldr	r0, [sp, #0]
 8001e26:	900a      	str	r0, [sp, #40]	; 0x28
 8001e28:	f807 2c01 	strb.w	r2, [r7, #-1]
 8001e2c:	990a      	ldr	r1, [sp, #40]	; 0x28
 8001e2e:	6808      	ldr	r0, [r1, #0]
 8001e30:	f020 00f0 	bic.w	r0, r0, #240	; 0xf0
 8001e34:	f002 020f 	and.w	r2, r2, #15
 8001e38:	ea40 1002 	orr.w	r0, r0, r2, lsl #4
 8001e3c:	6008      	str	r0, [r1, #0]
 8001e3e:	980a      	ldr	r0, [sp, #40]	; 0x28
 8001e40:	b00c      	add	sp, #48	; 0x30
 8001e42:	bd80      	pop	{r7, pc}

08001e44 <_ZN4mem310checkpoint14initialization28_$u7b$$u7b$closure$u7d$$u7d$17h4df5593fe28b550aE>:
 8001e44:	b580      	push	{r7, lr}
 8001e46:	466f      	mov	r7, sp
 8001e48:	b08c      	sub	sp, #48	; 0x30
 8001e4a:	9002      	str	r0, [sp, #8]
 8001e4c:	9103      	str	r1, [sp, #12]
 8001e4e:	910b      	str	r1, [sp, #44]	; 0x2c
 8001e50:	910a      	str	r1, [sp, #40]	; 0x28
 8001e52:	990a      	ldr	r1, [sp, #40]	; 0x28
 8001e54:	9100      	str	r1, [sp, #0]
 8001e56:	9105      	str	r1, [sp, #20]
 8001e58:	2003      	movs	r0, #3
 8001e5a:	f807 0c1d 	strb.w	r0, [r7, #-29]
 8001e5e:	f817 0c1d 	ldrb.w	r0, [r7, #-29]
 8001e62:	9106      	str	r1, [sp, #24]
 8001e64:	f807 0c11 	strb.w	r0, [r7, #-17]
 8001e68:	f249 1100 	movw	r1, #37120	; 0x9100
 8001e6c:	f6c0 0100 	movt	r1, #2048	; 0x800
 8001e70:	f004 facc 	bl	800640c <_ZN50_$LT$T$u20$as$u20$core..convert..Into$LT$U$GT$$GT$4into17hd0fa2a7d0802ab5aE>
 8001e74:	4602      	mov	r2, r0
 8001e76:	9800      	ldr	r0, [sp, #0]
 8001e78:	9008      	str	r0, [sp, #32]
 8001e7a:	f807 2c09 	strb.w	r2, [r7, #-9]
 8001e7e:	9908      	ldr	r1, [sp, #32]
 8001e80:	6808      	ldr	r0, [r1, #0]
 8001e82:	f420 2040 	bic.w	r0, r0, #786432	; 0xc0000
 8001e86:	f002 0203 	and.w	r2, r2, #3
 8001e8a:	ea40 4082 	orr.w	r0, r0, r2, lsl #18
 8001e8e:	6008      	str	r0, [r1, #0]
 8001e90:	9808      	ldr	r0, [sp, #32]
 8001e92:	b00c      	add	sp, #48	; 0x30
 8001e94:	bd80      	pop	{r7, pc}

08001e96 <_ZN4mem310checkpoint14initialization28_$u7b$$u7b$closure$u7d$$u7d$17h2cf885448c03fc92E>:
 8001e96:	b580      	push	{r7, lr}
 8001e98:	466f      	mov	r7, sp
 8001e9a:	b08c      	sub	sp, #48	; 0x30
 8001e9c:	9002      	str	r0, [sp, #8]
 8001e9e:	9103      	str	r1, [sp, #12]
 8001ea0:	9105      	str	r1, [sp, #20]
 8001ea2:	9104      	str	r1, [sp, #16]
 8001ea4:	9904      	ldr	r1, [sp, #16]
 8001ea6:	9100      	str	r1, [sp, #0]
 8001ea8:	9107      	str	r1, [sp, #28]
 8001eaa:	2002      	movs	r0, #2
 8001eac:	f807 0c15 	strb.w	r0, [r7, #-21]
 8001eb0:	f817 0c15 	ldrb.w	r0, [r7, #-21]
 8001eb4:	9108      	str	r1, [sp, #32]
 8001eb6:	f807 0c09 	strb.w	r0, [r7, #-9]
 8001eba:	f648 71b4 	movw	r1, #36788	; 0x8fb4
 8001ebe:	f6c0 0100 	movt	r1, #2048	; 0x800
 8001ec2:	f000 ffd7 	bl	8002e74 <_ZN50_$LT$T$u20$as$u20$core..convert..Into$LT$U$GT$$GT$4into17h09173358117f67deE>
 8001ec6:	4602      	mov	r2, r0
 8001ec8:	9800      	ldr	r0, [sp, #0]
 8001eca:	900a      	str	r0, [sp, #40]	; 0x28
 8001ecc:	f807 2c01 	strb.w	r2, [r7, #-1]
 8001ed0:	990a      	ldr	r1, [sp, #40]	; 0x28
 8001ed2:	6808      	ldr	r0, [r1, #0]
 8001ed4:	f420 1040 	bic.w	r0, r0, #3145728	; 0x300000
 8001ed8:	f002 0203 	and.w	r2, r2, #3
 8001edc:	ea40 5002 	orr.w	r0, r0, r2, lsl #20
 8001ee0:	6008      	str	r0, [r1, #0]
 8001ee2:	980a      	ldr	r0, [sp, #40]	; 0x28
 8001ee4:	b00c      	add	sp, #48	; 0x30
 8001ee6:	bd80      	pop	{r7, pc}

08001ee8 <_ZN4mem310checkpoint14initialization28_$u7b$$u7b$closure$u7d$$u7d$17hc8e89b1a2084e5aeE>:
 8001ee8:	b580      	push	{r7, lr}
 8001eea:	466f      	mov	r7, sp
 8001eec:	b08c      	sub	sp, #48	; 0x30
 8001eee:	9002      	str	r0, [sp, #8]
 8001ef0:	9103      	str	r1, [sp, #12]
 8001ef2:	9105      	str	r1, [sp, #20]
 8001ef4:	9104      	str	r1, [sp, #16]
 8001ef6:	9904      	ldr	r1, [sp, #16]
 8001ef8:	9100      	str	r1, [sp, #0]
 8001efa:	9107      	str	r1, [sp, #28]
 8001efc:	200c      	movs	r0, #12
 8001efe:	f807 0c15 	strb.w	r0, [r7, #-21]
 8001f02:	f817 0c15 	ldrb.w	r0, [r7, #-21]
 8001f06:	9108      	str	r1, [sp, #32]
 8001f08:	f807 0c09 	strb.w	r0, [r7, #-9]
 8001f0c:	f648 517c 	movw	r1, #36220	; 0x8d7c
 8001f10:	f6c0 0100 	movt	r1, #2048	; 0x800
 8001f14:	f7fe fa21 	bl	800035a <_ZN50_$LT$T$u20$as$u20$core..convert..Into$LT$U$GT$$GT$4into17h71f57894845e8bf0E>
 8001f18:	4602      	mov	r2, r0
 8001f1a:	9800      	ldr	r0, [sp, #0]
 8001f1c:	900a      	str	r0, [sp, #40]	; 0x28
 8001f1e:	f807 2c01 	strb.w	r2, [r7, #-1]
 8001f22:	990a      	ldr	r1, [sp, #40]	; 0x28
 8001f24:	6808      	ldr	r0, [r1, #0]
 8001f26:	f420 6070 	bic.w	r0, r0, #3840	; 0xf00
 8001f2a:	f002 020f 	and.w	r2, r2, #15
 8001f2e:	ea40 2002 	orr.w	r0, r0, r2, lsl #8
 8001f32:	6008      	str	r0, [r1, #0]
 8001f34:	980a      	ldr	r0, [sp, #40]	; 0x28
 8001f36:	b00c      	add	sp, #48	; 0x30
 8001f38:	bd80      	pop	{r7, pc}

08001f3a <_ZN4mem310checkpoint14initialization28_$u7b$$u7b$closure$u7d$$u7d$17hdee1e805bce3b332E>:
 8001f3a:	b580      	push	{r7, lr}
 8001f3c:	466f      	mov	r7, sp
 8001f3e:	b08c      	sub	sp, #48	; 0x30
 8001f40:	9002      	str	r0, [sp, #8]
 8001f42:	9103      	str	r1, [sp, #12]
 8001f44:	910b      	str	r1, [sp, #44]	; 0x2c
 8001f46:	910a      	str	r1, [sp, #40]	; 0x28
 8001f48:	990a      	ldr	r1, [sp, #40]	; 0x28
 8001f4a:	9100      	str	r1, [sp, #0]
 8001f4c:	9105      	str	r1, [sp, #20]
 8001f4e:	2003      	movs	r0, #3
 8001f50:	f807 0c1d 	strb.w	r0, [r7, #-29]
 8001f54:	f817 0c1d 	ldrb.w	r0, [r7, #-29]
 8001f58:	9106      	str	r1, [sp, #24]
 8001f5a:	f807 0c11 	strb.w	r0, [r7, #-17]
 8001f5e:	f249 1110 	movw	r1, #37136	; 0x9110
 8001f62:	f6c0 0100 	movt	r1, #2048	; 0x800
 8001f66:	f004 fa51 	bl	800640c <_ZN50_$LT$T$u20$as$u20$core..convert..Into$LT$U$GT$$GT$4into17hd0fa2a7d0802ab5aE>
 8001f6a:	4602      	mov	r2, r0
 8001f6c:	9800      	ldr	r0, [sp, #0]
 8001f6e:	9008      	str	r0, [sp, #32]
 8001f70:	f807 2c09 	strb.w	r2, [r7, #-9]
 8001f74:	9908      	ldr	r1, [sp, #32]
 8001f76:	6808      	ldr	r0, [r1, #0]
 8001f78:	f420 1040 	bic.w	r0, r0, #3145728	; 0x300000
 8001f7c:	f002 0203 	and.w	r2, r2, #3
 8001f80:	ea40 5002 	orr.w	r0, r0, r2, lsl #20
 8001f84:	6008      	str	r0, [r1, #0]
 8001f86:	9808      	ldr	r0, [sp, #32]
 8001f88:	b00c      	add	sp, #48	; 0x30
 8001f8a:	bd80      	pop	{r7, pc}

08001f8c <_ZN4mem310checkpoint14initialization28_$u7b$$u7b$closure$u7d$$u7d$17hf961cb5ddc900f3dE>:
 8001f8c:	b580      	push	{r7, lr}
 8001f8e:	466f      	mov	r7, sp
 8001f90:	b08c      	sub	sp, #48	; 0x30
 8001f92:	9002      	str	r0, [sp, #8]
 8001f94:	9103      	str	r1, [sp, #12]
 8001f96:	9105      	str	r1, [sp, #20]
 8001f98:	9104      	str	r1, [sp, #16]
 8001f9a:	9904      	ldr	r1, [sp, #16]
 8001f9c:	9100      	str	r1, [sp, #0]
 8001f9e:	9107      	str	r1, [sp, #28]
 8001fa0:	2002      	movs	r0, #2
 8001fa2:	f807 0c15 	strb.w	r0, [r7, #-21]
 8001fa6:	f817 0c15 	ldrb.w	r0, [r7, #-21]
 8001faa:	9108      	str	r1, [sp, #32]
 8001fac:	f807 0c09 	strb.w	r0, [r7, #-9]
 8001fb0:	f648 71c4 	movw	r1, #36804	; 0x8fc4
 8001fb4:	f6c0 0100 	movt	r1, #2048	; 0x800
 8001fb8:	f000 ff5c 	bl	8002e74 <_ZN50_$LT$T$u20$as$u20$core..convert..Into$LT$U$GT$$GT$4into17h09173358117f67deE>
 8001fbc:	4602      	mov	r2, r0
 8001fbe:	9800      	ldr	r0, [sp, #0]
 8001fc0:	900a      	str	r0, [sp, #40]	; 0x28
 8001fc2:	f807 2c01 	strb.w	r2, [r7, #-1]
 8001fc6:	990a      	ldr	r1, [sp, #40]	; 0x28
 8001fc8:	6808      	ldr	r0, [r1, #0]
 8001fca:	f420 0040 	bic.w	r0, r0, #12582912	; 0xc00000
 8001fce:	f002 0203 	and.w	r2, r2, #3
 8001fd2:	ea40 5082 	orr.w	r0, r0, r2, lsl #22
 8001fd6:	6008      	str	r0, [r1, #0]
 8001fd8:	980a      	ldr	r0, [sp, #40]	; 0x28
 8001fda:	b00c      	add	sp, #48	; 0x30
 8001fdc:	bd80      	pop	{r7, pc}

08001fde <_ZN4mem310checkpoint14initialization28_$u7b$$u7b$closure$u7d$$u7d$17hd8924d0525bd16a1E>:
 8001fde:	b580      	push	{r7, lr}
 8001fe0:	466f      	mov	r7, sp
 8001fe2:	b08c      	sub	sp, #48	; 0x30
 8001fe4:	9002      	str	r0, [sp, #8]
 8001fe6:	9103      	str	r1, [sp, #12]
 8001fe8:	9105      	str	r1, [sp, #20]
 8001fea:	9104      	str	r1, [sp, #16]
 8001fec:	9904      	ldr	r1, [sp, #16]
 8001fee:	9100      	str	r1, [sp, #0]
 8001ff0:	9107      	str	r1, [sp, #28]
 8001ff2:	200c      	movs	r0, #12
 8001ff4:	f807 0c15 	strb.w	r0, [r7, #-21]
 8001ff8:	f817 0c15 	ldrb.w	r0, [r7, #-21]
 8001ffc:	9108      	str	r1, [sp, #32]
 8001ffe:	f807 0c09 	strb.w	r0, [r7, #-9]
 8002002:	f648 518c 	movw	r1, #36236	; 0x8d8c
 8002006:	f6c0 0100 	movt	r1, #2048	; 0x800
 800200a:	f7fe f9a6 	bl	800035a <_ZN50_$LT$T$u20$as$u20$core..convert..Into$LT$U$GT$$GT$4into17h71f57894845e8bf0E>
 800200e:	4602      	mov	r2, r0
 8002010:	9800      	ldr	r0, [sp, #0]
 8002012:	900a      	str	r0, [sp, #40]	; 0x28
 8002014:	f807 2c01 	strb.w	r2, [r7, #-1]
 8002018:	990a      	ldr	r1, [sp, #40]	; 0x28
 800201a:	6808      	ldr	r0, [r1, #0]
 800201c:	f420 4070 	bic.w	r0, r0, #61440	; 0xf000
 8002020:	f002 020f 	and.w	r2, r2, #15
 8002024:	ea40 3002 	orr.w	r0, r0, r2, lsl #12
 8002028:	6008      	str	r0, [r1, #0]
 800202a:	980a      	ldr	r0, [sp, #40]	; 0x28
 800202c:	b00c      	add	sp, #48	; 0x30
 800202e:	bd80      	pop	{r7, pc}

08002030 <_ZN4mem310checkpoint14initialization28_$u7b$$u7b$closure$u7d$$u7d$17hb43170516307a5d7E>:
 8002030:	b580      	push	{r7, lr}
 8002032:	466f      	mov	r7, sp
 8002034:	b08c      	sub	sp, #48	; 0x30
 8002036:	9002      	str	r0, [sp, #8]
 8002038:	9103      	str	r1, [sp, #12]
 800203a:	910b      	str	r1, [sp, #44]	; 0x2c
 800203c:	910a      	str	r1, [sp, #40]	; 0x28
 800203e:	990a      	ldr	r1, [sp, #40]	; 0x28
 8002040:	9100      	str	r1, [sp, #0]
 8002042:	9105      	str	r1, [sp, #20]
 8002044:	2003      	movs	r0, #3
 8002046:	f807 0c1d 	strb.w	r0, [r7, #-29]
 800204a:	f817 0c1d 	ldrb.w	r0, [r7, #-29]
 800204e:	9106      	str	r1, [sp, #24]
 8002050:	f807 0c11 	strb.w	r0, [r7, #-17]
 8002054:	f249 1120 	movw	r1, #37152	; 0x9120
 8002058:	f6c0 0100 	movt	r1, #2048	; 0x800
 800205c:	f004 f9d6 	bl	800640c <_ZN50_$LT$T$u20$as$u20$core..convert..Into$LT$U$GT$$GT$4into17hd0fa2a7d0802ab5aE>
 8002060:	4602      	mov	r2, r0
 8002062:	9800      	ldr	r0, [sp, #0]
 8002064:	9008      	str	r0, [sp, #32]
 8002066:	f807 2c09 	strb.w	r2, [r7, #-9]
 800206a:	9908      	ldr	r1, [sp, #32]
 800206c:	6808      	ldr	r0, [r1, #0]
 800206e:	f420 0040 	bic.w	r0, r0, #12582912	; 0xc00000
 8002072:	f002 0203 	and.w	r2, r2, #3
 8002076:	ea40 5082 	orr.w	r0, r0, r2, lsl #22
 800207a:	6008      	str	r0, [r1, #0]
 800207c:	9808      	ldr	r0, [sp, #32]
 800207e:	b00c      	add	sp, #48	; 0x30
 8002080:	bd80      	pop	{r7, pc}

08002082 <_ZN4mem310checkpoint14initialization28_$u7b$$u7b$closure$u7d$$u7d$17hf8b690586ce9d722E>:
 8002082:	b580      	push	{r7, lr}
 8002084:	466f      	mov	r7, sp
 8002086:	b08c      	sub	sp, #48	; 0x30
 8002088:	9002      	str	r0, [sp, #8]
 800208a:	9103      	str	r1, [sp, #12]
 800208c:	9105      	str	r1, [sp, #20]
 800208e:	9104      	str	r1, [sp, #16]
 8002090:	9904      	ldr	r1, [sp, #16]
 8002092:	9100      	str	r1, [sp, #0]
 8002094:	9107      	str	r1, [sp, #28]
 8002096:	2002      	movs	r0, #2
 8002098:	f807 0c15 	strb.w	r0, [r7, #-21]
 800209c:	f817 0c15 	ldrb.w	r0, [r7, #-21]
 80020a0:	9108      	str	r1, [sp, #32]
 80020a2:	f807 0c09 	strb.w	r0, [r7, #-9]
 80020a6:	f648 71d4 	movw	r1, #36820	; 0x8fd4
 80020aa:	f6c0 0100 	movt	r1, #2048	; 0x800
 80020ae:	f000 fee1 	bl	8002e74 <_ZN50_$LT$T$u20$as$u20$core..convert..Into$LT$U$GT$$GT$4into17h09173358117f67deE>
 80020b2:	4602      	mov	r2, r0
 80020b4:	9800      	ldr	r0, [sp, #0]
 80020b6:	900a      	str	r0, [sp, #40]	; 0x28
 80020b8:	f807 2c01 	strb.w	r2, [r7, #-1]
 80020bc:	990a      	ldr	r1, [sp, #40]	; 0x28
 80020be:	6808      	ldr	r0, [r1, #0]
 80020c0:	f020 7040 	bic.w	r0, r0, #50331648	; 0x3000000
 80020c4:	f002 0203 	and.w	r2, r2, #3
 80020c8:	ea40 6002 	orr.w	r0, r0, r2, lsl #24
 80020cc:	6008      	str	r0, [r1, #0]
 80020ce:	980a      	ldr	r0, [sp, #40]	; 0x28
 80020d0:	b00c      	add	sp, #48	; 0x30
 80020d2:	bd80      	pop	{r7, pc}

080020d4 <_ZN4mem310checkpoint14initialization28_$u7b$$u7b$closure$u7d$$u7d$17h1446d3539829b3f6E>:
 80020d4:	b580      	push	{r7, lr}
 80020d6:	466f      	mov	r7, sp
 80020d8:	b08c      	sub	sp, #48	; 0x30
 80020da:	9002      	str	r0, [sp, #8]
 80020dc:	9103      	str	r1, [sp, #12]
 80020de:	9105      	str	r1, [sp, #20]
 80020e0:	9104      	str	r1, [sp, #16]
 80020e2:	9904      	ldr	r1, [sp, #16]
 80020e4:	9100      	str	r1, [sp, #0]
 80020e6:	9107      	str	r1, [sp, #28]
 80020e8:	200c      	movs	r0, #12
 80020ea:	f807 0c15 	strb.w	r0, [r7, #-21]
 80020ee:	f817 0c15 	ldrb.w	r0, [r7, #-21]
 80020f2:	9108      	str	r1, [sp, #32]
 80020f4:	f807 0c09 	strb.w	r0, [r7, #-9]
 80020f8:	f648 519c 	movw	r1, #36252	; 0x8d9c
 80020fc:	f6c0 0100 	movt	r1, #2048	; 0x800
 8002100:	f7fe f92b 	bl	800035a <_ZN50_$LT$T$u20$as$u20$core..convert..Into$LT$U$GT$$GT$4into17h71f57894845e8bf0E>
 8002104:	4602      	mov	r2, r0
 8002106:	9800      	ldr	r0, [sp, #0]
 8002108:	900a      	str	r0, [sp, #40]	; 0x28
 800210a:	f807 2c01 	strb.w	r2, [r7, #-1]
 800210e:	990a      	ldr	r1, [sp, #40]	; 0x28
 8002110:	6808      	ldr	r0, [r1, #0]
 8002112:	f420 2070 	bic.w	r0, r0, #983040	; 0xf0000
 8002116:	f002 020f 	and.w	r2, r2, #15
 800211a:	ea40 4002 	orr.w	r0, r0, r2, lsl #16
 800211e:	6008      	str	r0, [r1, #0]
 8002120:	980a      	ldr	r0, [sp, #40]	; 0x28
 8002122:	b00c      	add	sp, #48	; 0x30
 8002124:	bd80      	pop	{r7, pc}

08002126 <_ZN4mem310checkpoint14initialization28_$u7b$$u7b$closure$u7d$$u7d$17hc5daa2baadf9d9aeE>:
 8002126:	b580      	push	{r7, lr}
 8002128:	466f      	mov	r7, sp
 800212a:	b08c      	sub	sp, #48	; 0x30
 800212c:	9002      	str	r0, [sp, #8]
 800212e:	9103      	str	r1, [sp, #12]
 8002130:	910b      	str	r1, [sp, #44]	; 0x2c
 8002132:	910a      	str	r1, [sp, #40]	; 0x28
 8002134:	990a      	ldr	r1, [sp, #40]	; 0x28
 8002136:	9100      	str	r1, [sp, #0]
 8002138:	9105      	str	r1, [sp, #20]
 800213a:	2003      	movs	r0, #3
 800213c:	f807 0c1d 	strb.w	r0, [r7, #-29]
 8002140:	f817 0c1d 	ldrb.w	r0, [r7, #-29]
 8002144:	9106      	str	r1, [sp, #24]
 8002146:	f807 0c11 	strb.w	r0, [r7, #-17]
 800214a:	f249 1130 	movw	r1, #37168	; 0x9130
 800214e:	f6c0 0100 	movt	r1, #2048	; 0x800
 8002152:	f004 f95b 	bl	800640c <_ZN50_$LT$T$u20$as$u20$core..convert..Into$LT$U$GT$$GT$4into17hd0fa2a7d0802ab5aE>
 8002156:	4602      	mov	r2, r0
 8002158:	9800      	ldr	r0, [sp, #0]
 800215a:	9008      	str	r0, [sp, #32]
 800215c:	f807 2c09 	strb.w	r2, [r7, #-9]
 8002160:	9908      	ldr	r1, [sp, #32]
 8002162:	6808      	ldr	r0, [r1, #0]
 8002164:	f020 7040 	bic.w	r0, r0, #50331648	; 0x3000000
 8002168:	f002 0203 	and.w	r2, r2, #3
 800216c:	ea40 6002 	orr.w	r0, r0, r2, lsl #24
 8002170:	6008      	str	r0, [r1, #0]
 8002172:	9808      	ldr	r0, [sp, #32]
 8002174:	b00c      	add	sp, #48	; 0x30
 8002176:	bd80      	pop	{r7, pc}

08002178 <_ZN4mem310checkpoint14initialization28_$u7b$$u7b$closure$u7d$$u7d$17hbf36a610414d6d39E>:
 8002178:	b580      	push	{r7, lr}
 800217a:	466f      	mov	r7, sp
 800217c:	b08c      	sub	sp, #48	; 0x30
 800217e:	9002      	str	r0, [sp, #8]
 8002180:	9103      	str	r1, [sp, #12]
 8002182:	9105      	str	r1, [sp, #20]
 8002184:	9104      	str	r1, [sp, #16]
 8002186:	9904      	ldr	r1, [sp, #16]
 8002188:	9100      	str	r1, [sp, #0]
 800218a:	9107      	str	r1, [sp, #28]
 800218c:	2002      	movs	r0, #2
 800218e:	f807 0c15 	strb.w	r0, [r7, #-21]
 8002192:	f817 0c15 	ldrb.w	r0, [r7, #-21]
 8002196:	9108      	str	r1, [sp, #32]
 8002198:	f807 0c09 	strb.w	r0, [r7, #-9]
 800219c:	f648 71e4 	movw	r1, #36836	; 0x8fe4
 80021a0:	f6c0 0100 	movt	r1, #2048	; 0x800
 80021a4:	f000 fe66 	bl	8002e74 <_ZN50_$LT$T$u20$as$u20$core..convert..Into$LT$U$GT$$GT$4into17h09173358117f67deE>
 80021a8:	4602      	mov	r2, r0
 80021aa:	9800      	ldr	r0, [sp, #0]
 80021ac:	900a      	str	r0, [sp, #40]	; 0x28
 80021ae:	f807 2c01 	strb.w	r2, [r7, #-1]
 80021b2:	990a      	ldr	r1, [sp, #40]	; 0x28
 80021b4:	6808      	ldr	r0, [r1, #0]
 80021b6:	f020 6040 	bic.w	r0, r0, #201326592	; 0xc000000
 80021ba:	f002 0203 	and.w	r2, r2, #3
 80021be:	ea40 6082 	orr.w	r0, r0, r2, lsl #26
 80021c2:	6008      	str	r0, [r1, #0]
 80021c4:	980a      	ldr	r0, [sp, #40]	; 0x28
 80021c6:	b00c      	add	sp, #48	; 0x30
 80021c8:	bd80      	pop	{r7, pc}

080021ca <_ZN4mem310checkpoint14initialization28_$u7b$$u7b$closure$u7d$$u7d$17h17bccc9c796fc4a5E>:
 80021ca:	b580      	push	{r7, lr}
 80021cc:	466f      	mov	r7, sp
 80021ce:	b08c      	sub	sp, #48	; 0x30
 80021d0:	9002      	str	r0, [sp, #8]
 80021d2:	9103      	str	r1, [sp, #12]
 80021d4:	9105      	str	r1, [sp, #20]
 80021d6:	9104      	str	r1, [sp, #16]
 80021d8:	9904      	ldr	r1, [sp, #16]
 80021da:	9100      	str	r1, [sp, #0]
 80021dc:	9107      	str	r1, [sp, #28]
 80021de:	200c      	movs	r0, #12
 80021e0:	f807 0c15 	strb.w	r0, [r7, #-21]
 80021e4:	f817 0c15 	ldrb.w	r0, [r7, #-21]
 80021e8:	9108      	str	r1, [sp, #32]
 80021ea:	f807 0c09 	strb.w	r0, [r7, #-9]
 80021ee:	f648 51ac 	movw	r1, #36268	; 0x8dac
 80021f2:	f6c0 0100 	movt	r1, #2048	; 0x800
 80021f6:	f7fe f8b0 	bl	800035a <_ZN50_$LT$T$u20$as$u20$core..convert..Into$LT$U$GT$$GT$4into17h71f57894845e8bf0E>
 80021fa:	4602      	mov	r2, r0
 80021fc:	9800      	ldr	r0, [sp, #0]
 80021fe:	900a      	str	r0, [sp, #40]	; 0x28
 8002200:	f807 2c01 	strb.w	r2, [r7, #-1]
 8002204:	990a      	ldr	r1, [sp, #40]	; 0x28
 8002206:	6808      	ldr	r0, [r1, #0]
 8002208:	f420 0070 	bic.w	r0, r0, #15728640	; 0xf00000
 800220c:	f002 020f 	and.w	r2, r2, #15
 8002210:	ea40 5002 	orr.w	r0, r0, r2, lsl #20
 8002214:	6008      	str	r0, [r1, #0]
 8002216:	980a      	ldr	r0, [sp, #40]	; 0x28
 8002218:	b00c      	add	sp, #48	; 0x30
 800221a:	bd80      	pop	{r7, pc}

0800221c <_ZN4mem310checkpoint14initialization28_$u7b$$u7b$closure$u7d$$u7d$17h8545db0c6c250d62E>:
 800221c:	b580      	push	{r7, lr}
 800221e:	466f      	mov	r7, sp
 8002220:	b08c      	sub	sp, #48	; 0x30
 8002222:	9002      	str	r0, [sp, #8]
 8002224:	9103      	str	r1, [sp, #12]
 8002226:	910b      	str	r1, [sp, #44]	; 0x2c
 8002228:	910a      	str	r1, [sp, #40]	; 0x28
 800222a:	990a      	ldr	r1, [sp, #40]	; 0x28
 800222c:	9100      	str	r1, [sp, #0]
 800222e:	9105      	str	r1, [sp, #20]
 8002230:	2003      	movs	r0, #3
 8002232:	f807 0c1d 	strb.w	r0, [r7, #-29]
 8002236:	f817 0c1d 	ldrb.w	r0, [r7, #-29]
 800223a:	9106      	str	r1, [sp, #24]
 800223c:	f807 0c11 	strb.w	r0, [r7, #-17]
 8002240:	f249 1140 	movw	r1, #37184	; 0x9140
 8002244:	f6c0 0100 	movt	r1, #2048	; 0x800
 8002248:	f004 f8e0 	bl	800640c <_ZN50_$LT$T$u20$as$u20$core..convert..Into$LT$U$GT$$GT$4into17hd0fa2a7d0802ab5aE>
 800224c:	4602      	mov	r2, r0
 800224e:	9800      	ldr	r0, [sp, #0]
 8002250:	9008      	str	r0, [sp, #32]
 8002252:	f807 2c09 	strb.w	r2, [r7, #-9]
 8002256:	9908      	ldr	r1, [sp, #32]
 8002258:	6808      	ldr	r0, [r1, #0]
 800225a:	f020 6040 	bic.w	r0, r0, #201326592	; 0xc000000
 800225e:	f002 0203 	and.w	r2, r2, #3
 8002262:	ea40 6082 	orr.w	r0, r0, r2, lsl #26
 8002266:	6008      	str	r0, [r1, #0]
 8002268:	9808      	ldr	r0, [sp, #32]
 800226a:	b00c      	add	sp, #48	; 0x30
 800226c:	bd80      	pop	{r7, pc}

0800226e <_ZN4mem310checkpoint14initialization28_$u7b$$u7b$closure$u7d$$u7d$17hc68858af5a93aca3E>:
 800226e:	b580      	push	{r7, lr}
 8002270:	466f      	mov	r7, sp
 8002272:	b08c      	sub	sp, #48	; 0x30
 8002274:	9002      	str	r0, [sp, #8]
 8002276:	9103      	str	r1, [sp, #12]
 8002278:	9105      	str	r1, [sp, #20]
 800227a:	9104      	str	r1, [sp, #16]
 800227c:	9904      	ldr	r1, [sp, #16]
 800227e:	9100      	str	r1, [sp, #0]
 8002280:	9107      	str	r1, [sp, #28]
 8002282:	2002      	movs	r0, #2
 8002284:	f807 0c15 	strb.w	r0, [r7, #-21]
 8002288:	f817 0c15 	ldrb.w	r0, [r7, #-21]
 800228c:	9108      	str	r1, [sp, #32]
 800228e:	f807 0c09 	strb.w	r0, [r7, #-9]
 8002292:	f648 71f4 	movw	r1, #36852	; 0x8ff4
 8002296:	f6c0 0100 	movt	r1, #2048	; 0x800
 800229a:	f000 fdeb 	bl	8002e74 <_ZN50_$LT$T$u20$as$u20$core..convert..Into$LT$U$GT$$GT$4into17h09173358117f67deE>
 800229e:	4602      	mov	r2, r0
 80022a0:	9800      	ldr	r0, [sp, #0]
 80022a2:	900a      	str	r0, [sp, #40]	; 0x28
 80022a4:	f807 2c01 	strb.w	r2, [r7, #-1]
 80022a8:	990a      	ldr	r1, [sp, #40]	; 0x28
 80022aa:	6808      	ldr	r0, [r1, #0]
 80022ac:	f020 5040 	bic.w	r0, r0, #805306368	; 0x30000000
 80022b0:	f002 0203 	and.w	r2, r2, #3
 80022b4:	ea40 7002 	orr.w	r0, r0, r2, lsl #28
 80022b8:	6008      	str	r0, [r1, #0]
 80022ba:	980a      	ldr	r0, [sp, #40]	; 0x28
 80022bc:	b00c      	add	sp, #48	; 0x30
 80022be:	bd80      	pop	{r7, pc}

080022c0 <_ZN4mem310checkpoint14initialization28_$u7b$$u7b$closure$u7d$$u7d$17hb1a05370965cef9aE>:
 80022c0:	b580      	push	{r7, lr}
 80022c2:	466f      	mov	r7, sp
 80022c4:	b08c      	sub	sp, #48	; 0x30
 80022c6:	9002      	str	r0, [sp, #8]
 80022c8:	9103      	str	r1, [sp, #12]
 80022ca:	9105      	str	r1, [sp, #20]
 80022cc:	9104      	str	r1, [sp, #16]
 80022ce:	9904      	ldr	r1, [sp, #16]
 80022d0:	9100      	str	r1, [sp, #0]
 80022d2:	9107      	str	r1, [sp, #28]
 80022d4:	200c      	movs	r0, #12
 80022d6:	f807 0c15 	strb.w	r0, [r7, #-21]
 80022da:	f817 0c15 	ldrb.w	r0, [r7, #-21]
 80022de:	9108      	str	r1, [sp, #32]
 80022e0:	f807 0c09 	strb.w	r0, [r7, #-9]
 80022e4:	f648 51bc 	movw	r1, #36284	; 0x8dbc
 80022e8:	f6c0 0100 	movt	r1, #2048	; 0x800
 80022ec:	f7fe f835 	bl	800035a <_ZN50_$LT$T$u20$as$u20$core..convert..Into$LT$U$GT$$GT$4into17h71f57894845e8bf0E>
 80022f0:	4602      	mov	r2, r0
 80022f2:	9800      	ldr	r0, [sp, #0]
 80022f4:	900a      	str	r0, [sp, #40]	; 0x28
 80022f6:	f807 2c01 	strb.w	r2, [r7, #-1]
 80022fa:	990a      	ldr	r1, [sp, #40]	; 0x28
 80022fc:	6808      	ldr	r0, [r1, #0]
 80022fe:	f020 6070 	bic.w	r0, r0, #251658240	; 0xf000000
 8002302:	f002 020f 	and.w	r2, r2, #15
 8002306:	ea40 6002 	orr.w	r0, r0, r2, lsl #24
 800230a:	6008      	str	r0, [r1, #0]
 800230c:	980a      	ldr	r0, [sp, #40]	; 0x28
 800230e:	b00c      	add	sp, #48	; 0x30
 8002310:	bd80      	pop	{r7, pc}

08002312 <_ZN4mem310checkpoint14initialization28_$u7b$$u7b$closure$u7d$$u7d$17h937b7e0b07e5804eE>:
 8002312:	b580      	push	{r7, lr}
 8002314:	466f      	mov	r7, sp
 8002316:	b08c      	sub	sp, #48	; 0x30
 8002318:	9002      	str	r0, [sp, #8]
 800231a:	9103      	str	r1, [sp, #12]
 800231c:	910b      	str	r1, [sp, #44]	; 0x2c
 800231e:	910a      	str	r1, [sp, #40]	; 0x28
 8002320:	990a      	ldr	r1, [sp, #40]	; 0x28
 8002322:	9100      	str	r1, [sp, #0]
 8002324:	9105      	str	r1, [sp, #20]
 8002326:	2003      	movs	r0, #3
 8002328:	f807 0c1d 	strb.w	r0, [r7, #-29]
 800232c:	f817 0c1d 	ldrb.w	r0, [r7, #-29]
 8002330:	9106      	str	r1, [sp, #24]
 8002332:	f807 0c11 	strb.w	r0, [r7, #-17]
 8002336:	f249 1150 	movw	r1, #37200	; 0x9150
 800233a:	f6c0 0100 	movt	r1, #2048	; 0x800
 800233e:	f004 f865 	bl	800640c <_ZN50_$LT$T$u20$as$u20$core..convert..Into$LT$U$GT$$GT$4into17hd0fa2a7d0802ab5aE>
 8002342:	4602      	mov	r2, r0
 8002344:	9800      	ldr	r0, [sp, #0]
 8002346:	9008      	str	r0, [sp, #32]
 8002348:	f807 2c09 	strb.w	r2, [r7, #-9]
 800234c:	9908      	ldr	r1, [sp, #32]
 800234e:	6808      	ldr	r0, [r1, #0]
 8002350:	f020 5040 	bic.w	r0, r0, #805306368	; 0x30000000
 8002354:	f002 0203 	and.w	r2, r2, #3
 8002358:	ea40 7002 	orr.w	r0, r0, r2, lsl #28
 800235c:	6008      	str	r0, [r1, #0]
 800235e:	9808      	ldr	r0, [sp, #32]
 8002360:	b00c      	add	sp, #48	; 0x30
 8002362:	bd80      	pop	{r7, pc}

08002364 <_ZN4mem310checkpoint14initialization28_$u7b$$u7b$closure$u7d$$u7d$17h86650e8f1ba57bacE>:
 8002364:	b580      	push	{r7, lr}
 8002366:	466f      	mov	r7, sp
 8002368:	b08c      	sub	sp, #48	; 0x30
 800236a:	9002      	str	r0, [sp, #8]
 800236c:	9103      	str	r1, [sp, #12]
 800236e:	9105      	str	r1, [sp, #20]
 8002370:	9104      	str	r1, [sp, #16]
 8002372:	9904      	ldr	r1, [sp, #16]
 8002374:	9100      	str	r1, [sp, #0]
 8002376:	9107      	str	r1, [sp, #28]
 8002378:	2002      	movs	r0, #2
 800237a:	f807 0c15 	strb.w	r0, [r7, #-21]
 800237e:	f817 0c15 	ldrb.w	r0, [r7, #-21]
 8002382:	9108      	str	r1, [sp, #32]
 8002384:	f807 0c09 	strb.w	r0, [r7, #-9]
 8002388:	f249 0104 	movw	r1, #36868	; 0x9004
 800238c:	f6c0 0100 	movt	r1, #2048	; 0x800
 8002390:	f000 fd70 	bl	8002e74 <_ZN50_$LT$T$u20$as$u20$core..convert..Into$LT$U$GT$$GT$4into17h09173358117f67deE>
 8002394:	4602      	mov	r2, r0
 8002396:	9800      	ldr	r0, [sp, #0]
 8002398:	900a      	str	r0, [sp, #40]	; 0x28
 800239a:	f807 2c01 	strb.w	r2, [r7, #-1]
 800239e:	990a      	ldr	r1, [sp, #40]	; 0x28
 80023a0:	6808      	ldr	r0, [r1, #0]
 80023a2:	f020 4040 	bic.w	r0, r0, #3221225472	; 0xc0000000
 80023a6:	ea40 7082 	orr.w	r0, r0, r2, lsl #30
 80023aa:	6008      	str	r0, [r1, #0]
 80023ac:	980a      	ldr	r0, [sp, #40]	; 0x28
 80023ae:	b00c      	add	sp, #48	; 0x30
 80023b0:	bd80      	pop	{r7, pc}

080023b2 <_ZN4mem310checkpoint14initialization28_$u7b$$u7b$closure$u7d$$u7d$17h0e3ccc06a9cc0236E>:
 80023b2:	b580      	push	{r7, lr}
 80023b4:	466f      	mov	r7, sp
 80023b6:	b08c      	sub	sp, #48	; 0x30
 80023b8:	9002      	str	r0, [sp, #8]
 80023ba:	9103      	str	r1, [sp, #12]
 80023bc:	9105      	str	r1, [sp, #20]
 80023be:	9104      	str	r1, [sp, #16]
 80023c0:	9904      	ldr	r1, [sp, #16]
 80023c2:	9100      	str	r1, [sp, #0]
 80023c4:	9107      	str	r1, [sp, #28]
 80023c6:	200c      	movs	r0, #12
 80023c8:	f807 0c15 	strb.w	r0, [r7, #-21]
 80023cc:	f817 0c15 	ldrb.w	r0, [r7, #-21]
 80023d0:	9108      	str	r1, [sp, #32]
 80023d2:	f807 0c09 	strb.w	r0, [r7, #-9]
 80023d6:	f648 51cc 	movw	r1, #36300	; 0x8dcc
 80023da:	f6c0 0100 	movt	r1, #2048	; 0x800
 80023de:	f7fd ffbc 	bl	800035a <_ZN50_$LT$T$u20$as$u20$core..convert..Into$LT$U$GT$$GT$4into17h71f57894845e8bf0E>
 80023e2:	4602      	mov	r2, r0
 80023e4:	9800      	ldr	r0, [sp, #0]
 80023e6:	900a      	str	r0, [sp, #40]	; 0x28
 80023e8:	f807 2c01 	strb.w	r2, [r7, #-1]
 80023ec:	990a      	ldr	r1, [sp, #40]	; 0x28
 80023ee:	6808      	ldr	r0, [r1, #0]
 80023f0:	f020 4070 	bic.w	r0, r0, #4026531840	; 0xf0000000
 80023f4:	ea40 7002 	orr.w	r0, r0, r2, lsl #28
 80023f8:	6008      	str	r0, [r1, #0]
 80023fa:	980a      	ldr	r0, [sp, #40]	; 0x28
 80023fc:	b00c      	add	sp, #48	; 0x30
 80023fe:	bd80      	pop	{r7, pc}

08002400 <_ZN4mem310checkpoint14initialization28_$u7b$$u7b$closure$u7d$$u7d$17h905285af514a152bE>:
 8002400:	b580      	push	{r7, lr}
 8002402:	466f      	mov	r7, sp
 8002404:	b08c      	sub	sp, #48	; 0x30
 8002406:	9002      	str	r0, [sp, #8]
 8002408:	9103      	str	r1, [sp, #12]
 800240a:	910b      	str	r1, [sp, #44]	; 0x2c
 800240c:	910a      	str	r1, [sp, #40]	; 0x28
 800240e:	990a      	ldr	r1, [sp, #40]	; 0x28
 8002410:	9100      	str	r1, [sp, #0]
 8002412:	9105      	str	r1, [sp, #20]
 8002414:	2003      	movs	r0, #3
 8002416:	f807 0c1d 	strb.w	r0, [r7, #-29]
 800241a:	f817 0c1d 	ldrb.w	r0, [r7, #-29]
 800241e:	9106      	str	r1, [sp, #24]
 8002420:	f807 0c11 	strb.w	r0, [r7, #-17]
 8002424:	f249 1160 	movw	r1, #37216	; 0x9160
 8002428:	f6c0 0100 	movt	r1, #2048	; 0x800
 800242c:	f003 ffee 	bl	800640c <_ZN50_$LT$T$u20$as$u20$core..convert..Into$LT$U$GT$$GT$4into17hd0fa2a7d0802ab5aE>
 8002430:	4602      	mov	r2, r0
 8002432:	9800      	ldr	r0, [sp, #0]
 8002434:	9008      	str	r0, [sp, #32]
 8002436:	f807 2c09 	strb.w	r2, [r7, #-9]
 800243a:	9908      	ldr	r1, [sp, #32]
 800243c:	6808      	ldr	r0, [r1, #0]
 800243e:	f020 4040 	bic.w	r0, r0, #3221225472	; 0xc0000000
 8002442:	ea40 7082 	orr.w	r0, r0, r2, lsl #30
 8002446:	6008      	str	r0, [r1, #0]
 8002448:	9808      	ldr	r0, [sp, #32]
 800244a:	b00c      	add	sp, #48	; 0x30
 800244c:	bd80      	pop	{r7, pc}

0800244e <_ZN4mem310checkpoint14initialization28_$u7b$$u7b$closure$u7d$$u7d$17h7b350c61edb017afE>:
 800244e:	b580      	push	{r7, lr}
 8002450:	466f      	mov	r7, sp
 8002452:	b08c      	sub	sp, #48	; 0x30
 8002454:	9002      	str	r0, [sp, #8]
 8002456:	9103      	str	r1, [sp, #12]
 8002458:	9105      	str	r1, [sp, #20]
 800245a:	9104      	str	r1, [sp, #16]
 800245c:	9904      	ldr	r1, [sp, #16]
 800245e:	9100      	str	r1, [sp, #0]
 8002460:	9107      	str	r1, [sp, #28]
 8002462:	2002      	movs	r0, #2
 8002464:	f807 0c15 	strb.w	r0, [r7, #-21]
 8002468:	f817 0c15 	ldrb.w	r0, [r7, #-21]
 800246c:	9108      	str	r1, [sp, #32]
 800246e:	f807 0c09 	strb.w	r0, [r7, #-9]
 8002472:	f648 7194 	movw	r1, #36756	; 0x8f94
 8002476:	f6c0 0100 	movt	r1, #2048	; 0x800
 800247a:	f000 fcfb 	bl	8002e74 <_ZN50_$LT$T$u20$as$u20$core..convert..Into$LT$U$GT$$GT$4into17h09173358117f67deE>
 800247e:	4602      	mov	r2, r0
 8002480:	9800      	ldr	r0, [sp, #0]
 8002482:	900a      	str	r0, [sp, #40]	; 0x28
 8002484:	f807 2c01 	strb.w	r2, [r7, #-1]
 8002488:	990a      	ldr	r1, [sp, #40]	; 0x28
 800248a:	6808      	ldr	r0, [r1, #0]
 800248c:	f420 3040 	bic.w	r0, r0, #196608	; 0x30000
 8002490:	f002 0203 	and.w	r2, r2, #3
 8002494:	ea40 4002 	orr.w	r0, r0, r2, lsl #16
 8002498:	6008      	str	r0, [r1, #0]
 800249a:	980a      	ldr	r0, [sp, #40]	; 0x28
 800249c:	b00c      	add	sp, #48	; 0x30
 800249e:	bd80      	pop	{r7, pc}

080024a0 <_ZN4mem310checkpoint14initialization28_$u7b$$u7b$closure$u7d$$u7d$17h6a7a071b8252c718E>:
 80024a0:	b580      	push	{r7, lr}
 80024a2:	466f      	mov	r7, sp
 80024a4:	b08c      	sub	sp, #48	; 0x30
 80024a6:	9002      	str	r0, [sp, #8]
 80024a8:	9103      	str	r1, [sp, #12]
 80024aa:	9105      	str	r1, [sp, #20]
 80024ac:	9104      	str	r1, [sp, #16]
 80024ae:	9904      	ldr	r1, [sp, #16]
 80024b0:	9100      	str	r1, [sp, #0]
 80024b2:	9107      	str	r1, [sp, #28]
 80024b4:	200c      	movs	r0, #12
 80024b6:	f807 0c15 	strb.w	r0, [r7, #-21]
 80024ba:	f817 0c15 	ldrb.w	r0, [r7, #-21]
 80024be:	9108      	str	r1, [sp, #32]
 80024c0:	f807 0c09 	strb.w	r0, [r7, #-9]
 80024c4:	f648 515c 	movw	r1, #36188	; 0x8d5c
 80024c8:	f6c0 0100 	movt	r1, #2048	; 0x800
 80024cc:	f7fd ff45 	bl	800035a <_ZN50_$LT$T$u20$as$u20$core..convert..Into$LT$U$GT$$GT$4into17h71f57894845e8bf0E>
 80024d0:	4602      	mov	r2, r0
 80024d2:	9800      	ldr	r0, [sp, #0]
 80024d4:	900a      	str	r0, [sp, #40]	; 0x28
 80024d6:	f807 2c01 	strb.w	r2, [r7, #-1]
 80024da:	990a      	ldr	r1, [sp, #40]	; 0x28
 80024dc:	6808      	ldr	r0, [r1, #0]
 80024de:	f362 0003 	bfi	r0, r2, #0, #4
 80024e2:	6008      	str	r0, [r1, #0]
 80024e4:	980a      	ldr	r0, [sp, #40]	; 0x28
 80024e6:	b00c      	add	sp, #48	; 0x30
 80024e8:	bd80      	pop	{r7, pc}

080024ea <_ZN4mem310checkpoint14initialization28_$u7b$$u7b$closure$u7d$$u7d$17hda2407c87ecdc79eE>:
 80024ea:	b580      	push	{r7, lr}
 80024ec:	466f      	mov	r7, sp
 80024ee:	b08c      	sub	sp, #48	; 0x30
 80024f0:	9002      	str	r0, [sp, #8]
 80024f2:	9103      	str	r1, [sp, #12]
 80024f4:	910b      	str	r1, [sp, #44]	; 0x2c
 80024f6:	910a      	str	r1, [sp, #40]	; 0x28
 80024f8:	990a      	ldr	r1, [sp, #40]	; 0x28
 80024fa:	9100      	str	r1, [sp, #0]
 80024fc:	9105      	str	r1, [sp, #20]
 80024fe:	2003      	movs	r0, #3
 8002500:	f807 0c1d 	strb.w	r0, [r7, #-29]
 8002504:	f817 0c1d 	ldrb.w	r0, [r7, #-29]
 8002508:	9106      	str	r1, [sp, #24]
 800250a:	f807 0c11 	strb.w	r0, [r7, #-17]
 800250e:	f249 01f0 	movw	r1, #37104	; 0x90f0
 8002512:	f6c0 0100 	movt	r1, #2048	; 0x800
 8002516:	f003 ff79 	bl	800640c <_ZN50_$LT$T$u20$as$u20$core..convert..Into$LT$U$GT$$GT$4into17hd0fa2a7d0802ab5aE>
 800251a:	4602      	mov	r2, r0
 800251c:	9800      	ldr	r0, [sp, #0]
 800251e:	9008      	str	r0, [sp, #32]
 8002520:	f807 2c09 	strb.w	r2, [r7, #-9]
 8002524:	9908      	ldr	r1, [sp, #32]
 8002526:	6808      	ldr	r0, [r1, #0]
 8002528:	f420 3040 	bic.w	r0, r0, #196608	; 0x30000
 800252c:	f002 0203 	and.w	r2, r2, #3
 8002530:	ea40 4002 	orr.w	r0, r0, r2, lsl #16
 8002534:	6008      	str	r0, [r1, #0]
 8002536:	9808      	ldr	r0, [sp, #32]
 8002538:	b00c      	add	sp, #48	; 0x30
 800253a:	bd80      	pop	{r7, pc}

0800253c <_ZN4mem310checkpoint14initialization28_$u7b$$u7b$closure$u7d$$u7d$17hf05a53c2d0268b51E>:
 800253c:	b580      	push	{r7, lr}
 800253e:	466f      	mov	r7, sp
 8002540:	b08c      	sub	sp, #48	; 0x30
 8002542:	9002      	str	r0, [sp, #8]
 8002544:	9103      	str	r1, [sp, #12]
 8002546:	9105      	str	r1, [sp, #20]
 8002548:	9104      	str	r1, [sp, #16]
 800254a:	9904      	ldr	r1, [sp, #16]
 800254c:	9100      	str	r1, [sp, #0]
 800254e:	9107      	str	r1, [sp, #28]
 8002550:	2002      	movs	r0, #2
 8002552:	f807 0c15 	strb.w	r0, [r7, #-21]
 8002556:	f817 0c15 	ldrb.w	r0, [r7, #-21]
 800255a:	9108      	str	r1, [sp, #32]
 800255c:	f807 0c09 	strb.w	r0, [r7, #-9]
 8002560:	f648 71a4 	movw	r1, #36772	; 0x8fa4
 8002564:	f6c0 0100 	movt	r1, #2048	; 0x800
 8002568:	f000 fc84 	bl	8002e74 <_ZN50_$LT$T$u20$as$u20$core..convert..Into$LT$U$GT$$GT$4into17h09173358117f67deE>
 800256c:	4602      	mov	r2, r0
 800256e:	9800      	ldr	r0, [sp, #0]
 8002570:	900a      	str	r0, [sp, #40]	; 0x28
 8002572:	f807 2c01 	strb.w	r2, [r7, #-1]
 8002576:	990a      	ldr	r1, [sp, #40]	; 0x28
 8002578:	6808      	ldr	r0, [r1, #0]
 800257a:	f420 2040 	bic.w	r0, r0, #786432	; 0xc0000
 800257e:	f002 0203 	and.w	r2, r2, #3
 8002582:	ea40 4082 	orr.w	r0, r0, r2, lsl #18
 8002586:	6008      	str	r0, [r1, #0]
 8002588:	980a      	ldr	r0, [sp, #40]	; 0x28
 800258a:	b00c      	add	sp, #48	; 0x30
 800258c:	bd80      	pop	{r7, pc}

0800258e <_ZN4mem310checkpoint14initialization28_$u7b$$u7b$closure$u7d$$u7d$17h3c20c09523877994E>:
 800258e:	b580      	push	{r7, lr}
 8002590:	466f      	mov	r7, sp
 8002592:	b08c      	sub	sp, #48	; 0x30
 8002594:	9002      	str	r0, [sp, #8]
 8002596:	9103      	str	r1, [sp, #12]
 8002598:	9105      	str	r1, [sp, #20]
 800259a:	9104      	str	r1, [sp, #16]
 800259c:	9904      	ldr	r1, [sp, #16]
 800259e:	9100      	str	r1, [sp, #0]
 80025a0:	9107      	str	r1, [sp, #28]
 80025a2:	200c      	movs	r0, #12
 80025a4:	f807 0c15 	strb.w	r0, [r7, #-21]
 80025a8:	f817 0c15 	ldrb.w	r0, [r7, #-21]
 80025ac:	9108      	str	r1, [sp, #32]
 80025ae:	f807 0c09 	strb.w	r0, [r7, #-9]
 80025b2:	f648 516c 	movw	r1, #36204	; 0x8d6c
 80025b6:	f6c0 0100 	movt	r1, #2048	; 0x800
 80025ba:	f7fd fece 	bl	800035a <_ZN50_$LT$T$u20$as$u20$core..convert..Into$LT$U$GT$$GT$4into17h71f57894845e8bf0E>
 80025be:	4602      	mov	r2, r0
 80025c0:	9800      	ldr	r0, [sp, #0]
 80025c2:	900a      	str	r0, [sp, #40]	; 0x28
 80025c4:	f807 2c01 	strb.w	r2, [r7, #-1]
 80025c8:	990a      	ldr	r1, [sp, #40]	; 0x28
 80025ca:	6808      	ldr	r0, [r1, #0]
 80025cc:	f020 00f0 	bic.w	r0, r0, #240	; 0xf0
 80025d0:	f002 020f 	and.w	r2, r2, #15
 80025d4:	ea40 1002 	orr.w	r0, r0, r2, lsl #4
 80025d8:	6008      	str	r0, [r1, #0]
 80025da:	980a      	ldr	r0, [sp, #40]	; 0x28
 80025dc:	b00c      	add	sp, #48	; 0x30
 80025de:	bd80      	pop	{r7, pc}

080025e0 <_ZN4mem310checkpoint14initialization28_$u7b$$u7b$closure$u7d$$u7d$17hb8c9ee77fc8b3b66E>:
 80025e0:	b580      	push	{r7, lr}
 80025e2:	466f      	mov	r7, sp
 80025e4:	b08c      	sub	sp, #48	; 0x30
 80025e6:	9002      	str	r0, [sp, #8]
 80025e8:	9103      	str	r1, [sp, #12]
 80025ea:	910b      	str	r1, [sp, #44]	; 0x2c
 80025ec:	910a      	str	r1, [sp, #40]	; 0x28
 80025ee:	990a      	ldr	r1, [sp, #40]	; 0x28
 80025f0:	9100      	str	r1, [sp, #0]
 80025f2:	9105      	str	r1, [sp, #20]
 80025f4:	2003      	movs	r0, #3
 80025f6:	f807 0c1d 	strb.w	r0, [r7, #-29]
 80025fa:	f817 0c1d 	ldrb.w	r0, [r7, #-29]
 80025fe:	9106      	str	r1, [sp, #24]
 8002600:	f807 0c11 	strb.w	r0, [r7, #-17]
 8002604:	f249 1100 	movw	r1, #37120	; 0x9100
 8002608:	f6c0 0100 	movt	r1, #2048	; 0x800
 800260c:	f003 fefe 	bl	800640c <_ZN50_$LT$T$u20$as$u20$core..convert..Into$LT$U$GT$$GT$4into17hd0fa2a7d0802ab5aE>
 8002610:	4602      	mov	r2, r0
 8002612:	9800      	ldr	r0, [sp, #0]
 8002614:	9008      	str	r0, [sp, #32]
 8002616:	f807 2c09 	strb.w	r2, [r7, #-9]
 800261a:	9908      	ldr	r1, [sp, #32]
 800261c:	6808      	ldr	r0, [r1, #0]
 800261e:	f420 2040 	bic.w	r0, r0, #786432	; 0xc0000
 8002622:	f002 0203 	and.w	r2, r2, #3
 8002626:	ea40 4082 	orr.w	r0, r0, r2, lsl #18
 800262a:	6008      	str	r0, [r1, #0]
 800262c:	9808      	ldr	r0, [sp, #32]
 800262e:	b00c      	add	sp, #48	; 0x30
 8002630:	bd80      	pop	{r7, pc}

08002632 <_ZN4mem310checkpoint14initialization28_$u7b$$u7b$closure$u7d$$u7d$17h8648f24e85d6b8fcE>:
 8002632:	b580      	push	{r7, lr}
 8002634:	466f      	mov	r7, sp
 8002636:	b08c      	sub	sp, #48	; 0x30
 8002638:	9002      	str	r0, [sp, #8]
 800263a:	9103      	str	r1, [sp, #12]
 800263c:	9105      	str	r1, [sp, #20]
 800263e:	9104      	str	r1, [sp, #16]
 8002640:	9904      	ldr	r1, [sp, #16]
 8002642:	9100      	str	r1, [sp, #0]
 8002644:	9107      	str	r1, [sp, #28]
 8002646:	2002      	movs	r0, #2
 8002648:	f807 0c15 	strb.w	r0, [r7, #-21]
 800264c:	f817 0c15 	ldrb.w	r0, [r7, #-21]
 8002650:	9108      	str	r1, [sp, #32]
 8002652:	f807 0c09 	strb.w	r0, [r7, #-9]
 8002656:	f648 71b4 	movw	r1, #36788	; 0x8fb4
 800265a:	f6c0 0100 	movt	r1, #2048	; 0x800
 800265e:	f000 fc09 	bl	8002e74 <_ZN50_$LT$T$u20$as$u20$core..convert..Into$LT$U$GT$$GT$4into17h09173358117f67deE>
 8002662:	4602      	mov	r2, r0
 8002664:	9800      	ldr	r0, [sp, #0]
 8002666:	900a      	str	r0, [sp, #40]	; 0x28
 8002668:	f807 2c01 	strb.w	r2, [r7, #-1]
 800266c:	990a      	ldr	r1, [sp, #40]	; 0x28
 800266e:	6808      	ldr	r0, [r1, #0]
 8002670:	f420 1040 	bic.w	r0, r0, #3145728	; 0x300000
 8002674:	f002 0203 	and.w	r2, r2, #3
 8002678:	ea40 5002 	orr.w	r0, r0, r2, lsl #20
 800267c:	6008      	str	r0, [r1, #0]
 800267e:	980a      	ldr	r0, [sp, #40]	; 0x28
 8002680:	b00c      	add	sp, #48	; 0x30
 8002682:	bd80      	pop	{r7, pc}

08002684 <_ZN4mem310checkpoint14initialization28_$u7b$$u7b$closure$u7d$$u7d$17hf02cc16302011b8fE>:
 8002684:	b580      	push	{r7, lr}
 8002686:	466f      	mov	r7, sp
 8002688:	b08c      	sub	sp, #48	; 0x30
 800268a:	9002      	str	r0, [sp, #8]
 800268c:	9103      	str	r1, [sp, #12]
 800268e:	9105      	str	r1, [sp, #20]
 8002690:	9104      	str	r1, [sp, #16]
 8002692:	9904      	ldr	r1, [sp, #16]
 8002694:	9100      	str	r1, [sp, #0]
 8002696:	9107      	str	r1, [sp, #28]
 8002698:	200c      	movs	r0, #12
 800269a:	f807 0c15 	strb.w	r0, [r7, #-21]
 800269e:	f817 0c15 	ldrb.w	r0, [r7, #-21]
 80026a2:	9108      	str	r1, [sp, #32]
 80026a4:	f807 0c09 	strb.w	r0, [r7, #-9]
 80026a8:	f648 517c 	movw	r1, #36220	; 0x8d7c
 80026ac:	f6c0 0100 	movt	r1, #2048	; 0x800
 80026b0:	f7fd fe53 	bl	800035a <_ZN50_$LT$T$u20$as$u20$core..convert..Into$LT$U$GT$$GT$4into17h71f57894845e8bf0E>
 80026b4:	4602      	mov	r2, r0
 80026b6:	9800      	ldr	r0, [sp, #0]
 80026b8:	900a      	str	r0, [sp, #40]	; 0x28
 80026ba:	f807 2c01 	strb.w	r2, [r7, #-1]
 80026be:	990a      	ldr	r1, [sp, #40]	; 0x28
 80026c0:	6808      	ldr	r0, [r1, #0]
 80026c2:	f420 6070 	bic.w	r0, r0, #3840	; 0xf00
 80026c6:	f002 020f 	and.w	r2, r2, #15
 80026ca:	ea40 2002 	orr.w	r0, r0, r2, lsl #8
 80026ce:	6008      	str	r0, [r1, #0]
 80026d0:	980a      	ldr	r0, [sp, #40]	; 0x28
 80026d2:	b00c      	add	sp, #48	; 0x30
 80026d4:	bd80      	pop	{r7, pc}

080026d6 <_ZN4mem310checkpoint14initialization28_$u7b$$u7b$closure$u7d$$u7d$17he21f9074289f3466E>:
 80026d6:	b580      	push	{r7, lr}
 80026d8:	466f      	mov	r7, sp
 80026da:	b08c      	sub	sp, #48	; 0x30
 80026dc:	9002      	str	r0, [sp, #8]
 80026de:	9103      	str	r1, [sp, #12]
 80026e0:	910b      	str	r1, [sp, #44]	; 0x2c
 80026e2:	910a      	str	r1, [sp, #40]	; 0x28
 80026e4:	990a      	ldr	r1, [sp, #40]	; 0x28
 80026e6:	9100      	str	r1, [sp, #0]
 80026e8:	9105      	str	r1, [sp, #20]
 80026ea:	2003      	movs	r0, #3
 80026ec:	f807 0c1d 	strb.w	r0, [r7, #-29]
 80026f0:	f817 0c1d 	ldrb.w	r0, [r7, #-29]
 80026f4:	9106      	str	r1, [sp, #24]
 80026f6:	f807 0c11 	strb.w	r0, [r7, #-17]
 80026fa:	f249 1110 	movw	r1, #37136	; 0x9110
 80026fe:	f6c0 0100 	movt	r1, #2048	; 0x800
 8002702:	f003 fe83 	bl	800640c <_ZN50_$LT$T$u20$as$u20$core..convert..Into$LT$U$GT$$GT$4into17hd0fa2a7d0802ab5aE>
 8002706:	4602      	mov	r2, r0
 8002708:	9800      	ldr	r0, [sp, #0]
 800270a:	9008      	str	r0, [sp, #32]
 800270c:	f807 2c09 	strb.w	r2, [r7, #-9]
 8002710:	9908      	ldr	r1, [sp, #32]
 8002712:	6808      	ldr	r0, [r1, #0]
 8002714:	f420 1040 	bic.w	r0, r0, #3145728	; 0x300000
 8002718:	f002 0203 	and.w	r2, r2, #3
 800271c:	ea40 5002 	orr.w	r0, r0, r2, lsl #20
 8002720:	6008      	str	r0, [r1, #0]
 8002722:	9808      	ldr	r0, [sp, #32]
 8002724:	b00c      	add	sp, #48	; 0x30
 8002726:	bd80      	pop	{r7, pc}

08002728 <_ZN4mem310checkpoint14initialization28_$u7b$$u7b$closure$u7d$$u7d$17h44ab9af3abf8bb56E>:
 8002728:	b580      	push	{r7, lr}
 800272a:	466f      	mov	r7, sp
 800272c:	b08c      	sub	sp, #48	; 0x30
 800272e:	9002      	str	r0, [sp, #8]
 8002730:	9103      	str	r1, [sp, #12]
 8002732:	9105      	str	r1, [sp, #20]
 8002734:	9104      	str	r1, [sp, #16]
 8002736:	9904      	ldr	r1, [sp, #16]
 8002738:	9100      	str	r1, [sp, #0]
 800273a:	9107      	str	r1, [sp, #28]
 800273c:	2002      	movs	r0, #2
 800273e:	f807 0c15 	strb.w	r0, [r7, #-21]
 8002742:	f817 0c15 	ldrb.w	r0, [r7, #-21]
 8002746:	9108      	str	r1, [sp, #32]
 8002748:	f807 0c09 	strb.w	r0, [r7, #-9]
 800274c:	f648 7184 	movw	r1, #36740	; 0x8f84
 8002750:	f6c0 0100 	movt	r1, #2048	; 0x800
 8002754:	f000 fb8e 	bl	8002e74 <_ZN50_$LT$T$u20$as$u20$core..convert..Into$LT$U$GT$$GT$4into17h09173358117f67deE>
 8002758:	4602      	mov	r2, r0
 800275a:	9800      	ldr	r0, [sp, #0]
 800275c:	900a      	str	r0, [sp, #40]	; 0x28
 800275e:	f807 2c01 	strb.w	r2, [r7, #-1]
 8002762:	990a      	ldr	r1, [sp, #40]	; 0x28
 8002764:	6808      	ldr	r0, [r1, #0]
 8002766:	f420 4040 	bic.w	r0, r0, #49152	; 0xc000
 800276a:	f002 0203 	and.w	r2, r2, #3
 800276e:	ea40 3082 	orr.w	r0, r0, r2, lsl #14
 8002772:	6008      	str	r0, [r1, #0]
 8002774:	980a      	ldr	r0, [sp, #40]	; 0x28
 8002776:	b00c      	add	sp, #48	; 0x30
 8002778:	bd80      	pop	{r7, pc}

0800277a <_ZN4mem310checkpoint14initialization28_$u7b$$u7b$closure$u7d$$u7d$17h12d82e622c2f7334E>:
 800277a:	b580      	push	{r7, lr}
 800277c:	466f      	mov	r7, sp
 800277e:	b08c      	sub	sp, #48	; 0x30
 8002780:	9002      	str	r0, [sp, #8]
 8002782:	9103      	str	r1, [sp, #12]
 8002784:	9105      	str	r1, [sp, #20]
 8002786:	9104      	str	r1, [sp, #16]
 8002788:	9904      	ldr	r1, [sp, #16]
 800278a:	9100      	str	r1, [sp, #0]
 800278c:	9107      	str	r1, [sp, #28]
 800278e:	200c      	movs	r0, #12
 8002790:	f807 0c15 	strb.w	r0, [r7, #-21]
 8002794:	f817 0c15 	ldrb.w	r0, [r7, #-21]
 8002798:	9108      	str	r1, [sp, #32]
 800279a:	f807 0c09 	strb.w	r0, [r7, #-9]
 800279e:	f648 61a8 	movw	r1, #36520	; 0x8ea8
 80027a2:	f6c0 0100 	movt	r1, #2048	; 0x800
 80027a6:	f000 faa2 	bl	8002cee <_ZN50_$LT$T$u20$as$u20$core..convert..Into$LT$U$GT$$GT$4into17he9c5b7d8674cbccbE>
 80027aa:	4602      	mov	r2, r0
 80027ac:	9800      	ldr	r0, [sp, #0]
 80027ae:	900a      	str	r0, [sp, #40]	; 0x28
 80027b0:	f807 2c01 	strb.w	r2, [r7, #-1]
 80027b4:	990a      	ldr	r1, [sp, #40]	; 0x28
 80027b6:	6808      	ldr	r0, [r1, #0]
 80027b8:	f020 4070 	bic.w	r0, r0, #4026531840	; 0xf0000000
 80027bc:	ea40 7002 	orr.w	r0, r0, r2, lsl #28
 80027c0:	6008      	str	r0, [r1, #0]
 80027c2:	980a      	ldr	r0, [sp, #40]	; 0x28
 80027c4:	b00c      	add	sp, #48	; 0x30
 80027c6:	bd80      	pop	{r7, pc}

080027c8 <_ZN4mem310checkpoint14initialization28_$u7b$$u7b$closure$u7d$$u7d$17h73118fbcfe29b49fE>:
 80027c8:	b580      	push	{r7, lr}
 80027ca:	466f      	mov	r7, sp
 80027cc:	b08c      	sub	sp, #48	; 0x30
 80027ce:	9002      	str	r0, [sp, #8]
 80027d0:	9103      	str	r1, [sp, #12]
 80027d2:	910b      	str	r1, [sp, #44]	; 0x2c
 80027d4:	910a      	str	r1, [sp, #40]	; 0x28
 80027d6:	990a      	ldr	r1, [sp, #40]	; 0x28
 80027d8:	9100      	str	r1, [sp, #0]
 80027da:	9105      	str	r1, [sp, #20]
 80027dc:	2003      	movs	r0, #3
 80027de:	f807 0c1d 	strb.w	r0, [r7, #-29]
 80027e2:	f817 0c1d 	ldrb.w	r0, [r7, #-29]
 80027e6:	9106      	str	r1, [sp, #24]
 80027e8:	f807 0c11 	strb.w	r0, [r7, #-17]
 80027ec:	f249 01e0 	movw	r1, #37088	; 0x90e0
 80027f0:	f6c0 0100 	movt	r1, #2048	; 0x800
 80027f4:	f003 fe0a 	bl	800640c <_ZN50_$LT$T$u20$as$u20$core..convert..Into$LT$U$GT$$GT$4into17hd0fa2a7d0802ab5aE>
 80027f8:	4602      	mov	r2, r0
 80027fa:	9800      	ldr	r0, [sp, #0]
 80027fc:	9008      	str	r0, [sp, #32]
 80027fe:	f807 2c09 	strb.w	r2, [r7, #-9]
 8002802:	9908      	ldr	r1, [sp, #32]
 8002804:	6808      	ldr	r0, [r1, #0]
 8002806:	f420 4040 	bic.w	r0, r0, #49152	; 0xc000
 800280a:	f002 0203 	and.w	r2, r2, #3
 800280e:	ea40 3082 	orr.w	r0, r0, r2, lsl #14
 8002812:	6008      	str	r0, [r1, #0]
 8002814:	9808      	ldr	r0, [sp, #32]
 8002816:	b00c      	add	sp, #48	; 0x30
 8002818:	bd80      	pop	{r7, pc}

0800281a <_ZN4mem310checkpoint14initialization28_$u7b$$u7b$closure$u7d$$u7d$17haf2e151fcd400ae3E>:
 800281a:	b580      	push	{r7, lr}
 800281c:	466f      	mov	r7, sp
 800281e:	b08c      	sub	sp, #48	; 0x30
 8002820:	9002      	str	r0, [sp, #8]
 8002822:	9103      	str	r1, [sp, #12]
 8002824:	9105      	str	r1, [sp, #20]
 8002826:	9104      	str	r1, [sp, #16]
 8002828:	9904      	ldr	r1, [sp, #16]
 800282a:	9100      	str	r1, [sp, #0]
 800282c:	9107      	str	r1, [sp, #28]
 800282e:	2002      	movs	r0, #2
 8002830:	f807 0c15 	strb.w	r0, [r7, #-21]
 8002834:	f817 0c15 	ldrb.w	r0, [r7, #-21]
 8002838:	9108      	str	r1, [sp, #32]
 800283a:	f807 0c09 	strb.w	r0, [r7, #-9]
 800283e:	f648 7164 	movw	r1, #36708	; 0x8f64
 8002842:	f6c0 0100 	movt	r1, #2048	; 0x800
 8002846:	f000 fb15 	bl	8002e74 <_ZN50_$LT$T$u20$as$u20$core..convert..Into$LT$U$GT$$GT$4into17h09173358117f67deE>
 800284a:	4602      	mov	r2, r0
 800284c:	9800      	ldr	r0, [sp, #0]
 800284e:	900a      	str	r0, [sp, #40]	; 0x28
 8002850:	f807 2c01 	strb.w	r2, [r7, #-1]
 8002854:	990a      	ldr	r1, [sp, #40]	; 0x28
 8002856:	6808      	ldr	r0, [r1, #0]
 8002858:	f420 7040 	bic.w	r0, r0, #768	; 0x300
 800285c:	f002 0203 	and.w	r2, r2, #3
 8002860:	ea40 2002 	orr.w	r0, r0, r2, lsl #8
 8002864:	6008      	str	r0, [r1, #0]
 8002866:	980a      	ldr	r0, [sp, #40]	; 0x28
 8002868:	b00c      	add	sp, #48	; 0x30
 800286a:	bd80      	pop	{r7, pc}

0800286c <_ZN4mem310checkpoint14initialization28_$u7b$$u7b$closure$u7d$$u7d$17h686aa5e5b45c9371E>:
 800286c:	b580      	push	{r7, lr}
 800286e:	466f      	mov	r7, sp
 8002870:	b08c      	sub	sp, #48	; 0x30
 8002872:	9002      	str	r0, [sp, #8]
 8002874:	9103      	str	r1, [sp, #12]
 8002876:	9105      	str	r1, [sp, #20]
 8002878:	9104      	str	r1, [sp, #16]
 800287a:	9904      	ldr	r1, [sp, #16]
 800287c:	9100      	str	r1, [sp, #0]
 800287e:	9107      	str	r1, [sp, #28]
 8002880:	200c      	movs	r0, #12
 8002882:	f807 0c15 	strb.w	r0, [r7, #-21]
 8002886:	f817 0c15 	ldrb.w	r0, [r7, #-21]
 800288a:	9108      	str	r1, [sp, #32]
 800288c:	f807 0c09 	strb.w	r0, [r7, #-9]
 8002890:	f648 6188 	movw	r1, #36488	; 0x8e88
 8002894:	f6c0 0100 	movt	r1, #2048	; 0x800
 8002898:	f000 fa29 	bl	8002cee <_ZN50_$LT$T$u20$as$u20$core..convert..Into$LT$U$GT$$GT$4into17he9c5b7d8674cbccbE>
 800289c:	4602      	mov	r2, r0
 800289e:	9800      	ldr	r0, [sp, #0]
 80028a0:	900a      	str	r0, [sp, #40]	; 0x28
 80028a2:	f807 2c01 	strb.w	r2, [r7, #-1]
 80028a6:	990a      	ldr	r1, [sp, #40]	; 0x28
 80028a8:	6808      	ldr	r0, [r1, #0]
 80028aa:	f420 2070 	bic.w	r0, r0, #983040	; 0xf0000
 80028ae:	f002 020f 	and.w	r2, r2, #15
 80028b2:	ea40 4002 	orr.w	r0, r0, r2, lsl #16
 80028b6:	6008      	str	r0, [r1, #0]
 80028b8:	980a      	ldr	r0, [sp, #40]	; 0x28
 80028ba:	b00c      	add	sp, #48	; 0x30
 80028bc:	bd80      	pop	{r7, pc}

080028be <_ZN4mem310checkpoint14initialization28_$u7b$$u7b$closure$u7d$$u7d$17h856c22368f6e0758E>:
 80028be:	b580      	push	{r7, lr}
 80028c0:	466f      	mov	r7, sp
 80028c2:	b08c      	sub	sp, #48	; 0x30
 80028c4:	9002      	str	r0, [sp, #8]
 80028c6:	9103      	str	r1, [sp, #12]
 80028c8:	910b      	str	r1, [sp, #44]	; 0x2c
 80028ca:	910a      	str	r1, [sp, #40]	; 0x28
 80028cc:	990a      	ldr	r1, [sp, #40]	; 0x28
 80028ce:	9100      	str	r1, [sp, #0]
 80028d0:	9105      	str	r1, [sp, #20]
 80028d2:	2003      	movs	r0, #3
 80028d4:	f807 0c1d 	strb.w	r0, [r7, #-29]
 80028d8:	f817 0c1d 	ldrb.w	r0, [r7, #-29]
 80028dc:	9106      	str	r1, [sp, #24]
 80028de:	f807 0c11 	strb.w	r0, [r7, #-17]
 80028e2:	f249 01c0 	movw	r1, #37056	; 0x90c0
 80028e6:	f6c0 0100 	movt	r1, #2048	; 0x800
 80028ea:	f003 fd8f 	bl	800640c <_ZN50_$LT$T$u20$as$u20$core..convert..Into$LT$U$GT$$GT$4into17hd0fa2a7d0802ab5aE>
 80028ee:	4602      	mov	r2, r0
 80028f0:	9800      	ldr	r0, [sp, #0]
 80028f2:	9008      	str	r0, [sp, #32]
 80028f4:	f807 2c09 	strb.w	r2, [r7, #-9]
 80028f8:	9908      	ldr	r1, [sp, #32]
 80028fa:	6808      	ldr	r0, [r1, #0]
 80028fc:	f420 7040 	bic.w	r0, r0, #768	; 0x300
 8002900:	f002 0203 	and.w	r2, r2, #3
 8002904:	ea40 2002 	orr.w	r0, r0, r2, lsl #8
 8002908:	6008      	str	r0, [r1, #0]
 800290a:	9808      	ldr	r0, [sp, #32]
 800290c:	b00c      	add	sp, #48	; 0x30
 800290e:	bd80      	pop	{r7, pc}

08002910 <_ZN4mem310checkpoint14initialization28_$u7b$$u7b$closure$u7d$$u7d$17h8109e2c7166077f9E>:
 8002910:	b580      	push	{r7, lr}
 8002912:	466f      	mov	r7, sp
 8002914:	b08c      	sub	sp, #48	; 0x30
 8002916:	9002      	str	r0, [sp, #8]
 8002918:	9103      	str	r1, [sp, #12]
 800291a:	9105      	str	r1, [sp, #20]
 800291c:	9104      	str	r1, [sp, #16]
 800291e:	9904      	ldr	r1, [sp, #16]
 8002920:	9100      	str	r1, [sp, #0]
 8002922:	9107      	str	r1, [sp, #28]
 8002924:	2002      	movs	r0, #2
 8002926:	f807 0c15 	strb.w	r0, [r7, #-21]
 800292a:	f817 0c15 	ldrb.w	r0, [r7, #-21]
 800292e:	9108      	str	r1, [sp, #32]
 8002930:	f807 0c09 	strb.w	r0, [r7, #-9]
 8002934:	f648 7174 	movw	r1, #36724	; 0x8f74
 8002938:	f6c0 0100 	movt	r1, #2048	; 0x800
 800293c:	f000 fa9a 	bl	8002e74 <_ZN50_$LT$T$u20$as$u20$core..convert..Into$LT$U$GT$$GT$4into17h09173358117f67deE>
 8002940:	4602      	mov	r2, r0
 8002942:	9800      	ldr	r0, [sp, #0]
 8002944:	900a      	str	r0, [sp, #40]	; 0x28
 8002946:	f807 2c01 	strb.w	r2, [r7, #-1]
 800294a:	990a      	ldr	r1, [sp, #40]	; 0x28
 800294c:	6808      	ldr	r0, [r1, #0]
 800294e:	f420 6040 	bic.w	r0, r0, #3072	; 0xc00
 8002952:	f002 0203 	and.w	r2, r2, #3
 8002956:	ea40 2082 	orr.w	r0, r0, r2, lsl #10
 800295a:	6008      	str	r0, [r1, #0]
 800295c:	980a      	ldr	r0, [sp, #40]	; 0x28
 800295e:	b00c      	add	sp, #48	; 0x30
 8002960:	bd80      	pop	{r7, pc}

08002962 <_ZN4mem310checkpoint14initialization28_$u7b$$u7b$closure$u7d$$u7d$17hd8262cab9d1cedc7E>:
 8002962:	b580      	push	{r7, lr}
 8002964:	466f      	mov	r7, sp
 8002966:	b08c      	sub	sp, #48	; 0x30
 8002968:	9002      	str	r0, [sp, #8]
 800296a:	9103      	str	r1, [sp, #12]
 800296c:	9105      	str	r1, [sp, #20]
 800296e:	9104      	str	r1, [sp, #16]
 8002970:	9904      	ldr	r1, [sp, #16]
 8002972:	9100      	str	r1, [sp, #0]
 8002974:	9107      	str	r1, [sp, #28]
 8002976:	200c      	movs	r0, #12
 8002978:	f807 0c15 	strb.w	r0, [r7, #-21]
 800297c:	f817 0c15 	ldrb.w	r0, [r7, #-21]
 8002980:	9108      	str	r1, [sp, #32]
 8002982:	f807 0c09 	strb.w	r0, [r7, #-9]
 8002986:	f648 6198 	movw	r1, #36504	; 0x8e98
 800298a:	f6c0 0100 	movt	r1, #2048	; 0x800
 800298e:	f000 f9ae 	bl	8002cee <_ZN50_$LT$T$u20$as$u20$core..convert..Into$LT$U$GT$$GT$4into17he9c5b7d8674cbccbE>
 8002992:	4602      	mov	r2, r0
 8002994:	9800      	ldr	r0, [sp, #0]
 8002996:	900a      	str	r0, [sp, #40]	; 0x28
 8002998:	f807 2c01 	strb.w	r2, [r7, #-1]
 800299c:	990a      	ldr	r1, [sp, #40]	; 0x28
 800299e:	6808      	ldr	r0, [r1, #0]
 80029a0:	f420 0070 	bic.w	r0, r0, #15728640	; 0xf00000
 80029a4:	f002 020f 	and.w	r2, r2, #15
 80029a8:	ea40 5002 	orr.w	r0, r0, r2, lsl #20
 80029ac:	6008      	str	r0, [r1, #0]
 80029ae:	980a      	ldr	r0, [sp, #40]	; 0x28
 80029b0:	b00c      	add	sp, #48	; 0x30
 80029b2:	bd80      	pop	{r7, pc}

080029b4 <_ZN4mem310checkpoint14initialization28_$u7b$$u7b$closure$u7d$$u7d$17h8fcaa71546cba81cE>:
 80029b4:	b580      	push	{r7, lr}
 80029b6:	466f      	mov	r7, sp
 80029b8:	b08c      	sub	sp, #48	; 0x30
 80029ba:	9002      	str	r0, [sp, #8]
 80029bc:	9103      	str	r1, [sp, #12]
 80029be:	910b      	str	r1, [sp, #44]	; 0x2c
 80029c0:	910a      	str	r1, [sp, #40]	; 0x28
 80029c2:	990a      	ldr	r1, [sp, #40]	; 0x28
 80029c4:	9100      	str	r1, [sp, #0]
 80029c6:	9105      	str	r1, [sp, #20]
 80029c8:	2003      	movs	r0, #3
 80029ca:	f807 0c1d 	strb.w	r0, [r7, #-29]
 80029ce:	f817 0c1d 	ldrb.w	r0, [r7, #-29]
 80029d2:	9106      	str	r1, [sp, #24]
 80029d4:	f807 0c11 	strb.w	r0, [r7, #-17]
 80029d8:	f249 01d0 	movw	r1, #37072	; 0x90d0
 80029dc:	f6c0 0100 	movt	r1, #2048	; 0x800
 80029e0:	f003 fd14 	bl	800640c <_ZN50_$LT$T$u20$as$u20$core..convert..Into$LT$U$GT$$GT$4into17hd0fa2a7d0802ab5aE>
 80029e4:	4602      	mov	r2, r0
 80029e6:	9800      	ldr	r0, [sp, #0]
 80029e8:	9008      	str	r0, [sp, #32]
 80029ea:	f807 2c09 	strb.w	r2, [r7, #-9]
 80029ee:	9908      	ldr	r1, [sp, #32]
 80029f0:	6808      	ldr	r0, [r1, #0]
 80029f2:	f420 6040 	bic.w	r0, r0, #3072	; 0xc00
 80029f6:	f002 0203 	and.w	r2, r2, #3
 80029fa:	ea40 2082 	orr.w	r0, r0, r2, lsl #10
 80029fe:	6008      	str	r0, [r1, #0]
 8002a00:	9808      	ldr	r0, [sp, #32]
 8002a02:	b00c      	add	sp, #48	; 0x30
 8002a04:	bd80      	pop	{r7, pc}

08002a06 <_ZN4mem310checkpoint14initialization28_$u7b$$u7b$closure$u7d$$u7d$17hc4a0e4a861557224E>:
 8002a06:	b0aa      	sub	sp, #168	; 0xa8
 8002a08:	9100      	str	r1, [sp, #0]
 8002a0a:	4601      	mov	r1, r0
 8002a0c:	9800      	ldr	r0, [sp, #0]
 8002a0e:	9102      	str	r1, [sp, #8]
 8002a10:	9003      	str	r0, [sp, #12]
 8002a12:	900b      	str	r0, [sp, #44]	; 0x2c
 8002a14:	900a      	str	r0, [sp, #40]	; 0x28
 8002a16:	990a      	ldr	r1, [sp, #40]	; 0x28
 8002a18:	911e      	str	r1, [sp, #120]	; 0x78
 8002a1a:	911f      	str	r1, [sp, #124]	; 0x7c
 8002a1c:	f04f 0c01 	mov.w	ip, #1
 8002a20:	f88d c083 	strb.w	ip, [sp, #131]	; 0x83
 8002a24:	9a1f      	ldr	r2, [sp, #124]	; 0x7c
 8002a26:	6811      	ldr	r1, [r2, #0]
 8002a28:	f041 0101 	orr.w	r1, r1, #1
 8002a2c:	6011      	str	r1, [r2, #0]
 8002a2e:	9005      	str	r0, [sp, #20]
 8002a30:	9004      	str	r0, [sp, #16]
 8002a32:	9904      	ldr	r1, [sp, #16]
 8002a34:	9117      	str	r1, [sp, #92]	; 0x5c
 8002a36:	2100      	movs	r1, #0
 8002a38:	f88d 1063 	strb.w	r1, [sp, #99]	; 0x63
 8002a3c:	9b17      	ldr	r3, [sp, #92]	; 0x5c
 8002a3e:	681a      	ldr	r2, [r3, #0]
 8002a40:	f022 020c 	bic.w	r2, r2, #12
 8002a44:	601a      	str	r2, [r3, #0]
 8002a46:	9007      	str	r0, [sp, #28]
 8002a48:	9006      	str	r0, [sp, #24]
 8002a4a:	9a06      	ldr	r2, [sp, #24]
 8002a4c:	9219      	str	r2, [sp, #100]	; 0x64
 8002a4e:	f88d c06b 	strb.w	ip, [sp, #107]	; 0x6b
 8002a52:	9b19      	ldr	r3, [sp, #100]	; 0x64
 8002a54:	681a      	ldr	r2, [r3, #0]
 8002a56:	f36c 1205 	bfi	r2, ip, #4, #2
 8002a5a:	601a      	str	r2, [r3, #0]
 8002a5c:	9011      	str	r0, [sp, #68]	; 0x44
 8002a5e:	9010      	str	r0, [sp, #64]	; 0x40
 8002a60:	9a10      	ldr	r2, [sp, #64]	; 0x40
 8002a62:	9227      	str	r2, [sp, #156]	; 0x9c
 8002a64:	9228      	str	r2, [sp, #160]	; 0xa0
 8002a66:	f88d 10a7 	strb.w	r1, [sp, #167]	; 0xa7
 8002a6a:	9b28      	ldr	r3, [sp, #160]	; 0xa0
 8002a6c:	681a      	ldr	r2, [r3, #0]
 8002a6e:	f422 7280 	bic.w	r2, r2, #256	; 0x100
 8002a72:	601a      	str	r2, [r3, #0]
 8002a74:	9009      	str	r0, [sp, #36]	; 0x24
 8002a76:	9008      	str	r0, [sp, #32]
 8002a78:	9a08      	ldr	r2, [sp, #32]
 8002a7a:	921b      	str	r2, [sp, #108]	; 0x6c
 8002a7c:	921c      	str	r2, [sp, #112]	; 0x70
 8002a7e:	f88d 1077 	strb.w	r1, [sp, #119]	; 0x77
 8002a82:	9b1c      	ldr	r3, [sp, #112]	; 0x70
 8002a84:	681a      	ldr	r2, [r3, #0]
 8002a86:	f422 5280 	bic.w	r2, r2, #4096	; 0x1000
 8002a8a:	601a      	str	r2, [r3, #0]
 8002a8c:	900d      	str	r0, [sp, #52]	; 0x34
 8002a8e:	900c      	str	r0, [sp, #48]	; 0x30
 8002a90:	9a0c      	ldr	r2, [sp, #48]	; 0x30
 8002a92:	9221      	str	r2, [sp, #132]	; 0x84
 8002a94:	9222      	str	r2, [sp, #136]	; 0x88
 8002a96:	f88d 108f 	strb.w	r1, [sp, #143]	; 0x8f
 8002a9a:	9b22      	ldr	r3, [sp, #136]	; 0x88
 8002a9c:	681a      	ldr	r2, [r3, #0]
 8002a9e:	f022 0202 	bic.w	r2, r2, #2
 8002aa2:	601a      	str	r2, [r3, #0]
 8002aa4:	900f      	str	r0, [sp, #60]	; 0x3c
 8002aa6:	900e      	str	r0, [sp, #56]	; 0x38
 8002aa8:	9a0e      	ldr	r2, [sp, #56]	; 0x38
 8002aaa:	9224      	str	r2, [sp, #144]	; 0x90
 8002aac:	9225      	str	r2, [sp, #148]	; 0x94
 8002aae:	f88d 109b 	strb.w	r1, [sp, #155]	; 0x9b
 8002ab2:	9b25      	ldr	r3, [sp, #148]	; 0x94
 8002ab4:	681a      	ldr	r2, [r3, #0]
 8002ab6:	f422 4280 	bic.w	r2, r2, #16384	; 0x4000
 8002aba:	601a      	str	r2, [r3, #0]
 8002abc:	9013      	str	r0, [sp, #76]	; 0x4c
 8002abe:	9012      	str	r0, [sp, #72]	; 0x48
 8002ac0:	9a12      	ldr	r2, [sp, #72]	; 0x48
 8002ac2:	9214      	str	r2, [sp, #80]	; 0x50
 8002ac4:	9215      	str	r2, [sp, #84]	; 0x54
 8002ac6:	f88d 105b 	strb.w	r1, [sp, #91]	; 0x5b
 8002aca:	9a15      	ldr	r2, [sp, #84]	; 0x54
 8002acc:	6811      	ldr	r1, [r2, #0]
 8002ace:	f421 4100 	bic.w	r1, r1, #32768	; 0x8000
 8002ad2:	6011      	str	r1, [r2, #0]
 8002ad4:	b02a      	add	sp, #168	; 0xa8
 8002ad6:	4770      	bx	lr

08002ad8 <_ZN4mem310checkpoint14initialization28_$u7b$$u7b$closure$u7d$$u7d$17h6307b018d29c5e02E>:
 8002ad8:	b0a0      	sub	sp, #128	; 0x80
 8002ada:	9100      	str	r1, [sp, #0]
 8002adc:	4601      	mov	r1, r0
 8002ade:	9800      	ldr	r0, [sp, #0]
 8002ae0:	9102      	str	r1, [sp, #8]
 8002ae2:	9003      	str	r0, [sp, #12]
 8002ae4:	9009      	str	r0, [sp, #36]	; 0x24
 8002ae6:	9008      	str	r0, [sp, #32]
 8002ae8:	9908      	ldr	r1, [sp, #32]
 8002aea:	9116      	str	r1, [sp, #88]	; 0x58
 8002aec:	2301      	movs	r3, #1
 8002aee:	f88d 305f 	strb.w	r3, [sp, #95]	; 0x5f
 8002af2:	9a16      	ldr	r2, [sp, #88]	; 0x58
 8002af4:	6811      	ldr	r1, [r2, #0]
 8002af6:	f363 0103 	bfi	r1, r3, #0, #4
 8002afa:	6011      	str	r1, [r2, #0]
 8002afc:	900d      	str	r0, [sp, #52]	; 0x34
 8002afe:	900c      	str	r0, [sp, #48]	; 0x30
 8002b00:	990c      	ldr	r1, [sp, #48]	; 0x30
 8002b02:	911a      	str	r1, [sp, #104]	; 0x68
 8002b04:	2105      	movs	r1, #5
 8002b06:	f88d 106f 	strb.w	r1, [sp, #111]	; 0x6f
 8002b0a:	9a1a      	ldr	r2, [sp, #104]	; 0x68
 8002b0c:	7051      	strb	r1, [r2, #1]
 8002b0e:	9007      	str	r0, [sp, #28]
 8002b10:	9006      	str	r0, [sp, #24]
 8002b12:	9906      	ldr	r1, [sp, #24]
 8002b14:	9114      	str	r1, [sp, #80]	; 0x50
 8002b16:	f88d 3057 	strb.w	r3, [sp, #87]	; 0x57
 8002b1a:	9a14      	ldr	r2, [sp, #80]	; 0x50
 8002b1c:	6811      	ldr	r1, [r2, #0]
 8002b1e:	f363 1107 	bfi	r1, r3, #4, #4
 8002b22:	6011      	str	r1, [r2, #0]
 8002b24:	9011      	str	r0, [sp, #68]	; 0x44
 8002b26:	9010      	str	r0, [sp, #64]	; 0x40
 8002b28:	9910      	ldr	r1, [sp, #64]	; 0x40
 8002b2a:	911e      	str	r1, [sp, #120]	; 0x78
 8002b2c:	2100      	movs	r1, #0
 8002b2e:	f88d 107f 	strb.w	r1, [sp, #127]	; 0x7f
 8002b32:	9b1e      	ldr	r3, [sp, #120]	; 0x78
 8002b34:	681a      	ldr	r2, [r3, #0]
 8002b36:	f422 2270 	bic.w	r2, r2, #983040	; 0xf0000
 8002b3a:	601a      	str	r2, [r3, #0]
 8002b3c:	900b      	str	r0, [sp, #44]	; 0x2c
 8002b3e:	900a      	str	r0, [sp, #40]	; 0x28
 8002b40:	9a0a      	ldr	r2, [sp, #40]	; 0x28
 8002b42:	9218      	str	r2, [sp, #96]	; 0x60
 8002b44:	f04f 0c04 	mov.w	ip, #4
 8002b48:	f88d c067 	strb.w	ip, [sp, #103]	; 0x67
 8002b4c:	9b18      	ldr	r3, [sp, #96]	; 0x60
 8002b4e:	681a      	ldr	r2, [r3, #0]
 8002b50:	f36c 5217 	bfi	r2, ip, #20, #4
 8002b54:	601a      	str	r2, [r3, #0]
 8002b56:	900f      	str	r0, [sp, #60]	; 0x3c
 8002b58:	900e      	str	r0, [sp, #56]	; 0x38
 8002b5a:	9a0e      	ldr	r2, [sp, #56]	; 0x38
 8002b5c:	921c      	str	r2, [sp, #112]	; 0x70
 8002b5e:	f88d 1077 	strb.w	r1, [sp, #119]	; 0x77
 8002b62:	9b1c      	ldr	r3, [sp, #112]	; 0x70
 8002b64:	681a      	ldr	r2, [r3, #0]
 8002b66:	f022 6270 	bic.w	r2, r2, #251658240	; 0xf000000
 8002b6a:	601a      	str	r2, [r3, #0]
 8002b6c:	9005      	str	r0, [sp, #20]
 8002b6e:	9004      	str	r0, [sp, #16]
 8002b70:	9a04      	ldr	r2, [sp, #16]
 8002b72:	9212      	str	r2, [sp, #72]	; 0x48
 8002b74:	f88d 104f 	strb.w	r1, [sp, #79]	; 0x4f
 8002b78:	9a12      	ldr	r2, [sp, #72]	; 0x48
 8002b7a:	6811      	ldr	r1, [r2, #0]
 8002b7c:	f021 5140 	bic.w	r1, r1, #805306368	; 0x30000000
 8002b80:	6011      	str	r1, [r2, #0]
 8002b82:	b020      	add	sp, #128	; 0x80
 8002b84:	4770      	bx	lr

08002b86 <_ZN4mem310checkpoint14save_variables17h9cace5e5938efc33E>:
 8002b86:	b580      	push	{r7, lr}
 8002b88:	466f      	mov	r7, sp
 8002b8a:	b09e      	sub	sp, #120	; 0x78
 8002b8c:	910a      	str	r1, [sp, #40]	; 0x28
 8002b8e:	900e      	str	r0, [sp, #56]	; 0x38
 8002b90:	9119      	str	r1, [sp, #100]	; 0x64
 8002b92:	a90e      	add	r1, sp, #56	; 0x38
 8002b94:	911c      	str	r1, [sp, #112]	; 0x70
 8002b96:	f240 3045 	movw	r0, #837	; 0x345
 8002b9a:	f6c0 0000 	movt	r0, #2048	; 0x800
 8002b9e:	901d      	str	r0, [sp, #116]	; 0x74
 8002ba0:	911a      	str	r1, [sp, #104]	; 0x68
 8002ba2:	901b      	str	r0, [sp, #108]	; 0x6c
 8002ba4:	981a      	ldr	r0, [sp, #104]	; 0x68
 8002ba6:	991b      	ldr	r1, [sp, #108]	; 0x6c
 8002ba8:	9118      	str	r1, [sp, #96]	; 0x60
 8002baa:	9017      	str	r0, [sp, #92]	; 0x5c
 8002bac:	9817      	ldr	r0, [sp, #92]	; 0x5c
 8002bae:	9918      	ldr	r1, [sp, #96]	; 0x60
 8002bb0:	9116      	str	r1, [sp, #88]	; 0x58
 8002bb2:	9015      	str	r0, [sp, #84]	; 0x54
 8002bb4:	4669      	mov	r1, sp
 8002bb6:	2001      	movs	r0, #1
 8002bb8:	6008      	str	r0, [r1, #0]
 8002bba:	f249 1174 	movw	r1, #37236	; 0x9174
 8002bbe:	f6c0 0100 	movt	r1, #2048	; 0x800
 8002bc2:	a80f      	add	r0, sp, #60	; 0x3c
 8002bc4:	900b      	str	r0, [sp, #44]	; 0x2c
 8002bc6:	2202      	movs	r2, #2
 8002bc8:	ab15      	add	r3, sp, #84	; 0x54
 8002bca:	f7fd fb4a 	bl	8000262 <_ZN4core3fmt9Arguments6new_v117h3eb9fef7a16c6557E>
 8002bce:	980b      	ldr	r0, [sp, #44]	; 0x2c
 8002bd0:	f004 f94a 	bl	8006e68 <_ZN20cortex_m_semihosting6export11hstdout_fmt17he820bff8a460a29eE>
 8002bd4:	f240 0000 	movw	r0, #0
 8002bd8:	f2c2 0000 	movt	r0, #8192	; 0x2000
 8002bdc:	900c      	str	r0, [sp, #48]	; 0x30
 8002bde:	6800      	ldr	r0, [r0, #0]
 8002be0:	990e      	ldr	r1, [sp, #56]	; 0x38
 8002be2:	f004 faf2 	bl	80071ca <_ZN4core3ptr5write17he5e2153425923c5aE>
 8002be6:	980c      	ldr	r0, [sp, #48]	; 0x30
 8002be8:	6801      	ldr	r1, [r0, #0]
 8002bea:	1d08      	adds	r0, r1, #4
 8002bec:	4602      	mov	r2, r0
 8002bee:	920d      	str	r2, [sp, #52]	; 0x34
 8002bf0:	4288      	cmp	r0, r1
 8002bf2:	d313      	bcc.n	8002c1c <_ZN4mem310checkpoint14save_variables17h9cace5e5938efc33E+0x96>
 8002bf4:	e7ff      	b.n	8002bf6 <_ZN4mem310checkpoint14save_variables17h9cace5e5938efc33E+0x70>
 8002bf6:	990a      	ldr	r1, [sp, #40]	; 0x28
 8002bf8:	9a0d      	ldr	r2, [sp, #52]	; 0x34
 8002bfa:	f240 0000 	movw	r0, #0
 8002bfe:	f2c2 0000 	movt	r0, #8192	; 0x2000
 8002c02:	9008      	str	r0, [sp, #32]
 8002c04:	6002      	str	r2, [r0, #0]
 8002c06:	6800      	ldr	r0, [r0, #0]
 8002c08:	f004 fadf 	bl	80071ca <_ZN4core3ptr5write17he5e2153425923c5aE>
 8002c0c:	9808      	ldr	r0, [sp, #32]
 8002c0e:	6801      	ldr	r1, [r0, #0]
 8002c10:	1d08      	adds	r0, r1, #4
 8002c12:	4602      	mov	r2, r0
 8002c14:	9209      	str	r2, [sp, #36]	; 0x24
 8002c16:	4288      	cmp	r0, r1
 8002c18:	d31d      	bcc.n	8002c56 <_ZN4mem310checkpoint14save_variables17h9cace5e5938efc33E+0xd0>
 8002c1a:	e005      	b.n	8002c28 <_ZN4mem310checkpoint14save_variables17h9cace5e5938efc33E+0xa2>
 8002c1c:	f249 109c 	movw	r0, #37276	; 0x919c
 8002c20:	f6c0 0000 	movt	r0, #2048	; 0x800
 8002c24:	f005 fc43 	bl	80084ae <_ZN4core9panicking11panic_const24panic_const_add_overflow17hc13b23ef9a01f37bE>
 8002c28:	9809      	ldr	r0, [sp, #36]	; 0x24
 8002c2a:	f240 0100 	movw	r1, #0
 8002c2e:	f2c2 0100 	movt	r1, #8192	; 0x2000
 8002c32:	6008      	str	r0, [r1, #0]
 8002c34:	f240 0004 	movw	r0, #4
 8002c38:	f2c2 0000 	movt	r0, #8192	; 0x2000
 8002c3c:	9006      	str	r0, [sp, #24]
 8002c3e:	6800      	ldr	r0, [r0, #0]
 8002c40:	990e      	ldr	r1, [sp, #56]	; 0x38
 8002c42:	f003 fbdc 	bl	80063fe <_ZN4core3ptr5write17he804029afa2783ffE>
 8002c46:	9806      	ldr	r0, [sp, #24]
 8002c48:	6801      	ldr	r1, [r0, #0]
 8002c4a:	1c88      	adds	r0, r1, #2
 8002c4c:	4602      	mov	r2, r0
 8002c4e:	9207      	str	r2, [sp, #28]
 8002c50:	4288      	cmp	r0, r1
 8002c52:	d317      	bcc.n	8002c84 <_ZN4mem310checkpoint14save_variables17h9cace5e5938efc33E+0xfe>
 8002c54:	e005      	b.n	8002c62 <_ZN4mem310checkpoint14save_variables17h9cace5e5938efc33E+0xdc>
 8002c56:	f249 10ac 	movw	r0, #37292	; 0x91ac
 8002c5a:	f6c0 0000 	movt	r0, #2048	; 0x800
 8002c5e:	f005 fc26 	bl	80084ae <_ZN4core9panicking11panic_const24panic_const_add_overflow17hc13b23ef9a01f37bE>
 8002c62:	9807      	ldr	r0, [sp, #28]
 8002c64:	f240 0104 	movw	r1, #4
 8002c68:	f2c2 0100 	movt	r1, #8192	; 0x2000
 8002c6c:	6008      	str	r0, [r1, #0]
 8002c6e:	f240 000c 	movw	r0, #12
 8002c72:	f2c2 0000 	movt	r0, #8192	; 0x2000
 8002c76:	6800      	ldr	r0, [r0, #0]
 8002c78:	9004      	str	r0, [sp, #16]
 8002c7a:	4601      	mov	r1, r0
 8002c7c:	9105      	str	r1, [sp, #20]
 8002c7e:	07c0      	lsls	r0, r0, #31
 8002c80:	b130      	cbz	r0, 8002c90 <_ZN4mem310checkpoint14save_variables17h9cace5e5938efc33E+0x10a>
 8002c82:	e00e      	b.n	8002ca2 <_ZN4mem310checkpoint14save_variables17h9cace5e5938efc33E+0x11c>
 8002c84:	f249 10bc 	movw	r0, #37308	; 0x91bc
 8002c88:	f6c0 0000 	movt	r0, #2048	; 0x800
 8002c8c:	f005 fc0f 	bl	80084ae <_ZN4core9panicking11panic_const24panic_const_add_overflow17hc13b23ef9a01f37bE>
 8002c90:	9805      	ldr	r0, [sp, #20]
 8002c92:	8800      	ldrh	r0, [r0, #0]
 8002c94:	1c41      	adds	r1, r0, #1
 8002c96:	b288      	uxth	r0, r1
 8002c98:	460a      	mov	r2, r1
 8002c9a:	9203      	str	r2, [sp, #12]
 8002c9c:	4288      	cmp	r0, r1
 8002c9e:	d113      	bne.n	8002cc8 <_ZN4mem310checkpoint14save_variables17h9cace5e5938efc33E+0x142>
 8002ca0:	e007      	b.n	8002cb2 <_ZN4mem310checkpoint14save_variables17h9cace5e5938efc33E+0x12c>
 8002ca2:	9904      	ldr	r1, [sp, #16]
 8002ca4:	f249 12cc 	movw	r2, #37324	; 0x91cc
 8002ca8:	f6c0 0200 	movt	r2, #2048	; 0x800
 8002cac:	2002      	movs	r0, #2
 8002cae:	f004 fce5 	bl	800767c <_ZN4core9panicking36panic_misaligned_pointer_dereference17hb537f21f1e0ef688E>
 8002cb2:	f240 000c 	movw	r0, #12
 8002cb6:	f2c2 0000 	movt	r0, #8192	; 0x2000
 8002cba:	6800      	ldr	r0, [r0, #0]
 8002cbc:	9001      	str	r0, [sp, #4]
 8002cbe:	4601      	mov	r1, r0
 8002cc0:	9102      	str	r1, [sp, #8]
 8002cc2:	07c0      	lsls	r0, r0, #31
 8002cc4:	b130      	cbz	r0, 8002cd4 <_ZN4mem310checkpoint14save_variables17h9cace5e5938efc33E+0x14e>
 8002cc6:	e00a      	b.n	8002cde <_ZN4mem310checkpoint14save_variables17h9cace5e5938efc33E+0x158>
 8002cc8:	f249 10cc 	movw	r0, #37324	; 0x91cc
 8002ccc:	f6c0 0000 	movt	r0, #2048	; 0x800
 8002cd0:	f005 fbed 	bl	80084ae <_ZN4core9panicking11panic_const24panic_const_add_overflow17hc13b23ef9a01f37bE>
 8002cd4:	9803      	ldr	r0, [sp, #12]
 8002cd6:	9902      	ldr	r1, [sp, #8]
 8002cd8:	8008      	strh	r0, [r1, #0]
 8002cda:	b01e      	add	sp, #120	; 0x78
 8002cdc:	bd80      	pop	{r7, pc}
 8002cde:	9901      	ldr	r1, [sp, #4]
 8002ce0:	f249 12dc 	movw	r2, #37340	; 0x91dc
 8002ce4:	f6c0 0200 	movt	r2, #2048	; 0x800
 8002ce8:	2002      	movs	r0, #2
 8002cea:	f004 fcc7 	bl	800767c <_ZN4core9panicking36panic_misaligned_pointer_dereference17hb537f21f1e0ef688E>

08002cee <_ZN50_$LT$T$u20$as$u20$core..convert..Into$LT$U$GT$$GT$4into17he9c5b7d8674cbccbE>:
 8002cee:	b081      	sub	sp, #4
 8002cf0:	f88d 0002 	strb.w	r0, [sp, #2]
 8002cf4:	f88d 0003 	strb.w	r0, [sp, #3]
 8002cf8:	f89d 0003 	ldrb.w	r0, [sp, #3]
 8002cfc:	b001      	add	sp, #4
 8002cfe:	4770      	bx	lr

08002d00 <_ZN8cortex_m9interrupt6enable17h6aa339dbc4476ab6E>:
 8002d00:	b580      	push	{r7, lr}
 8002d02:	466f      	mov	r7, sp
 8002d04:	f004 fc40 	bl	8007588 <__cpsie>
 8002d08:	bd80      	pop	{r7, pc}

08002d0a <_ZN8cortex_m9interrupt7disable17hd121467e2c2d42acE>:
 8002d0a:	b580      	push	{r7, lr}
 8002d0c:	466f      	mov	r7, sp
 8002d0e:	f004 fc39 	bl	8007584 <__cpsid>
 8002d12:	bd80      	pop	{r7, pc}

08002d14 <_ZN4core3ptr13read_volatile18precondition_check17hf365944657173a0aE>:
 8002d14:	b580      	push	{r7, lr}
 8002d16:	466f      	mov	r7, sp
 8002d18:	b082      	sub	sp, #8
 8002d1a:	9000      	str	r0, [sp, #0]
 8002d1c:	9101      	str	r1, [sp, #4]
 8002d1e:	f000 f854 	bl	8002dca <_ZN4core9ub_checks23is_aligned_and_not_null17h73cafdb3f306ce6dE>
 8002d22:	b938      	cbnz	r0, 8002d34 <_ZN4core3ptr13read_volatile18precondition_check17hf365944657173a0aE+0x20>
 8002d24:	e7ff      	b.n	8002d26 <_ZN4core3ptr13read_volatile18precondition_check17hf365944657173a0aE+0x12>
 8002d26:	f249 10ec 	movw	r0, #37356	; 0x91ec
 8002d2a:	f6c0 0000 	movt	r0, #2048	; 0x800
 8002d2e:	216e      	movs	r1, #110	; 0x6e
 8002d30:	f004 fc8e 	bl	8007650 <_ZN4core9panicking14panic_nounwind17h012daec3df9df239E>
 8002d34:	b002      	add	sp, #8
 8002d36:	bd80      	pop	{r7, pc}

08002d38 <_ZN4core3ptr14write_volatile18precondition_check17h71796cbeb0e4a0c6E>:
 8002d38:	b580      	push	{r7, lr}
 8002d3a:	466f      	mov	r7, sp
 8002d3c:	b082      	sub	sp, #8
 8002d3e:	9000      	str	r0, [sp, #0]
 8002d40:	9101      	str	r1, [sp, #4]
 8002d42:	f000 f842 	bl	8002dca <_ZN4core9ub_checks23is_aligned_and_not_null17h73cafdb3f306ce6dE>
 8002d46:	b938      	cbnz	r0, 8002d58 <_ZN4core3ptr14write_volatile18precondition_check17h71796cbeb0e4a0c6E+0x20>
 8002d48:	e7ff      	b.n	8002d4a <_ZN4core3ptr14write_volatile18precondition_check17h71796cbeb0e4a0c6E+0x12>
 8002d4a:	f249 205a 	movw	r0, #37466	; 0x925a
 8002d4e:	f6c0 0000 	movt	r0, #2048	; 0x800
 8002d52:	216f      	movs	r1, #111	; 0x6f
 8002d54:	f004 fc7c 	bl	8007650 <_ZN4core9panicking14panic_nounwind17h012daec3df9df239E>
 8002d58:	b002      	add	sp, #8
 8002d5a:	bd80      	pop	{r7, pc}

08002d5c <_ZN4core3fmt3num50_$LT$impl$u20$core..fmt..Debug$u20$for$u20$u16$GT$3fmt17hc3516e66a0969fe6E>:
 8002d5c:	b580      	push	{r7, lr}
 8002d5e:	466f      	mov	r7, sp
 8002d60:	b086      	sub	sp, #24
 8002d62:	9101      	str	r1, [sp, #4]
 8002d64:	9002      	str	r0, [sp, #8]
 8002d66:	9004      	str	r0, [sp, #16]
 8002d68:	9105      	str	r1, [sp, #20]
 8002d6a:	7f08      	ldrb	r0, [r1, #28]
 8002d6c:	06c0      	lsls	r0, r0, #27
 8002d6e:	2800      	cmp	r0, #0
 8002d70:	d406      	bmi.n	8002d80 <_ZN4core3fmt3num50_$LT$impl$u20$core..fmt..Debug$u20$for$u20$u16$GT$3fmt17hc3516e66a0969fe6E+0x24>
 8002d72:	e7ff      	b.n	8002d74 <_ZN4core3fmt3num50_$LT$impl$u20$core..fmt..Debug$u20$for$u20$u16$GT$3fmt17hc3516e66a0969fe6E+0x18>
 8002d74:	9801      	ldr	r0, [sp, #4]
 8002d76:	7f00      	ldrb	r0, [r0, #28]
 8002d78:	0680      	lsls	r0, r0, #26
 8002d7a:	2800      	cmp	r0, #0
 8002d7c:	d507      	bpl.n	8002d8e <_ZN4core3fmt3num50_$LT$impl$u20$core..fmt..Debug$u20$for$u20$u16$GT$3fmt17hc3516e66a0969fe6E+0x32>
 8002d7e:	e00d      	b.n	8002d9c <_ZN4core3fmt3num50_$LT$impl$u20$core..fmt..Debug$u20$for$u20$u16$GT$3fmt17hc3516e66a0969fe6E+0x40>
 8002d80:	9901      	ldr	r1, [sp, #4]
 8002d82:	9802      	ldr	r0, [sp, #8]
 8002d84:	f005 fbdf 	bl	8008546 <_ZN4core3fmt3num53_$LT$impl$u20$core..fmt..LowerHex$u20$for$u20$i16$GT$3fmt17h855b06b50e7a44fcE>
 8002d88:	f807 0c09 	strb.w	r0, [r7, #-9]
 8002d8c:	e00e      	b.n	8002dac <_ZN4core3fmt3num50_$LT$impl$u20$core..fmt..Debug$u20$for$u20$u16$GT$3fmt17hc3516e66a0969fe6E+0x50>
 8002d8e:	9901      	ldr	r1, [sp, #4]
 8002d90:	9802      	ldr	r0, [sp, #8]
 8002d92:	f005 fd50 	bl	8008836 <_ZN4core3fmt3num3imp52_$LT$impl$u20$core..fmt..Display$u20$for$u20$u16$GT$3fmt17h6b9183805536f102E>
 8002d96:	f807 0c09 	strb.w	r0, [r7, #-9]
 8002d9a:	e006      	b.n	8002daa <_ZN4core3fmt3num50_$LT$impl$u20$core..fmt..Debug$u20$for$u20$u16$GT$3fmt17hc3516e66a0969fe6E+0x4e>
 8002d9c:	9901      	ldr	r1, [sp, #4]
 8002d9e:	9802      	ldr	r0, [sp, #8]
 8002da0:	f005 fc2a 	bl	80085f8 <_ZN4core3fmt3num53_$LT$impl$u20$core..fmt..UpperHex$u20$for$u20$i16$GT$3fmt17hf294e33d30237e5eE>
 8002da4:	f807 0c09 	strb.w	r0, [r7, #-9]
 8002da8:	e7ff      	b.n	8002daa <_ZN4core3fmt3num50_$LT$impl$u20$core..fmt..Debug$u20$for$u20$u16$GT$3fmt17hc3516e66a0969fe6E+0x4e>
 8002daa:	e7ff      	b.n	8002dac <_ZN4core3fmt3num50_$LT$impl$u20$core..fmt..Debug$u20$for$u20$u16$GT$3fmt17hc3516e66a0969fe6E+0x50>
 8002dac:	f817 0c09 	ldrb.w	r0, [r7, #-9]
 8002db0:	f000 0001 	and.w	r0, r0, #1
 8002db4:	b006      	add	sp, #24
 8002db6:	bd80      	pop	{r7, pc}

08002db8 <_ZN8cortex_m3asm3dmb17hf938bdd58518968fE>:
 8002db8:	b580      	push	{r7, lr}
 8002dba:	466f      	mov	r7, sp
 8002dbc:	f004 fbe6 	bl	800758c <__dmb>
 8002dc0:	bd80      	pop	{r7, pc}

08002dc2 <_ZN4core3ptr29drop_in_place$LT$$LP$$RP$$GT$17h6673a6388f7fa1e0E>:
 8002dc2:	b081      	sub	sp, #4
 8002dc4:	9000      	str	r0, [sp, #0]
 8002dc6:	b001      	add	sp, #4
 8002dc8:	4770      	bx	lr

08002dca <_ZN4core9ub_checks23is_aligned_and_not_null17h73cafdb3f306ce6dE>:
 8002dca:	b580      	push	{r7, lr}
 8002dcc:	466f      	mov	r7, sp
 8002dce:	b090      	sub	sp, #64	; 0x40
 8002dd0:	9101      	str	r1, [sp, #4]
 8002dd2:	900a      	str	r0, [sp, #40]	; 0x28
 8002dd4:	910b      	str	r1, [sp, #44]	; 0x2c
 8002dd6:	900c      	str	r0, [sp, #48]	; 0x30
 8002dd8:	4601      	mov	r1, r0
 8002dda:	9102      	str	r1, [sp, #8]
 8002ddc:	b920      	cbnz	r0, 8002de8 <_ZN4core9ub_checks23is_aligned_and_not_null17h73cafdb3f306ce6dE+0x1e>
 8002dde:	e7ff      	b.n	8002de0 <_ZN4core9ub_checks23is_aligned_and_not_null17h73cafdb3f306ce6dE+0x16>
 8002de0:	2000      	movs	r0, #0
 8002de2:	f807 0c31 	strb.w	r0, [r7, #-49]
 8002de6:	e019      	b.n	8002e1c <_ZN4core9ub_checks23is_aligned_and_not_null17h73cafdb3f306ce6dE+0x52>
 8002de8:	9801      	ldr	r0, [sp, #4]
 8002dea:	f04f 3155 	mov.w	r1, #1431655765	; 0x55555555
 8002dee:	ea01 0150 	and.w	r1, r1, r0, lsr #1
 8002df2:	1a40      	subs	r0, r0, r1
 8002df4:	f04f 3133 	mov.w	r1, #858993459	; 0x33333333
 8002df8:	ea01 0190 	and.w	r1, r1, r0, lsr #2
 8002dfc:	f020 30cc 	bic.w	r0, r0, #3435973836	; 0xcccccccc
 8002e00:	4408      	add	r0, r1
 8002e02:	eb00 1010 	add.w	r0, r0, r0, lsr #4
 8002e06:	f020 30f0 	bic.w	r0, r0, #4042322160	; 0xf0f0f0f0
 8002e0a:	f04f 3101 	mov.w	r1, #16843009	; 0x1010101
 8002e0e:	4348      	muls	r0, r1
 8002e10:	0e00      	lsrs	r0, r0, #24
 8002e12:	900d      	str	r0, [sp, #52]	; 0x34
 8002e14:	980d      	ldr	r0, [sp, #52]	; 0x34
 8002e16:	2801      	cmp	r0, #1
 8002e18:	d006      	beq.n	8002e28 <_ZN4core9ub_checks23is_aligned_and_not_null17h73cafdb3f306ce6dE+0x5e>
 8002e1a:	e00f      	b.n	8002e3c <_ZN4core9ub_checks23is_aligned_and_not_null17h73cafdb3f306ce6dE+0x72>
 8002e1c:	f817 0c31 	ldrb.w	r0, [r7, #-49]
 8002e20:	f000 0001 	and.w	r0, r0, #1
 8002e24:	b010      	add	sp, #64	; 0x40
 8002e26:	bd80      	pop	{r7, pc}
 8002e28:	9802      	ldr	r0, [sp, #8]
 8002e2a:	9901      	ldr	r1, [sp, #4]
 8002e2c:	3901      	subs	r1, #1
 8002e2e:	4008      	ands	r0, r1
 8002e30:	fab0 f080 	clz	r0, r0
 8002e34:	0940      	lsrs	r0, r0, #5
 8002e36:	f807 0c31 	strb.w	r0, [r7, #-49]
 8002e3a:	e7ef      	b.n	8002e1c <_ZN4core9ub_checks23is_aligned_and_not_null17h73cafdb3f306ce6dE+0x52>
 8002e3c:	f249 21f4 	movw	r1, #37620	; 0x92f4
 8002e40:	f6c0 0100 	movt	r1, #2048	; 0x800
 8002e44:	910e      	str	r1, [sp, #56]	; 0x38
 8002e46:	2001      	movs	r0, #1
 8002e48:	900f      	str	r0, [sp, #60]	; 0x3c
 8002e4a:	9104      	str	r1, [sp, #16]
 8002e4c:	9005      	str	r0, [sp, #20]
 8002e4e:	f648 2028 	movw	r0, #35368	; 0x8a28
 8002e52:	f6c0 0000 	movt	r0, #2048	; 0x800
 8002e56:	6801      	ldr	r1, [r0, #0]
 8002e58:	6840      	ldr	r0, [r0, #4]
 8002e5a:	9108      	str	r1, [sp, #32]
 8002e5c:	9009      	str	r0, [sp, #36]	; 0x24
 8002e5e:	2004      	movs	r0, #4
 8002e60:	9006      	str	r0, [sp, #24]
 8002e62:	2000      	movs	r0, #0
 8002e64:	9007      	str	r0, [sp, #28]
 8002e66:	f249 3150 	movw	r1, #37712	; 0x9350
 8002e6a:	f6c0 0100 	movt	r1, #2048	; 0x800
 8002e6e:	a804      	add	r0, sp, #16
 8002e70:	f004 fbaf 	bl	80075d2 <_ZN4core9panicking9panic_fmt17hfc78cf87d9b52ef4E>

08002e74 <_ZN50_$LT$T$u20$as$u20$core..convert..Into$LT$U$GT$$GT$4into17h09173358117f67deE>:
 8002e74:	b081      	sub	sp, #4
 8002e76:	f88d 0002 	strb.w	r0, [sp, #2]
 8002e7a:	f88d 0003 	strb.w	r0, [sp, #3]
 8002e7e:	f89d 0003 	ldrb.w	r0, [sp, #3]
 8002e82:	b001      	add	sp, #4
 8002e84:	4770      	bx	lr

08002e86 <_ZN4mem310checkpoint14initialization17ha814dc6fc78fdf63E>:
 8002e86:	b5b0      	push	{r4, r5, r7, lr}
 8002e88:	af02      	add	r7, sp, #8
 8002e8a:	f5ad 5dcd 	sub.w	sp, sp, #6560	; 0x19a0
 8002e8e:	b086      	sub	sp, #24
 8002e90:	f10d 0e0c 	add.w	lr, sp, #12
 8002e94:	f50e 5081 	add.w	r0, lr, #4128	; 0x1020
 8002e98:	902a      	str	r0, [sp, #168]	; 0xa8
 8002e9a:	f7fd f9c5 	bl	8000228 <_ZN7stm32f39stm32f30311Peripherals4take17h0a543645a8c95398E>
 8002e9e:	f88d 00df 	strb.w	r0, [sp, #223]	; 0xdf
 8002ea2:	f89d 00df 	ldrb.w	r0, [sp, #223]	; 0xdf
 8002ea6:	07c0      	lsls	r0, r0, #31
 8002ea8:	b930      	cbnz	r0, 8002eb8 <_ZN4mem310checkpoint14initialization17ha814dc6fc78fdf63E+0x32>
 8002eaa:	e7ff      	b.n	8002eac <_ZN4mem310checkpoint14initialization17ha814dc6fc78fdf63E+0x26>
 8002eac:	f249 3078 	movw	r0, #37752	; 0x9378
 8002eb0:	f6c0 0000 	movt	r0, #2048	; 0x800
 8002eb4:	f004 fb83 	bl	80075be <_ZN4core6option13unwrap_failed17h7862ad8064d6fc0bE>
 8002eb8:	f10d 00b2 	add.w	r0, sp, #178	; 0xb2
 8002ebc:	9051      	str	r0, [sp, #324]	; 0x144
 8002ebe:	f241 0000 	movw	r0, #4096	; 0x1000
 8002ec2:	f2c4 0002 	movt	r0, #16386	; 0x4002
 8002ec6:	9029      	str	r0, [sp, #164]	; 0xa4
 8002ec8:	90e4      	str	r0, [sp, #912]	; 0x390
 8002eca:	2083      	movs	r0, #131	; 0x83
 8002ecc:	90e3      	str	r0, [sp, #908]	; 0x38c
 8002ece:	a8e3      	add	r0, sp, #908	; 0x38c
 8002ed0:	90e2      	str	r0, [sp, #904]	; 0x388
 8002ed2:	98e2      	ldr	r0, [sp, #904]	; 0x388
 8002ed4:	f7fd fa51 	bl	800037a <_ZN4mem310checkpoint14initialization28_$u7b$$u7b$closure$u7d$$u7d$17hdd777259f9d799e3E>
 8002ed8:	4601      	mov	r1, r0
 8002eda:	9829      	ldr	r0, [sp, #164]	; 0xa4
 8002edc:	6809      	ldr	r1, [r1, #0]
 8002ede:	90e5      	str	r0, [sp, #916]	; 0x394
 8002ee0:	91e6      	str	r1, [sp, #920]	; 0x398
 8002ee2:	90e7      	str	r0, [sp, #924]	; 0x39c
 8002ee4:	f004 fa85 	bl	80073f2 <_ZN4core3ptr14write_volatile17h46a673fe162f1e59E>
 8002ee8:	e7ff      	b.n	8002eea <_ZN4mem310checkpoint14initialization17ha814dc6fc78fdf63E+0x64>
 8002eea:	f10d 00b2 	add.w	r0, sp, #178	; 0xb2
 8002eee:	9050      	str	r0, [sp, #320]	; 0x140
 8002ef0:	f241 0000 	movw	r0, #4096	; 0x1000
 8002ef4:	f2c4 0002 	movt	r0, #16386	; 0x4002
 8002ef8:	90d9      	str	r0, [sp, #868]	; 0x364
 8002efa:	90da      	str	r0, [sp, #872]	; 0x368
 8002efc:	90db      	str	r0, [sp, #876]	; 0x36c
 8002efe:	f004 fa41 	bl	8007384 <_ZN4core3ptr13read_volatile17h384c2f472b76a07aE>
 8002f02:	90d8      	str	r0, [sp, #864]	; 0x360
 8002f04:	98d8      	ldr	r0, [sp, #864]	; 0x360
 8002f06:	902d      	str	r0, [sp, #180]	; 0xb4
 8002f08:	a82d      	add	r0, sp, #180	; 0xb4
 8002f0a:	f847 0c30 	str.w	r0, [r7, #-48]
 8002f0e:	f89d 00b4 	ldrb.w	r0, [sp, #180]	; 0xb4
 8002f12:	f3c0 0040 	ubfx	r0, r0, #1, #1
 8002f16:	f807 0c29 	strb.w	r0, [r7, #-41]
 8002f1a:	f807 0c2a 	strb.w	r0, [r7, #-42]
 8002f1e:	f817 0c2a 	ldrb.w	r0, [r7, #-42]
 8002f22:	f000 0001 	and.w	r0, r0, #1
 8002f26:	f88d 00b3 	strb.w	r0, [sp, #179]	; 0xb3
 8002f2a:	f10d 00b3 	add.w	r0, sp, #179	; 0xb3
 8002f2e:	90c4      	str	r0, [sp, #784]	; 0x310
 8002f30:	90c5      	str	r0, [sp, #788]	; 0x314
 8002f32:	f89d 00b3 	ldrb.w	r0, [sp, #179]	; 0xb3
 8002f36:	07c0      	lsls	r0, r0, #31
 8002f38:	2800      	cmp	r0, #0
 8002f3a:	d0d6      	beq.n	8002eea <_ZN4mem310checkpoint14initialization17ha814dc6fc78fdf63E+0x64>
 8002f3c:	e7ff      	b.n	8002f3e <_ZN4mem310checkpoint14initialization17ha814dc6fc78fdf63E+0xb8>
 8002f3e:	f10d 00b2 	add.w	r0, sp, #178	; 0xb2
 8002f42:	904f      	str	r0, [sp, #316]	; 0x13c
 8002f44:	f241 0000 	movw	r0, #4096	; 0x1000
 8002f48:	f2c4 0002 	movt	r0, #16386	; 0x4002
 8002f4c:	9028      	str	r0, [sp, #160]	; 0xa0
 8002f4e:	f8cd 0844 	str.w	r0, [sp, #2116]	; 0x844
 8002f52:	f8cd 084c 	str.w	r0, [sp, #2124]	; 0x84c
 8002f56:	f8cd 0850 	str.w	r0, [sp, #2128]	; 0x850
 8002f5a:	f004 fa13 	bl	8007384 <_ZN4core3ptr13read_volatile17h384c2f472b76a07aE>
 8002f5e:	f8cd 0848 	str.w	r0, [sp, #2120]	; 0x848
 8002f62:	f8cd 083c 	str.w	r0, [sp, #2108]	; 0x83c
 8002f66:	f8cd 0840 	str.w	r0, [sp, #2112]	; 0x840
 8002f6a:	f60d 003c 	addw	r0, sp, #2108	; 0x83c
 8002f6e:	f8cd 0834 	str.w	r0, [sp, #2100]	; 0x834
 8002f72:	f50d 6004 	add.w	r0, sp, #2112	; 0x840
 8002f76:	f8cd 0838 	str.w	r0, [sp, #2104]	; 0x838
 8002f7a:	f8dd 0834 	ldr.w	r0, [sp, #2100]	; 0x834
 8002f7e:	f8dd 1838 	ldr.w	r1, [sp, #2104]	; 0x838
 8002f82:	f7fd fa0c 	bl	800039e <_ZN4mem310checkpoint14initialization28_$u7b$$u7b$closure$u7d$$u7d$17h89f8f6221cae59bfE>
 8002f86:	4601      	mov	r1, r0
 8002f88:	9828      	ldr	r0, [sp, #160]	; 0xa0
 8002f8a:	6809      	ldr	r1, [r1, #0]
 8002f8c:	f8cd 0854 	str.w	r0, [sp, #2132]	; 0x854
 8002f90:	f8cd 1858 	str.w	r1, [sp, #2136]	; 0x858
 8002f94:	f8cd 085c 	str.w	r0, [sp, #2140]	; 0x85c
 8002f98:	f004 fa2b 	bl	80073f2 <_ZN4core3ptr14write_volatile17h46a673fe162f1e59E>
 8002f9c:	e7ff      	b.n	8002f9e <_ZN4mem310checkpoint14initialization17ha814dc6fc78fdf63E+0x118>
 8002f9e:	f10d 00b2 	add.w	r0, sp, #178	; 0xb2
 8002fa2:	904e      	str	r0, [sp, #312]	; 0x138
 8002fa4:	f241 0000 	movw	r0, #4096	; 0x1000
 8002fa8:	f2c4 0002 	movt	r0, #16386	; 0x4002
 8002fac:	90d5      	str	r0, [sp, #852]	; 0x354
 8002fae:	90d6      	str	r0, [sp, #856]	; 0x358
 8002fb0:	90d7      	str	r0, [sp, #860]	; 0x35c
 8002fb2:	f004 f9e7 	bl	8007384 <_ZN4core3ptr13read_volatile17h384c2f472b76a07aE>
 8002fb6:	90d4      	str	r0, [sp, #848]	; 0x350
 8002fb8:	98d4      	ldr	r0, [sp, #848]	; 0x350
 8002fba:	902f      	str	r0, [sp, #188]	; 0xbc
 8002fbc:	a82f      	add	r0, sp, #188	; 0xbc
 8002fbe:	f847 0c20 	str.w	r0, [r7, #-32]
 8002fc2:	982f      	ldr	r0, [sp, #188]	; 0xbc
 8002fc4:	f3c0 6040 	ubfx	r0, r0, #25, #1
 8002fc8:	f807 0c19 	strb.w	r0, [r7, #-25]
 8002fcc:	f807 0c1a 	strb.w	r0, [r7, #-26]
 8002fd0:	f817 0c1a 	ldrb.w	r0, [r7, #-26]
 8002fd4:	f000 0001 	and.w	r0, r0, #1
 8002fd8:	f88d 00bb 	strb.w	r0, [sp, #187]	; 0xbb
 8002fdc:	f10d 00bb 	add.w	r0, sp, #187	; 0xbb
 8002fe0:	90c2      	str	r0, [sp, #776]	; 0x308
 8002fe2:	90c7      	str	r0, [sp, #796]	; 0x31c
 8002fe4:	f89d 00bb 	ldrb.w	r0, [sp, #187]	; 0xbb
 8002fe8:	07c0      	lsls	r0, r0, #31
 8002fea:	2800      	cmp	r0, #0
 8002fec:	d1d7      	bne.n	8002f9e <_ZN4mem310checkpoint14initialization17ha814dc6fc78fdf63E+0x118>
 8002fee:	e7ff      	b.n	8002ff0 <_ZN4mem310checkpoint14initialization17ha814dc6fc78fdf63E+0x16a>
 8002ff0:	f10d 00b2 	add.w	r0, sp, #178	; 0xb2
 8002ff4:	9026      	str	r0, [sp, #152]	; 0x98
 8002ff6:	904d      	str	r0, [sp, #308]	; 0x134
 8002ff8:	f241 0004 	movw	r0, #4100	; 0x1004
 8002ffc:	f2c4 0002 	movt	r0, #16386	; 0x4002
 8003000:	9025      	str	r0, [sp, #148]	; 0x94
 8003002:	f8cd 06e4 	str.w	r0, [sp, #1764]	; 0x6e4
 8003006:	f8cd 06ec 	str.w	r0, [sp, #1772]	; 0x6ec
 800300a:	f8cd 06f0 	str.w	r0, [sp, #1776]	; 0x6f0
 800300e:	f004 f9b9 	bl	8007384 <_ZN4core3ptr13read_volatile17h384c2f472b76a07aE>
 8003012:	f8cd 06e8 	str.w	r0, [sp, #1768]	; 0x6e8
 8003016:	f8cd 06dc 	str.w	r0, [sp, #1756]	; 0x6dc
 800301a:	f8cd 06e0 	str.w	r0, [sp, #1760]	; 0x6e0
 800301e:	f20d 60dc 	addw	r0, sp, #1756	; 0x6dc
 8003022:	f8cd 06d4 	str.w	r0, [sp, #1748]	; 0x6d4
 8003026:	f50d 60dc 	add.w	r0, sp, #1760	; 0x6e0
 800302a:	f8cd 06d8 	str.w	r0, [sp, #1752]	; 0x6d8
 800302e:	f8dd 06d4 	ldr.w	r0, [sp, #1748]	; 0x6d4
 8003032:	f8dd 16d8 	ldr.w	r1, [sp, #1752]	; 0x6d8
 8003036:	f7fd f9c5 	bl	80003c4 <_ZN4mem310checkpoint14initialization28_$u7b$$u7b$closure$u7d$$u7d$17he48d7eb1df9f88c3E>
 800303a:	4601      	mov	r1, r0
 800303c:	9825      	ldr	r0, [sp, #148]	; 0x94
 800303e:	6809      	ldr	r1, [r1, #0]
 8003040:	f8cd 06f4 	str.w	r0, [sp, #1780]	; 0x6f4
 8003044:	f8cd 16f8 	str.w	r1, [sp, #1784]	; 0x6f8
 8003048:	f8cd 06fc 	str.w	r0, [sp, #1788]	; 0x6fc
 800304c:	f004 f9d1 	bl	80073f2 <_ZN4core3ptr14write_volatile17h46a673fe162f1e59E>
 8003050:	9826      	ldr	r0, [sp, #152]	; 0x98
 8003052:	904c      	str	r0, [sp, #304]	; 0x130
 8003054:	f241 002c 	movw	r0, #4140	; 0x102c
 8003058:	f2c4 0002 	movt	r0, #16386	; 0x4002
 800305c:	9024      	str	r0, [sp, #144]	; 0x90
 800305e:	f8cd 0a80 	str.w	r0, [sp, #2688]	; 0xa80
 8003062:	f8cd 0a88 	str.w	r0, [sp, #2696]	; 0xa88
 8003066:	f8cd 0a8c 	str.w	r0, [sp, #2700]	; 0xa8c
 800306a:	f004 f98b 	bl	8007384 <_ZN4core3ptr13read_volatile17h384c2f472b76a07aE>
 800306e:	f8cd 0a84 	str.w	r0, [sp, #2692]	; 0xa84
 8003072:	f8cd 0a78 	str.w	r0, [sp, #2680]	; 0xa78
 8003076:	f8cd 0a7c 	str.w	r0, [sp, #2684]	; 0xa7c
 800307a:	f60d 2078 	addw	r0, sp, #2680	; 0xa78
 800307e:	f8cd 0a70 	str.w	r0, [sp, #2672]	; 0xa70
 8003082:	f60d 207c 	addw	r0, sp, #2684	; 0xa7c
 8003086:	f8cd 0a74 	str.w	r0, [sp, #2676]	; 0xa74
 800308a:	f8dd 0a70 	ldr.w	r0, [sp, #2672]	; 0xa70
 800308e:	f8dd 1a74 	ldr.w	r1, [sp, #2676]	; 0xa74
 8003092:	f7fd f9c0 	bl	8000416 <_ZN4mem310checkpoint14initialization28_$u7b$$u7b$closure$u7d$$u7d$17hb12097bbe01ef4f9E>
 8003096:	4601      	mov	r1, r0
 8003098:	9824      	ldr	r0, [sp, #144]	; 0x90
 800309a:	6809      	ldr	r1, [r1, #0]
 800309c:	f8cd 0a90 	str.w	r0, [sp, #2704]	; 0xa90
 80030a0:	f8cd 1a94 	str.w	r1, [sp, #2708]	; 0xa94
 80030a4:	f8cd 0a98 	str.w	r0, [sp, #2712]	; 0xa98
 80030a8:	f004 f9a3 	bl	80073f2 <_ZN4core3ptr14write_volatile17h46a673fe162f1e59E>
 80030ac:	992a      	ldr	r1, [sp, #168]	; 0xa8
 80030ae:	9825      	ldr	r0, [sp, #148]	; 0x94
 80030b0:	9a26      	ldr	r2, [sp, #152]	; 0x98
 80030b2:	924b      	str	r2, [sp, #300]	; 0x12c
 80030b4:	f8c1 0738 	str.w	r0, [r1, #1848]	; 0x738
 80030b8:	f8c1 0740 	str.w	r0, [r1, #1856]	; 0x740
 80030bc:	f8c1 0744 	str.w	r0, [r1, #1860]	; 0x744
 80030c0:	f004 f960 	bl	8007384 <_ZN4core3ptr13read_volatile17h384c2f472b76a07aE>
 80030c4:	992a      	ldr	r1, [sp, #168]	; 0xa8
 80030c6:	f8c1 073c 	str.w	r0, [r1, #1852]	; 0x73c
 80030ca:	f8c1 0730 	str.w	r0, [r1, #1840]	; 0x730
 80030ce:	f8c1 0734 	str.w	r0, [r1, #1844]	; 0x734
 80030d2:	f10d 0e1c 	add.w	lr, sp, #28
 80030d6:	f50e 50ba 	add.w	r0, lr, #5952	; 0x1740
 80030da:	f8c1 0728 	str.w	r0, [r1, #1832]	; 0x728
 80030de:	f50d 50bb 	add.w	r0, sp, #5984	; 0x1760
 80030e2:	f8c1 072c 	str.w	r0, [r1, #1836]	; 0x72c
 80030e6:	f8d1 0728 	ldr.w	r0, [r1, #1832]	; 0x728
 80030ea:	f8d1 172c 	ldr.w	r1, [r1, #1836]	; 0x72c
 80030ee:	f7fd f9b7 	bl	8000460 <_ZN4mem310checkpoint14initialization28_$u7b$$u7b$closure$u7d$$u7d$17h20e261f744b9fd8cE>
 80030f2:	9a2a      	ldr	r2, [sp, #168]	; 0xa8
 80030f4:	4601      	mov	r1, r0
 80030f6:	9825      	ldr	r0, [sp, #148]	; 0x94
 80030f8:	6809      	ldr	r1, [r1, #0]
 80030fa:	f8c2 0748 	str.w	r0, [r2, #1864]	; 0x748
 80030fe:	f8c2 174c 	str.w	r1, [r2, #1868]	; 0x74c
 8003102:	f8c2 0750 	str.w	r0, [r2, #1872]	; 0x750
 8003106:	f004 f974 	bl	80073f2 <_ZN4core3ptr14write_volatile17h46a673fe162f1e59E>
 800310a:	9826      	ldr	r0, [sp, #152]	; 0x98
 800310c:	904a      	str	r0, [sp, #296]	; 0x128
 800310e:	f241 0000 	movw	r0, #4096	; 0x1000
 8003112:	f2c4 0002 	movt	r0, #16386	; 0x4002
 8003116:	9027      	str	r0, [sp, #156]	; 0x9c
 8003118:	f8cd 0c0c 	str.w	r0, [sp, #3084]	; 0xc0c
 800311c:	f8cd 0c14 	str.w	r0, [sp, #3092]	; 0xc14
 8003120:	f8cd 0c18 	str.w	r0, [sp, #3096]	; 0xc18
 8003124:	f004 f92e 	bl	8007384 <_ZN4core3ptr13read_volatile17h384c2f472b76a07aE>
 8003128:	f8cd 0c10 	str.w	r0, [sp, #3088]	; 0xc10
 800312c:	f8cd 0c04 	str.w	r0, [sp, #3076]	; 0xc04
 8003130:	f8cd 0c08 	str.w	r0, [sp, #3080]	; 0xc08
 8003134:	f60d 4004 	addw	r0, sp, #3076	; 0xc04
 8003138:	f8cd 0bfc 	str.w	r0, [sp, #3068]	; 0xbfc
 800313c:	f60d 4008 	addw	r0, sp, #3080	; 0xc08
 8003140:	f8cd 0c00 	str.w	r0, [sp, #3072]	; 0xc00
 8003144:	f8dd 0bfc 	ldr.w	r0, [sp, #3068]	; 0xbfc
 8003148:	f8dd 1c00 	ldr.w	r1, [sp, #3072]	; 0xc00
 800314c:	f7fd f9b1 	bl	80004b2 <_ZN4mem310checkpoint14initialization28_$u7b$$u7b$closure$u7d$$u7d$17hd1acbf715ea6f79fE>
 8003150:	4601      	mov	r1, r0
 8003152:	9827      	ldr	r0, [sp, #156]	; 0x9c
 8003154:	6809      	ldr	r1, [r1, #0]
 8003156:	f8cd 0c1c 	str.w	r0, [sp, #3100]	; 0xc1c
 800315a:	f8cd 1c20 	str.w	r1, [sp, #3104]	; 0xc20
 800315e:	f8cd 0c24 	str.w	r0, [sp, #3108]	; 0xc24
 8003162:	f004 f946 	bl	80073f2 <_ZN4core3ptr14write_volatile17h46a673fe162f1e59E>
 8003166:	e7ff      	b.n	8003168 <_ZN4mem310checkpoint14initialization17ha814dc6fc78fdf63E+0x2e2>
 8003168:	f10d 00b2 	add.w	r0, sp, #178	; 0xb2
 800316c:	9049      	str	r0, [sp, #292]	; 0x124
 800316e:	f241 0000 	movw	r0, #4096	; 0x1000
 8003172:	f2c4 0002 	movt	r0, #16386	; 0x4002
 8003176:	90d1      	str	r0, [sp, #836]	; 0x344
 8003178:	90d2      	str	r0, [sp, #840]	; 0x348
 800317a:	90d3      	str	r0, [sp, #844]	; 0x34c
 800317c:	f004 f902 	bl	8007384 <_ZN4core3ptr13read_volatile17h384c2f472b76a07aE>
 8003180:	90d0      	str	r0, [sp, #832]	; 0x340
 8003182:	98d0      	ldr	r0, [sp, #832]	; 0x340
 8003184:	9031      	str	r0, [sp, #196]	; 0xc4
 8003186:	a831      	add	r0, sp, #196	; 0xc4
 8003188:	f847 0c28 	str.w	r0, [r7, #-40]
 800318c:	9831      	ldr	r0, [sp, #196]	; 0xc4
 800318e:	f3c0 6040 	ubfx	r0, r0, #25, #1
 8003192:	f807 0c21 	strb.w	r0, [r7, #-33]
 8003196:	f807 0c22 	strb.w	r0, [r7, #-34]
 800319a:	f817 0c22 	ldrb.w	r0, [r7, #-34]
 800319e:	f000 0001 	and.w	r0, r0, #1
 80031a2:	f88d 00c3 	strb.w	r0, [sp, #195]	; 0xc3
 80031a6:	f10d 00c3 	add.w	r0, sp, #195	; 0xc3
 80031aa:	90c3      	str	r0, [sp, #780]	; 0x30c
 80031ac:	90c6      	str	r0, [sp, #792]	; 0x318
 80031ae:	f89d 00c3 	ldrb.w	r0, [sp, #195]	; 0xc3
 80031b2:	07c0      	lsls	r0, r0, #31
 80031b4:	2800      	cmp	r0, #0
 80031b6:	d0d7      	beq.n	8003168 <_ZN4mem310checkpoint14initialization17ha814dc6fc78fdf63E+0x2e2>
 80031b8:	e7ff      	b.n	80031ba <_ZN4mem310checkpoint14initialization17ha814dc6fc78fdf63E+0x334>
 80031ba:	f10d 00b2 	add.w	r0, sp, #178	; 0xb2
 80031be:	9022      	str	r0, [sp, #136]	; 0x88
 80031c0:	9048      	str	r0, [sp, #288]	; 0x120
 80031c2:	f241 0004 	movw	r0, #4100	; 0x1004
 80031c6:	f2c4 0002 	movt	r0, #16386	; 0x4002
 80031ca:	9023      	str	r0, [sp, #140]	; 0x8c
 80031cc:	f8cd 0d14 	str.w	r0, [sp, #3348]	; 0xd14
 80031d0:	f8cd 0d1c 	str.w	r0, [sp, #3356]	; 0xd1c
 80031d4:	f8cd 0d20 	str.w	r0, [sp, #3360]	; 0xd20
 80031d8:	f004 f8d4 	bl	8007384 <_ZN4core3ptr13read_volatile17h384c2f472b76a07aE>
 80031dc:	f8cd 0d18 	str.w	r0, [sp, #3352]	; 0xd18
 80031e0:	f8cd 0d0c 	str.w	r0, [sp, #3340]	; 0xd0c
 80031e4:	f8cd 0d10 	str.w	r0, [sp, #3344]	; 0xd10
 80031e8:	f60d 500c 	addw	r0, sp, #3340	; 0xd0c
 80031ec:	f8cd 0d04 	str.w	r0, [sp, #3332]	; 0xd04
 80031f0:	f50d 6051 	add.w	r0, sp, #3344	; 0xd10
 80031f4:	f8cd 0d08 	str.w	r0, [sp, #3336]	; 0xd08
 80031f8:	f8dd 0d04 	ldr.w	r0, [sp, #3332]	; 0xd04
 80031fc:	f8dd 1d08 	ldr.w	r1, [sp, #3336]	; 0xd08
 8003200:	f7fd f980 	bl	8000504 <_ZN4mem310checkpoint14initialization28_$u7b$$u7b$closure$u7d$$u7d$17ha61d5a86f02d888eE>
 8003204:	4601      	mov	r1, r0
 8003206:	9823      	ldr	r0, [sp, #140]	; 0x8c
 8003208:	6809      	ldr	r1, [r1, #0]
 800320a:	f8cd 0d24 	str.w	r0, [sp, #3364]	; 0xd24
 800320e:	f8cd 1d28 	str.w	r1, [sp, #3368]	; 0xd28
 8003212:	f8cd 0d2c 	str.w	r0, [sp, #3372]	; 0xd2c
 8003216:	f004 f8ec 	bl	80073f2 <_ZN4core3ptr14write_volatile17h46a673fe162f1e59E>
 800321a:	992a      	ldr	r1, [sp, #168]	; 0xa8
 800321c:	9822      	ldr	r0, [sp, #136]	; 0x88
 800321e:	9052      	str	r0, [sp, #328]	; 0x148
 8003220:	f242 0000 	movw	r0, #8192	; 0x2000
 8003224:	f2c4 0002 	movt	r0, #16386	; 0x4002
 8003228:	9021      	str	r0, [sp, #132]	; 0x84
 800322a:	f8c1 06e0 	str.w	r0, [r1, #1760]	; 0x6e0
 800322e:	f8c1 06e8 	str.w	r0, [r1, #1768]	; 0x6e8
 8003232:	f8c1 06ec 	str.w	r0, [r1, #1772]	; 0x6ec
 8003236:	f004 f8a5 	bl	8007384 <_ZN4core3ptr13read_volatile17h384c2f472b76a07aE>
 800323a:	992a      	ldr	r1, [sp, #168]	; 0xa8
 800323c:	f8c1 06e4 	str.w	r0, [r1, #1764]	; 0x6e4
 8003240:	f8c1 06d8 	str.w	r0, [r1, #1752]	; 0x6d8
 8003244:	f8c1 06dc 	str.w	r0, [r1, #1756]	; 0x6dc
 8003248:	f10d 0e04 	add.w	lr, sp, #4
 800324c:	f50e 50b8 	add.w	r0, lr, #5888	; 0x1700
 8003250:	f8c1 06d0 	str.w	r0, [r1, #1744]	; 0x6d0
 8003254:	f10d 0e08 	add.w	lr, sp, #8
 8003258:	f50e 50b8 	add.w	r0, lr, #5888	; 0x1700
 800325c:	f8c1 06d4 	str.w	r0, [r1, #1748]	; 0x6d4
 8003260:	f8d1 06d0 	ldr.w	r0, [r1, #1744]	; 0x6d0
 8003264:	f8d1 16d4 	ldr.w	r1, [r1, #1748]	; 0x6d4
 8003268:	f7fd f9ba 	bl	80005e0 <_ZN4mem310checkpoint14initialization28_$u7b$$u7b$closure$u7d$$u7d$17h87a1b0ac4795f589E>
 800326c:	9a2a      	ldr	r2, [sp, #168]	; 0xa8
 800326e:	4601      	mov	r1, r0
 8003270:	9821      	ldr	r0, [sp, #132]	; 0x84
 8003272:	6809      	ldr	r1, [r1, #0]
 8003274:	f8c2 06f0 	str.w	r0, [r2, #1776]	; 0x6f0
 8003278:	f8c2 16f4 	str.w	r1, [r2, #1780]	; 0x6f4
 800327c:	f8c2 06f8 	str.w	r0, [r2, #1784]	; 0x6f8
 8003280:	f004 f8b7 	bl	80073f2 <_ZN4core3ptr14write_volatile17h46a673fe162f1e59E>
 8003284:	9922      	ldr	r1, [sp, #136]	; 0x88
 8003286:	9823      	ldr	r0, [sp, #140]	; 0x8c
 8003288:	9147      	str	r1, [sp, #284]	; 0x11c
 800328a:	f8cd 0a54 	str.w	r0, [sp, #2644]	; 0xa54
 800328e:	f8cd 0a5c 	str.w	r0, [sp, #2652]	; 0xa5c
 8003292:	f8cd 0a60 	str.w	r0, [sp, #2656]	; 0xa60
 8003296:	f004 f875 	bl	8007384 <_ZN4core3ptr13read_volatile17h384c2f472b76a07aE>
 800329a:	f8cd 0a58 	str.w	r0, [sp, #2648]	; 0xa58
 800329e:	f8cd 0a4c 	str.w	r0, [sp, #2636]	; 0xa4c
 80032a2:	f8cd 0a50 	str.w	r0, [sp, #2640]	; 0xa50
 80032a6:	f60d 204c 	addw	r0, sp, #2636	; 0xa4c
 80032aa:	f8cd 0a44 	str.w	r0, [sp, #2628]	; 0xa44
 80032ae:	f50d 6025 	add.w	r0, sp, #2640	; 0xa50
 80032b2:	f8cd 0a48 	str.w	r0, [sp, #2632]	; 0xa48
 80032b6:	f8dd 0a44 	ldr.w	r0, [sp, #2628]	; 0xa44
 80032ba:	f8dd 1a48 	ldr.w	r1, [sp, #2632]	; 0xa48
 80032be:	f7fd f9d7 	bl	8000670 <_ZN4mem310checkpoint14initialization28_$u7b$$u7b$closure$u7d$$u7d$17hf703486b832bbd85E>
 80032c2:	4601      	mov	r1, r0
 80032c4:	9823      	ldr	r0, [sp, #140]	; 0x8c
 80032c6:	6809      	ldr	r1, [r1, #0]
 80032c8:	f8cd 0a64 	str.w	r0, [sp, #2660]	; 0xa64
 80032cc:	f8cd 1a68 	str.w	r1, [sp, #2664]	; 0xa68
 80032d0:	f8cd 0a6c 	str.w	r0, [sp, #2668]	; 0xa6c
 80032d4:	f004 f88d 	bl	80073f2 <_ZN4core3ptr14write_volatile17h46a673fe162f1e59E>
 80032d8:	e7ff      	b.n	80032da <_ZN4mem310checkpoint14initialization17ha814dc6fc78fdf63E+0x454>
 80032da:	f10d 00b2 	add.w	r0, sp, #178	; 0xb2
 80032de:	9046      	str	r0, [sp, #280]	; 0x118
 80032e0:	f241 0004 	movw	r0, #4100	; 0x1004
 80032e4:	f2c4 0002 	movt	r0, #16386	; 0x4002
 80032e8:	90cd      	str	r0, [sp, #820]	; 0x334
 80032ea:	90ce      	str	r0, [sp, #824]	; 0x338
 80032ec:	90cf      	str	r0, [sp, #828]	; 0x33c
 80032ee:	f004 f849 	bl	8007384 <_ZN4core3ptr13read_volatile17h384c2f472b76a07aE>
 80032f2:	90cc      	str	r0, [sp, #816]	; 0x330
 80032f4:	98cc      	ldr	r0, [sp, #816]	; 0x330
 80032f6:	9033      	str	r0, [sp, #204]	; 0xcc
 80032f8:	a833      	add	r0, sp, #204	; 0xcc
 80032fa:	f847 0c18 	str.w	r0, [r7, #-24]
 80032fe:	f89d 00cc 	ldrb.w	r0, [sp, #204]	; 0xcc
 8003302:	f000 0003 	and.w	r0, r0, #3
 8003306:	f807 0c11 	strb.w	r0, [r7, #-17]
 800330a:	f807 0c12 	strb.w	r0, [r7, #-18]
 800330e:	f817 0c12 	ldrb.w	r0, [r7, #-18]
 8003312:	f88d 00cb 	strb.w	r0, [sp, #203]	; 0xcb
 8003316:	f10d 00cb 	add.w	r0, sp, #203	; 0xcb
 800331a:	90c1      	str	r0, [sp, #772]	; 0x304
 800331c:	f89d 00cb 	ldrb.w	r0, [sp, #203]	; 0xcb
 8003320:	2802      	cmp	r0, #2
 8003322:	d1da      	bne.n	80032da <_ZN4mem310checkpoint14initialization17ha814dc6fc78fdf63E+0x454>
 8003324:	e7ff      	b.n	8003326 <_ZN4mem310checkpoint14initialization17ha814dc6fc78fdf63E+0x4a0>
 8003326:	f10d 00b2 	add.w	r0, sp, #178	; 0xb2
 800332a:	9045      	str	r0, [sp, #276]	; 0x114
 800332c:	f241 0004 	movw	r0, #4100	; 0x1004
 8003330:	f2c4 0002 	movt	r0, #16386	; 0x4002
 8003334:	90c9      	str	r0, [sp, #804]	; 0x324
 8003336:	90ca      	str	r0, [sp, #808]	; 0x328
 8003338:	90cb      	str	r0, [sp, #812]	; 0x32c
 800333a:	f004 f823 	bl	8007384 <_ZN4core3ptr13read_volatile17h384c2f472b76a07aE>
 800333e:	90c8      	str	r0, [sp, #800]	; 0x320
 8003340:	98c8      	ldr	r0, [sp, #800]	; 0x320
 8003342:	9035      	str	r0, [sp, #212]	; 0xd4
 8003344:	a835      	add	r0, sp, #212	; 0xd4
 8003346:	f847 0c10 	str.w	r0, [r7, #-16]
 800334a:	f89d 00d4 	ldrb.w	r0, [sp, #212]	; 0xd4
 800334e:	f3c0 0081 	ubfx	r0, r0, #2, #2
 8003352:	f807 0c09 	strb.w	r0, [r7, #-9]
 8003356:	f807 0c0a 	strb.w	r0, [r7, #-10]
 800335a:	f817 0c0a 	ldrb.w	r0, [r7, #-10]
 800335e:	f88d 00d3 	strb.w	r0, [sp, #211]	; 0xd3
 8003362:	f10d 00d3 	add.w	r0, sp, #211	; 0xd3
 8003366:	90c0      	str	r0, [sp, #768]	; 0x300
 8003368:	f89d 00d3 	ldrb.w	r0, [sp, #211]	; 0xd3
 800336c:	2802      	cmp	r0, #2
 800336e:	d1da      	bne.n	8003326 <_ZN4mem310checkpoint14initialization17ha814dc6fc78fdf63E+0x4a0>
 8003370:	e7ff      	b.n	8003372 <_ZN4mem310checkpoint14initialization17ha814dc6fc78fdf63E+0x4ec>
 8003372:	992a      	ldr	r1, [sp, #168]	; 0xa8
 8003374:	f10d 00b2 	add.w	r0, sp, #178	; 0xb2
 8003378:	901f      	str	r0, [sp, #124]	; 0x7c
 800337a:	9044      	str	r0, [sp, #272]	; 0x110
 800337c:	f241 0014 	movw	r0, #4116	; 0x1014
 8003380:	f2c4 0002 	movt	r0, #16386	; 0x4002
 8003384:	9000      	str	r0, [sp, #0]
 8003386:	f8c1 0814 	str.w	r0, [r1, #2068]	; 0x814
 800338a:	f8c1 081c 	str.w	r0, [r1, #2076]	; 0x81c
 800338e:	f8c1 0820 	str.w	r0, [r1, #2080]	; 0x820
 8003392:	f003 fff7 	bl	8007384 <_ZN4core3ptr13read_volatile17h384c2f472b76a07aE>
 8003396:	992a      	ldr	r1, [sp, #168]	; 0xa8
 8003398:	f8c1 0818 	str.w	r0, [r1, #2072]	; 0x818
 800339c:	f8c1 080c 	str.w	r0, [r1, #2060]	; 0x80c
 80033a0:	f8c1 0810 	str.w	r0, [r1, #2064]	; 0x810
 80033a4:	f10d 0e18 	add.w	lr, sp, #24
 80033a8:	f50e 50c1 	add.w	r0, lr, #6176	; 0x1820
 80033ac:	f8c1 0804 	str.w	r0, [r1, #2052]	; 0x804
 80033b0:	f10d 0e1c 	add.w	lr, sp, #28
 80033b4:	f50e 50c1 	add.w	r0, lr, #6176	; 0x1820
 80033b8:	f8c1 0808 	str.w	r0, [r1, #2056]	; 0x808
 80033bc:	f8d1 0804 	ldr.w	r0, [r1, #2052]	; 0x804
 80033c0:	f8d1 1808 	ldr.w	r1, [r1, #2056]	; 0x808
 80033c4:	f7fd f979 	bl	80006ba <_ZN4mem310checkpoint14initialization28_$u7b$$u7b$closure$u7d$$u7d$17hbcb67bb0ce24f3e5E>
 80033c8:	9a2a      	ldr	r2, [sp, #168]	; 0xa8
 80033ca:	4601      	mov	r1, r0
 80033cc:	9800      	ldr	r0, [sp, #0]
 80033ce:	6809      	ldr	r1, [r1, #0]
 80033d0:	f8c2 0824 	str.w	r0, [r2, #2084]	; 0x824
 80033d4:	f8c2 1828 	str.w	r1, [r2, #2088]	; 0x828
 80033d8:	f8c2 082c 	str.w	r0, [r2, #2092]	; 0x82c
 80033dc:	f004 f809 	bl	80073f2 <_ZN4core3ptr14write_volatile17h46a673fe162f1e59E>
 80033e0:	9800      	ldr	r0, [sp, #0]
 80033e2:	9a1f      	ldr	r2, [sp, #124]	; 0x7c
 80033e4:	992a      	ldr	r1, [sp, #168]	; 0xa8
 80033e6:	9243      	str	r2, [sp, #268]	; 0x10c
 80033e8:	f8c1 0840 	str.w	r0, [r1, #2112]	; 0x840
 80033ec:	f8c1 0848 	str.w	r0, [r1, #2120]	; 0x848
 80033f0:	f8c1 084c 	str.w	r0, [r1, #2124]	; 0x84c
 80033f4:	f003 ffc6 	bl	8007384 <_ZN4core3ptr13read_volatile17h384c2f472b76a07aE>
 80033f8:	992a      	ldr	r1, [sp, #168]	; 0xa8
 80033fa:	f8c1 0844 	str.w	r0, [r1, #2116]	; 0x844
 80033fe:	f8c1 0838 	str.w	r0, [r1, #2104]	; 0x838
 8003402:	f8c1 083c 	str.w	r0, [r1, #2108]	; 0x83c
 8003406:	f10d 0e04 	add.w	lr, sp, #4
 800340a:	f50e 50c3 	add.w	r0, lr, #6240	; 0x1860
 800340e:	f8c1 0830 	str.w	r0, [r1, #2096]	; 0x830
 8003412:	f10d 0e08 	add.w	lr, sp, #8
 8003416:	f50e 50c3 	add.w	r0, lr, #6240	; 0x1860
 800341a:	f8c1 0834 	str.w	r0, [r1, #2100]	; 0x834
 800341e:	f8d1 0830 	ldr.w	r0, [r1, #2096]	; 0x830
 8003422:	f8d1 1834 	ldr.w	r1, [r1, #2100]	; 0x834
 8003426:	f7fd f95b 	bl	80006e0 <_ZN4mem310checkpoint14initialization28_$u7b$$u7b$closure$u7d$$u7d$17h50f905d23fb49ca1E>
 800342a:	9a2a      	ldr	r2, [sp, #168]	; 0xa8
 800342c:	4601      	mov	r1, r0
 800342e:	9800      	ldr	r0, [sp, #0]
 8003430:	6809      	ldr	r1, [r1, #0]
 8003432:	f8c2 0850 	str.w	r0, [r2, #2128]	; 0x850
 8003436:	f8c2 1854 	str.w	r1, [r2, #2132]	; 0x854
 800343a:	f8c2 0858 	str.w	r0, [r2, #2136]	; 0x858
 800343e:	f003 ffd8 	bl	80073f2 <_ZN4core3ptr14write_volatile17h46a673fe162f1e59E>
 8003442:	9800      	ldr	r0, [sp, #0]
 8003444:	9a1f      	ldr	r2, [sp, #124]	; 0x7c
 8003446:	992a      	ldr	r1, [sp, #168]	; 0xa8
 8003448:	9242      	str	r2, [sp, #264]	; 0x108
 800344a:	f8c1 0898 	str.w	r0, [r1, #2200]	; 0x898
 800344e:	f8c1 08a0 	str.w	r0, [r1, #2208]	; 0x8a0
 8003452:	f8c1 08a4 	str.w	r0, [r1, #2212]	; 0x8a4
 8003456:	f003 ff95 	bl	8007384 <_ZN4core3ptr13read_volatile17h384c2f472b76a07aE>
 800345a:	992a      	ldr	r1, [sp, #168]	; 0xa8
 800345c:	f8c1 089c 	str.w	r0, [r1, #2204]	; 0x89c
 8003460:	f8c1 0890 	str.w	r0, [r1, #2192]	; 0x890
 8003464:	f8c1 0894 	str.w	r0, [r1, #2196]	; 0x894
 8003468:	f10d 0e1c 	add.w	lr, sp, #28
 800346c:	f50e 50c5 	add.w	r0, lr, #6304	; 0x18a0
 8003470:	f8c1 0888 	str.w	r0, [r1, #2184]	; 0x888
 8003474:	f50d 50c6 	add.w	r0, sp, #6336	; 0x18c0
 8003478:	f8c1 088c 	str.w	r0, [r1, #2188]	; 0x88c
 800347c:	f8d1 0888 	ldr.w	r0, [r1, #2184]	; 0x888
 8003480:	f8d1 188c 	ldr.w	r1, [r1, #2188]	; 0x88c
 8003484:	f7fd f93f 	bl	8000706 <_ZN4mem310checkpoint14initialization28_$u7b$$u7b$closure$u7d$$u7d$17had3fde5b628ec15dE>
 8003488:	9a2a      	ldr	r2, [sp, #168]	; 0xa8
 800348a:	4601      	mov	r1, r0
 800348c:	9800      	ldr	r0, [sp, #0]
 800348e:	6809      	ldr	r1, [r1, #0]
 8003490:	f8c2 08a8 	str.w	r0, [r2, #2216]	; 0x8a8
 8003494:	f8c2 18ac 	str.w	r1, [r2, #2220]	; 0x8ac
 8003498:	f8c2 08b0 	str.w	r0, [r2, #2224]	; 0x8b0
 800349c:	f003 ffa9 	bl	80073f2 <_ZN4core3ptr14write_volatile17h46a673fe162f1e59E>
 80034a0:	9800      	ldr	r0, [sp, #0]
 80034a2:	991f      	ldr	r1, [sp, #124]	; 0x7c
 80034a4:	9141      	str	r1, [sp, #260]	; 0x104
 80034a6:	f8cd 0d6c 	str.w	r0, [sp, #3436]	; 0xd6c
 80034aa:	f8cd 0d74 	str.w	r0, [sp, #3444]	; 0xd74
 80034ae:	f8cd 0d78 	str.w	r0, [sp, #3448]	; 0xd78
 80034b2:	f003 ff67 	bl	8007384 <_ZN4core3ptr13read_volatile17h384c2f472b76a07aE>
 80034b6:	f8cd 0d70 	str.w	r0, [sp, #3440]	; 0xd70
 80034ba:	f8cd 0d64 	str.w	r0, [sp, #3428]	; 0xd64
 80034be:	f8cd 0d68 	str.w	r0, [sp, #3432]	; 0xd68
 80034c2:	f60d 5064 	addw	r0, sp, #3428	; 0xd64
 80034c6:	f8cd 0d5c 	str.w	r0, [sp, #3420]	; 0xd5c
 80034ca:	f60d 5068 	addw	r0, sp, #3432	; 0xd68
 80034ce:	f8cd 0d60 	str.w	r0, [sp, #3424]	; 0xd60
 80034d2:	f8dd 0d5c 	ldr.w	r0, [sp, #3420]	; 0xd5c
 80034d6:	f8dd 1d60 	ldr.w	r1, [sp, #3424]	; 0xd60
 80034da:	f7fd f927 	bl	800072c <_ZN4mem310checkpoint14initialization28_$u7b$$u7b$closure$u7d$$u7d$17h402283c0c0c9a165E>
 80034de:	4601      	mov	r1, r0
 80034e0:	9800      	ldr	r0, [sp, #0]
 80034e2:	6809      	ldr	r1, [r1, #0]
 80034e4:	f8cd 0d7c 	str.w	r0, [sp, #3452]	; 0xd7c
 80034e8:	f8cd 1d80 	str.w	r1, [sp, #3456]	; 0xd80
 80034ec:	f8cd 0d84 	str.w	r0, [sp, #3460]	; 0xd84
 80034f0:	f003 ff7f 	bl	80073f2 <_ZN4core3ptr14write_volatile17h46a673fe162f1e59E>
 80034f4:	9800      	ldr	r0, [sp, #0]
 80034f6:	991f      	ldr	r1, [sp, #124]	; 0x7c
 80034f8:	9140      	str	r1, [sp, #256]	; 0x100
 80034fa:	f8cd 0ad8 	str.w	r0, [sp, #2776]	; 0xad8
 80034fe:	f8cd 0ae0 	str.w	r0, [sp, #2784]	; 0xae0
 8003502:	f8cd 0ae4 	str.w	r0, [sp, #2788]	; 0xae4
 8003506:	f003 ff3d 	bl	8007384 <_ZN4core3ptr13read_volatile17h384c2f472b76a07aE>
 800350a:	f8cd 0adc 	str.w	r0, [sp, #2780]	; 0xadc
 800350e:	f8cd 0ad0 	str.w	r0, [sp, #2768]	; 0xad0
 8003512:	f8cd 0ad4 	str.w	r0, [sp, #2772]	; 0xad4
 8003516:	f50d 602d 	add.w	r0, sp, #2768	; 0xad0
 800351a:	f8cd 0ac8 	str.w	r0, [sp, #2760]	; 0xac8
 800351e:	f60d 20d4 	addw	r0, sp, #2772	; 0xad4
 8003522:	f8cd 0acc 	str.w	r0, [sp, #2764]	; 0xacc
 8003526:	f8dd 0ac8 	ldr.w	r0, [sp, #2760]	; 0xac8
 800352a:	f8dd 1acc 	ldr.w	r1, [sp, #2764]	; 0xacc
 800352e:	f7fd f910 	bl	8000752 <_ZN4mem310checkpoint14initialization28_$u7b$$u7b$closure$u7d$$u7d$17he96672afe556b43cE>
 8003532:	4601      	mov	r1, r0
 8003534:	9800      	ldr	r0, [sp, #0]
 8003536:	6809      	ldr	r1, [r1, #0]
 8003538:	f8cd 0ae8 	str.w	r0, [sp, #2792]	; 0xae8
 800353c:	f8cd 1aec 	str.w	r1, [sp, #2796]	; 0xaec
 8003540:	f8cd 0af0 	str.w	r0, [sp, #2800]	; 0xaf0
 8003544:	f003 ff55 	bl	80073f2 <_ZN4core3ptr14write_volatile17h46a673fe162f1e59E>
 8003548:	9800      	ldr	r0, [sp, #0]
 800354a:	991f      	ldr	r1, [sp, #124]	; 0x7c
 800354c:	913f      	str	r1, [sp, #252]	; 0xfc
 800354e:	f8cd 09d0 	str.w	r0, [sp, #2512]	; 0x9d0
 8003552:	f8cd 09d8 	str.w	r0, [sp, #2520]	; 0x9d8
 8003556:	f8cd 09dc 	str.w	r0, [sp, #2524]	; 0x9dc
 800355a:	f003 ff13 	bl	8007384 <_ZN4core3ptr13read_volatile17h384c2f472b76a07aE>
 800355e:	f8cd 09d4 	str.w	r0, [sp, #2516]	; 0x9d4
 8003562:	f8cd 09c8 	str.w	r0, [sp, #2504]	; 0x9c8
 8003566:	f8cd 09cc 	str.w	r0, [sp, #2508]	; 0x9cc
 800356a:	f60d 10c8 	addw	r0, sp, #2504	; 0x9c8
 800356e:	f8cd 09c0 	str.w	r0, [sp, #2496]	; 0x9c0
 8003572:	f60d 10cc 	addw	r0, sp, #2508	; 0x9cc
 8003576:	f8cd 09c4 	str.w	r0, [sp, #2500]	; 0x9c4
 800357a:	f8dd 09c0 	ldr.w	r0, [sp, #2496]	; 0x9c0
 800357e:	f8dd 19c4 	ldr.w	r1, [sp, #2500]	; 0x9c4
 8003582:	f7fd f8f9 	bl	8000778 <_ZN4mem310checkpoint14initialization28_$u7b$$u7b$closure$u7d$$u7d$17hff75884f3d37c389E>
 8003586:	4601      	mov	r1, r0
 8003588:	9800      	ldr	r0, [sp, #0]
 800358a:	6809      	ldr	r1, [r1, #0]
 800358c:	f8cd 09e0 	str.w	r0, [sp, #2528]	; 0x9e0
 8003590:	f8cd 19e4 	str.w	r1, [sp, #2532]	; 0x9e4
 8003594:	f8cd 09e8 	str.w	r0, [sp, #2536]	; 0x9e8
 8003598:	f003 ff2b 	bl	80073f2 <_ZN4core3ptr14write_volatile17h46a673fe162f1e59E>
 800359c:	9800      	ldr	r0, [sp, #0]
 800359e:	991f      	ldr	r1, [sp, #124]	; 0x7c
 80035a0:	913e      	str	r1, [sp, #248]	; 0xf8
 80035a2:	f8cd 0920 	str.w	r0, [sp, #2336]	; 0x920
 80035a6:	f8cd 0928 	str.w	r0, [sp, #2344]	; 0x928
 80035aa:	f8cd 092c 	str.w	r0, [sp, #2348]	; 0x92c
 80035ae:	f003 fee9 	bl	8007384 <_ZN4core3ptr13read_volatile17h384c2f472b76a07aE>
 80035b2:	f8cd 0924 	str.w	r0, [sp, #2340]	; 0x924
 80035b6:	f8cd 0918 	str.w	r0, [sp, #2328]	; 0x918
 80035ba:	f8cd 091c 	str.w	r0, [sp, #2332]	; 0x91c
 80035be:	f60d 1018 	addw	r0, sp, #2328	; 0x918
 80035c2:	f8cd 0910 	str.w	r0, [sp, #2320]	; 0x910
 80035c6:	f60d 101c 	addw	r0, sp, #2332	; 0x91c
 80035ca:	f8cd 0914 	str.w	r0, [sp, #2324]	; 0x914
 80035ce:	f8dd 0910 	ldr.w	r0, [sp, #2320]	; 0x910
 80035d2:	f8dd 1914 	ldr.w	r1, [sp, #2324]	; 0x914
 80035d6:	f7fd f8e2 	bl	800079e <_ZN4mem310checkpoint14initialization28_$u7b$$u7b$closure$u7d$$u7d$17hfb0af2e8d0a9d3afE>
 80035da:	4601      	mov	r1, r0
 80035dc:	9800      	ldr	r0, [sp, #0]
 80035de:	6809      	ldr	r1, [r1, #0]
 80035e0:	f8cd 0930 	str.w	r0, [sp, #2352]	; 0x930
 80035e4:	f8cd 1934 	str.w	r1, [sp, #2356]	; 0x934
 80035e8:	f8cd 0938 	str.w	r0, [sp, #2360]	; 0x938
 80035ec:	f003 ff01 	bl	80073f2 <_ZN4core3ptr14write_volatile17h46a673fe162f1e59E>
 80035f0:	9800      	ldr	r0, [sp, #0]
 80035f2:	991f      	ldr	r1, [sp, #124]	; 0x7c
 80035f4:	913d      	str	r1, [sp, #244]	; 0xf4
 80035f6:	f8cd 0b5c 	str.w	r0, [sp, #2908]	; 0xb5c
 80035fa:	f8cd 0b64 	str.w	r0, [sp, #2916]	; 0xb64
 80035fe:	f8cd 0b68 	str.w	r0, [sp, #2920]	; 0xb68
 8003602:	f003 febf 	bl	8007384 <_ZN4core3ptr13read_volatile17h384c2f472b76a07aE>
 8003606:	f8cd 0b60 	str.w	r0, [sp, #2912]	; 0xb60
 800360a:	f8cd 0b54 	str.w	r0, [sp, #2900]	; 0xb54
 800360e:	f8cd 0b58 	str.w	r0, [sp, #2904]	; 0xb58
 8003612:	f60d 3054 	addw	r0, sp, #2900	; 0xb54
 8003616:	f8cd 0b4c 	str.w	r0, [sp, #2892]	; 0xb4c
 800361a:	f60d 3058 	addw	r0, sp, #2904	; 0xb58
 800361e:	f8cd 0b50 	str.w	r0, [sp, #2896]	; 0xb50
 8003622:	f8dd 0b4c 	ldr.w	r0, [sp, #2892]	; 0xb4c
 8003626:	f8dd 1b50 	ldr.w	r1, [sp, #2896]	; 0xb50
 800362a:	f7fd f8cb 	bl	80007c4 <_ZN4mem310checkpoint14initialization28_$u7b$$u7b$closure$u7d$$u7d$17h4725ab3c8c80e638E>
 800362e:	4601      	mov	r1, r0
 8003630:	9800      	ldr	r0, [sp, #0]
 8003632:	6809      	ldr	r1, [r1, #0]
 8003634:	f8cd 0b6c 	str.w	r0, [sp, #2924]	; 0xb6c
 8003638:	f8cd 1b70 	str.w	r1, [sp, #2928]	; 0xb70
 800363c:	f8cd 0b74 	str.w	r0, [sp, #2932]	; 0xb74
 8003640:	f003 fed7 	bl	80073f2 <_ZN4core3ptr14write_volatile17h46a673fe162f1e59E>
 8003644:	9800      	ldr	r0, [sp, #0]
 8003646:	991f      	ldr	r1, [sp, #124]	; 0x7c
 8003648:	913c      	str	r1, [sp, #240]	; 0xf0
 800364a:	f8cd 04a8 	str.w	r0, [sp, #1192]	; 0x4a8
 800364e:	f8cd 04b0 	str.w	r0, [sp, #1200]	; 0x4b0
 8003652:	f8cd 04b4 	str.w	r0, [sp, #1204]	; 0x4b4
 8003656:	f003 fe95 	bl	8007384 <_ZN4core3ptr13read_volatile17h384c2f472b76a07aE>
 800365a:	f8cd 04ac 	str.w	r0, [sp, #1196]	; 0x4ac
 800365e:	f8cd 04a0 	str.w	r0, [sp, #1184]	; 0x4a0
 8003662:	f8cd 04a4 	str.w	r0, [sp, #1188]	; 0x4a4
 8003666:	f50d 6094 	add.w	r0, sp, #1184	; 0x4a0
 800366a:	f8cd 0498 	str.w	r0, [sp, #1176]	; 0x498
 800366e:	f20d 40a4 	addw	r0, sp, #1188	; 0x4a4
 8003672:	f8cd 049c 	str.w	r0, [sp, #1180]	; 0x49c
 8003676:	f8dd 0498 	ldr.w	r0, [sp, #1176]	; 0x498
 800367a:	f8dd 149c 	ldr.w	r1, [sp, #1180]	; 0x49c
 800367e:	f7fd f8b4 	bl	80007ea <_ZN4mem310checkpoint14initialization28_$u7b$$u7b$closure$u7d$$u7d$17he4a62ee48a240cd8E>
 8003682:	4601      	mov	r1, r0
 8003684:	9800      	ldr	r0, [sp, #0]
 8003686:	6809      	ldr	r1, [r1, #0]
 8003688:	f8cd 04b8 	str.w	r0, [sp, #1208]	; 0x4b8
 800368c:	f8cd 14bc 	str.w	r1, [sp, #1212]	; 0x4bc
 8003690:	f8cd 04c0 	str.w	r0, [sp, #1216]	; 0x4c0
 8003694:	f003 fead 	bl	80073f2 <_ZN4core3ptr14write_volatile17h46a673fe162f1e59E>
 8003698:	981f      	ldr	r0, [sp, #124]	; 0x7c
 800369a:	992a      	ldr	r1, [sp, #168]	; 0xa8
 800369c:	903b      	str	r0, [sp, #236]	; 0xec
 800369e:	f241 0018 	movw	r0, #4120	; 0x1018
 80036a2:	f2c4 0002 	movt	r0, #16386	; 0x4002
 80036a6:	9001      	str	r0, [sp, #4]
 80036a8:	f8c1 070c 	str.w	r0, [r1, #1804]	; 0x70c
 80036ac:	f8c1 0714 	str.w	r0, [r1, #1812]	; 0x714
 80036b0:	f8c1 0718 	str.w	r0, [r1, #1816]	; 0x718
 80036b4:	f003 fe66 	bl	8007384 <_ZN4core3ptr13read_volatile17h384c2f472b76a07aE>
 80036b8:	992a      	ldr	r1, [sp, #168]	; 0xa8
 80036ba:	f8c1 0710 	str.w	r0, [r1, #1808]	; 0x710
 80036be:	f8c1 0704 	str.w	r0, [r1, #1796]	; 0x704
 80036c2:	f8c1 0708 	str.w	r0, [r1, #1800]	; 0x708
 80036c6:	f10d 0e10 	add.w	lr, sp, #16
 80036ca:	f50e 50b9 	add.w	r0, lr, #5920	; 0x1720
 80036ce:	f8c1 06fc 	str.w	r0, [r1, #1788]	; 0x6fc
 80036d2:	f10d 0e14 	add.w	lr, sp, #20
 80036d6:	f50e 50b9 	add.w	r0, lr, #5920	; 0x1720
 80036da:	f8c1 0700 	str.w	r0, [r1, #1792]	; 0x700
 80036de:	f8d1 06fc 	ldr.w	r0, [r1, #1788]	; 0x6fc
 80036e2:	f8d1 1700 	ldr.w	r1, [r1, #1792]	; 0x700
 80036e6:	f7fd f893 	bl	8000810 <_ZN4mem310checkpoint14initialization28_$u7b$$u7b$closure$u7d$$u7d$17h3579ce1b834de073E>
 80036ea:	9a2a      	ldr	r2, [sp, #168]	; 0xa8
 80036ec:	4601      	mov	r1, r0
 80036ee:	9801      	ldr	r0, [sp, #4]
 80036f0:	6809      	ldr	r1, [r1, #0]
 80036f2:	f8c2 071c 	str.w	r0, [r2, #1820]	; 0x71c
 80036f6:	f8c2 1720 	str.w	r1, [r2, #1824]	; 0x720
 80036fa:	f8c2 0724 	str.w	r0, [r2, #1828]	; 0x724
 80036fe:	f003 fe78 	bl	80073f2 <_ZN4core3ptr14write_volatile17h46a673fe162f1e59E>
 8003702:	981f      	ldr	r0, [sp, #124]	; 0x7c
 8003704:	992a      	ldr	r1, [sp, #168]	; 0xa8
 8003706:	903a      	str	r0, [sp, #232]	; 0xe8
 8003708:	f241 001c 	movw	r0, #4124	; 0x101c
 800370c:	f2c4 0002 	movt	r0, #16386	; 0x4002
 8003710:	9002      	str	r0, [sp, #8]
 8003712:	f8c1 0134 	str.w	r0, [r1, #308]	; 0x134
 8003716:	f8c1 013c 	str.w	r0, [r1, #316]	; 0x13c
 800371a:	f8c1 0140 	str.w	r0, [r1, #320]	; 0x140
 800371e:	f003 fe31 	bl	8007384 <_ZN4core3ptr13read_volatile17h384c2f472b76a07aE>
 8003722:	992a      	ldr	r1, [sp, #168]	; 0xa8
 8003724:	f8c1 0138 	str.w	r0, [r1, #312]	; 0x138
 8003728:	f8c1 012c 	str.w	r0, [r1, #300]	; 0x12c
 800372c:	f8c1 0130 	str.w	r0, [r1, #304]	; 0x130
 8003730:	f10d 0e18 	add.w	lr, sp, #24
 8003734:	f50e 508a 	add.w	r0, lr, #4416	; 0x1140
 8003738:	f8c1 0124 	str.w	r0, [r1, #292]	; 0x124
 800373c:	f10d 0e1c 	add.w	lr, sp, #28
 8003740:	f50e 508a 	add.w	r0, lr, #4416	; 0x1140
 8003744:	f8c1 0128 	str.w	r0, [r1, #296]	; 0x128
 8003748:	f8d1 0124 	ldr.w	r0, [r1, #292]	; 0x124
 800374c:	f8d1 1128 	ldr.w	r1, [r1, #296]	; 0x128
 8003750:	f7fd f871 	bl	8000836 <_ZN4mem310checkpoint14initialization28_$u7b$$u7b$closure$u7d$$u7d$17hb981377565f405baE>
 8003754:	9a2a      	ldr	r2, [sp, #168]	; 0xa8
 8003756:	4601      	mov	r1, r0
 8003758:	9802      	ldr	r0, [sp, #8]
 800375a:	6809      	ldr	r1, [r1, #0]
 800375c:	f8c2 0144 	str.w	r0, [r2, #324]	; 0x144
 8003760:	f8c2 1148 	str.w	r1, [r2, #328]	; 0x148
 8003764:	f8c2 014c 	str.w	r0, [r2, #332]	; 0x14c
 8003768:	f003 fe43 	bl	80073f2 <_ZN4core3ptr14write_volatile17h46a673fe162f1e59E>
 800376c:	981f      	ldr	r0, [sp, #124]	; 0x7c
 800376e:	9056      	str	r0, [sp, #344]	; 0x158
 8003770:	f640 0000 	movw	r0, #2048	; 0x800
 8003774:	f6c4 0000 	movt	r0, #18432	; 0x4800
 8003778:	9003      	str	r0, [sp, #12]
 800377a:	90f0      	str	r0, [sp, #960]	; 0x3c0
 800377c:	2000      	movs	r0, #0
 800377e:	9005      	str	r0, [sp, #20]
 8003780:	90ef      	str	r0, [sp, #956]	; 0x3bc
 8003782:	a8ef      	add	r0, sp, #956	; 0x3bc
 8003784:	90ee      	str	r0, [sp, #952]	; 0x3b8
 8003786:	98ee      	ldr	r0, [sp, #952]	; 0x3b8
 8003788:	f7fd f868 	bl	800085c <_ZN4mem310checkpoint14initialization28_$u7b$$u7b$closure$u7d$$u7d$17h944ce05cf4c740b9E>
 800378c:	4601      	mov	r1, r0
 800378e:	9803      	ldr	r0, [sp, #12]
 8003790:	6809      	ldr	r1, [r1, #0]
 8003792:	90f1      	str	r0, [sp, #964]	; 0x3c4
 8003794:	91f2      	str	r1, [sp, #968]	; 0x3c8
 8003796:	90f3      	str	r0, [sp, #972]	; 0x3cc
 8003798:	f003 fe2b 	bl	80073f2 <_ZN4core3ptr14write_volatile17h46a673fe162f1e59E>
 800379c:	9903      	ldr	r1, [sp, #12]
 800379e:	9805      	ldr	r0, [sp, #20]
 80037a0:	9a1f      	ldr	r2, [sp, #124]	; 0x7c
 80037a2:	9255      	str	r2, [sp, #340]	; 0x154
 80037a4:	91f6      	str	r1, [sp, #984]	; 0x3d8
 80037a6:	90f5      	str	r0, [sp, #980]	; 0x3d4
 80037a8:	a8f5      	add	r0, sp, #980	; 0x3d4
 80037aa:	90f4      	str	r0, [sp, #976]	; 0x3d0
 80037ac:	98f4      	ldr	r0, [sp, #976]	; 0x3d0
 80037ae:	f7fd f866 	bl	800087e <_ZN4mem310checkpoint14initialization28_$u7b$$u7b$closure$u7d$$u7d$17h897aceea0448d3e7E>
 80037b2:	4601      	mov	r1, r0
 80037b4:	9803      	ldr	r0, [sp, #12]
 80037b6:	6809      	ldr	r1, [r1, #0]
 80037b8:	90f7      	str	r0, [sp, #988]	; 0x3dc
 80037ba:	91f8      	str	r1, [sp, #992]	; 0x3e0
 80037bc:	90f9      	str	r0, [sp, #996]	; 0x3e4
 80037be:	f003 fe18 	bl	80073f2 <_ZN4core3ptr14write_volatile17h46a673fe162f1e59E>
 80037c2:	9805      	ldr	r0, [sp, #20]
 80037c4:	991f      	ldr	r1, [sp, #124]	; 0x7c
 80037c6:	9154      	str	r1, [sp, #336]	; 0x150
 80037c8:	f640 0114 	movw	r1, #2068	; 0x814
 80037cc:	f6c4 0100 	movt	r1, #18432	; 0x4800
 80037d0:	9104      	str	r1, [sp, #16]
 80037d2:	91de      	str	r1, [sp, #888]	; 0x378
 80037d4:	90dd      	str	r0, [sp, #884]	; 0x374
 80037d6:	a8dd      	add	r0, sp, #884	; 0x374
 80037d8:	90dc      	str	r0, [sp, #880]	; 0x370
 80037da:	98dc      	ldr	r0, [sp, #880]	; 0x370
 80037dc:	f7fd f860 	bl	80008a0 <_ZN4mem310checkpoint14initialization28_$u7b$$u7b$closure$u7d$$u7d$17ha2bd79f5a4021dc6E>
 80037e0:	4601      	mov	r1, r0
 80037e2:	9804      	ldr	r0, [sp, #16]
 80037e4:	6809      	ldr	r1, [r1, #0]
 80037e6:	90df      	str	r0, [sp, #892]	; 0x37c
 80037e8:	91e0      	str	r1, [sp, #896]	; 0x380
 80037ea:	90e1      	str	r0, [sp, #900]	; 0x384
 80037ec:	f003 fe01 	bl	80073f2 <_ZN4core3ptr14write_volatile17h46a673fe162f1e59E>
 80037f0:	9805      	ldr	r0, [sp, #20]
 80037f2:	991f      	ldr	r1, [sp, #124]	; 0x7c
 80037f4:	9153      	str	r1, [sp, #332]	; 0x14c
 80037f6:	2114      	movs	r1, #20
 80037f8:	f6c4 0100 	movt	r1, #18432	; 0x4800
 80037fc:	9106      	str	r1, [sp, #24]
 80037fe:	91ea      	str	r1, [sp, #936]	; 0x3a8
 8003800:	90e9      	str	r0, [sp, #932]	; 0x3a4
 8003802:	a8e9      	add	r0, sp, #932	; 0x3a4
 8003804:	90e8      	str	r0, [sp, #928]	; 0x3a0
 8003806:	98e8      	ldr	r0, [sp, #928]	; 0x3a0
 8003808:	f7fd f85c 	bl	80008c4 <_ZN4mem310checkpoint14initialization28_$u7b$$u7b$closure$u7d$$u7d$17hde8f32e78d6fb2f6E>
 800380c:	4601      	mov	r1, r0
 800380e:	9806      	ldr	r0, [sp, #24]
 8003810:	6809      	ldr	r1, [r1, #0]
 8003812:	90eb      	str	r0, [sp, #940]	; 0x3ac
 8003814:	91ec      	str	r1, [sp, #944]	; 0x3b0
 8003816:	90ed      	str	r0, [sp, #948]	; 0x3b4
 8003818:	f003 fdeb 	bl	80073f2 <_ZN4core3ptr14write_volatile17h46a673fe162f1e59E>
 800381c:	992a      	ldr	r1, [sp, #168]	; 0xa8
 800381e:	f10d 00de 	add.w	r0, sp, #222	; 0xde
 8003822:	9009      	str	r0, [sp, #36]	; 0x24
 8003824:	90bf      	str	r0, [sp, #764]	; 0x2fc
 8003826:	f641 4000 	movw	r0, #7168	; 0x1c00
 800382a:	f6c4 0000 	movt	r0, #18432	; 0x4800
 800382e:	9007      	str	r0, [sp, #28]
 8003830:	f8c1 03f4 	str.w	r0, [r1, #1012]	; 0x3f4
 8003834:	f8c1 03fc 	str.w	r0, [r1, #1020]	; 0x3fc
 8003838:	f8c1 0400 	str.w	r0, [r1, #1024]	; 0x400
 800383c:	f003 fda2 	bl	8007384 <_ZN4core3ptr13read_volatile17h384c2f472b76a07aE>
 8003840:	992a      	ldr	r1, [sp, #168]	; 0xa8
 8003842:	f8c1 03f8 	str.w	r0, [r1, #1016]	; 0x3f8
 8003846:	f8c1 03ec 	str.w	r0, [r1, #1004]	; 0x3ec
 800384a:	f8c1 03f0 	str.w	r0, [r1, #1008]	; 0x3f0
 800384e:	f10d 0e18 	add.w	lr, sp, #24
 8003852:	f50e 50a0 	add.w	r0, lr, #5120	; 0x1400
 8003856:	f8c1 03e4 	str.w	r0, [r1, #996]	; 0x3e4
 800385a:	f10d 0e1c 	add.w	lr, sp, #28
 800385e:	f50e 50a0 	add.w	r0, lr, #5120	; 0x1400
 8003862:	f8c1 03e8 	str.w	r0, [r1, #1000]	; 0x3e8
 8003866:	f8d1 03e4 	ldr.w	r0, [r1, #996]	; 0x3e4
 800386a:	f8d1 13e8 	ldr.w	r1, [r1, #1000]	; 0x3e8
 800386e:	f7fd f83b 	bl	80008e8 <_ZN4mem310checkpoint14initialization28_$u7b$$u7b$closure$u7d$$u7d$17h0085ec3819a354aaE>
 8003872:	9a2a      	ldr	r2, [sp, #168]	; 0xa8
 8003874:	4601      	mov	r1, r0
 8003876:	9807      	ldr	r0, [sp, #28]
 8003878:	6809      	ldr	r1, [r1, #0]
 800387a:	f8c2 0404 	str.w	r0, [r2, #1028]	; 0x404
 800387e:	f8c2 1408 	str.w	r1, [r2, #1032]	; 0x408
 8003882:	f8c2 040c 	str.w	r0, [r2, #1036]	; 0x40c
 8003886:	f003 fdb4 	bl	80073f2 <_ZN4core3ptr14write_volatile17h46a673fe162f1e59E>
 800388a:	9809      	ldr	r0, [sp, #36]	; 0x24
 800388c:	90be      	str	r0, [sp, #760]	; 0x2f8
 800388e:	f641 4020 	movw	r0, #7200	; 0x1c20
 8003892:	f6c4 0000 	movt	r0, #18432	; 0x4800
 8003896:	9008      	str	r0, [sp, #32]
 8003898:	f8cd 0660 	str.w	r0, [sp, #1632]	; 0x660
 800389c:	f8cd 0668 	str.w	r0, [sp, #1640]	; 0x668
 80038a0:	f8cd 066c 	str.w	r0, [sp, #1644]	; 0x66c
 80038a4:	f003 fd6e 	bl	8007384 <_ZN4core3ptr13read_volatile17h384c2f472b76a07aE>
 80038a8:	f8cd 0664 	str.w	r0, [sp, #1636]	; 0x664
 80038ac:	f8cd 0658 	str.w	r0, [sp, #1624]	; 0x658
 80038b0:	f8cd 065c 	str.w	r0, [sp, #1628]	; 0x65c
 80038b4:	f50d 60cb 	add.w	r0, sp, #1624	; 0x658
 80038b8:	f8cd 0650 	str.w	r0, [sp, #1616]	; 0x650
 80038bc:	f20d 605c 	addw	r0, sp, #1628	; 0x65c
 80038c0:	f8cd 0654 	str.w	r0, [sp, #1620]	; 0x654
 80038c4:	f8dd 0650 	ldr.w	r0, [sp, #1616]	; 0x650
 80038c8:	f8dd 1654 	ldr.w	r1, [sp, #1620]	; 0x654
 80038cc:	f7fd f831 	bl	8000932 <_ZN4mem310checkpoint14initialization28_$u7b$$u7b$closure$u7d$$u7d$17hd2e4416b4d3a7e79E>
 80038d0:	4601      	mov	r1, r0
 80038d2:	9808      	ldr	r0, [sp, #32]
 80038d4:	6809      	ldr	r1, [r1, #0]
 80038d6:	f8cd 0670 	str.w	r0, [sp, #1648]	; 0x670
 80038da:	f8cd 1674 	str.w	r1, [sp, #1652]	; 0x674
 80038de:	f8cd 0678 	str.w	r0, [sp, #1656]	; 0x678
 80038e2:	f003 fd86 	bl	80073f2 <_ZN4core3ptr14write_volatile17h46a673fe162f1e59E>
 80038e6:	9809      	ldr	r0, [sp, #36]	; 0x24
 80038e8:	992a      	ldr	r1, [sp, #168]	; 0xa8
 80038ea:	90bd      	str	r0, [sp, #756]	; 0x2f4
 80038ec:	f641 4008 	movw	r0, #7176	; 0x1c08
 80038f0:	f6c4 0000 	movt	r0, #18432	; 0x4800
 80038f4:	900a      	str	r0, [sp, #40]	; 0x28
 80038f6:	f8c1 0318 	str.w	r0, [r1, #792]	; 0x318
 80038fa:	f8c1 0320 	str.w	r0, [r1, #800]	; 0x320
 80038fe:	f8c1 0324 	str.w	r0, [r1, #804]	; 0x324
 8003902:	f003 fd3f 	bl	8007384 <_ZN4core3ptr13read_volatile17h384c2f472b76a07aE>
 8003906:	992a      	ldr	r1, [sp, #168]	; 0xa8
 8003908:	f8c1 031c 	str.w	r0, [r1, #796]	; 0x31c
 800390c:	f8c1 0310 	str.w	r0, [r1, #784]	; 0x310
 8003910:	f8c1 0314 	str.w	r0, [r1, #788]	; 0x314
 8003914:	f10d 0e1c 	add.w	lr, sp, #28
 8003918:	f50e 5099 	add.w	r0, lr, #4896	; 0x1320
 800391c:	f8c1 0308 	str.w	r0, [r1, #776]	; 0x308
 8003920:	f50d 509a 	add.w	r0, sp, #4928	; 0x1340
 8003924:	f8c1 030c 	str.w	r0, [r1, #780]	; 0x30c
 8003928:	f8d1 0308 	ldr.w	r0, [r1, #776]	; 0x308
 800392c:	f8d1 130c 	ldr.w	r1, [r1, #780]	; 0x30c
 8003930:	f7fd f824 	bl	800097c <_ZN4mem310checkpoint14initialization28_$u7b$$u7b$closure$u7d$$u7d$17hbc9dd1c4a5722e98E>
 8003934:	9a2a      	ldr	r2, [sp, #168]	; 0xa8
 8003936:	4601      	mov	r1, r0
 8003938:	980a      	ldr	r0, [sp, #40]	; 0x28
 800393a:	6809      	ldr	r1, [r1, #0]
 800393c:	f8c2 0328 	str.w	r0, [r2, #808]	; 0x328
 8003940:	f8c2 132c 	str.w	r1, [r2, #812]	; 0x32c
 8003944:	f8c2 0330 	str.w	r0, [r2, #816]	; 0x330
 8003948:	f003 fd53 	bl	80073f2 <_ZN4core3ptr14write_volatile17h46a673fe162f1e59E>
 800394c:	9807      	ldr	r0, [sp, #28]
 800394e:	9a09      	ldr	r2, [sp, #36]	; 0x24
 8003950:	992a      	ldr	r1, [sp, #168]	; 0xa8
 8003952:	92bc      	str	r2, [sp, #752]	; 0x2f0
 8003954:	f8c1 0420 	str.w	r0, [r1, #1056]	; 0x420
 8003958:	f8c1 0428 	str.w	r0, [r1, #1064]	; 0x428
 800395c:	f8c1 042c 	str.w	r0, [r1, #1068]	; 0x42c
 8003960:	f003 fd10 	bl	8007384 <_ZN4core3ptr13read_volatile17h384c2f472b76a07aE>
 8003964:	992a      	ldr	r1, [sp, #168]	; 0xa8
 8003966:	f8c1 0424 	str.w	r0, [r1, #1060]	; 0x424
 800396a:	f8c1 0418 	str.w	r0, [r1, #1048]	; 0x418
 800396e:	f8c1 041c 	str.w	r0, [r1, #1052]	; 0x41c
 8003972:	f10d 0e04 	add.w	lr, sp, #4
 8003976:	f50e 50a2 	add.w	r0, lr, #5184	; 0x1440
 800397a:	f8c1 0410 	str.w	r0, [r1, #1040]	; 0x410
 800397e:	f10d 0e08 	add.w	lr, sp, #8
 8003982:	f50e 50a2 	add.w	r0, lr, #5184	; 0x1440
 8003986:	f8c1 0414 	str.w	r0, [r1, #1044]	; 0x414
 800398a:	f8d1 0410 	ldr.w	r0, [r1, #1040]	; 0x410
 800398e:	f8d1 1414 	ldr.w	r1, [r1, #1044]	; 0x414
 8003992:	f7fd f818 	bl	80009c6 <_ZN4mem310checkpoint14initialization28_$u7b$$u7b$closure$u7d$$u7d$17h94593b7575b11cb0E>
 8003996:	9a2a      	ldr	r2, [sp, #168]	; 0xa8
 8003998:	4601      	mov	r1, r0
 800399a:	9807      	ldr	r0, [sp, #28]
 800399c:	6809      	ldr	r1, [r1, #0]
 800399e:	f8c2 0430 	str.w	r0, [r2, #1072]	; 0x430
 80039a2:	f8c2 1434 	str.w	r1, [r2, #1076]	; 0x434
 80039a6:	f8c2 0438 	str.w	r0, [r2, #1080]	; 0x438
 80039aa:	f003 fd22 	bl	80073f2 <_ZN4core3ptr14write_volatile17h46a673fe162f1e59E>
 80039ae:	9808      	ldr	r0, [sp, #32]
 80039b0:	9a09      	ldr	r2, [sp, #36]	; 0x24
 80039b2:	992a      	ldr	r1, [sp, #168]	; 0xa8
 80039b4:	92bb      	str	r2, [sp, #748]	; 0x2ec
 80039b6:	f8c1 0084 	str.w	r0, [r1, #132]	; 0x84
 80039ba:	f8c1 008c 	str.w	r0, [r1, #140]	; 0x8c
 80039be:	f8c1 0090 	str.w	r0, [r1, #144]	; 0x90
 80039c2:	f003 fcdf 	bl	8007384 <_ZN4core3ptr13read_volatile17h384c2f472b76a07aE>
 80039c6:	992a      	ldr	r1, [sp, #168]	; 0xa8
 80039c8:	f8c1 0088 	str.w	r0, [r1, #136]	; 0x88
 80039cc:	67c8      	str	r0, [r1, #124]	; 0x7c
 80039ce:	f8c1 0080 	str.w	r0, [r1, #128]	; 0x80
 80039d2:	f10d 0e08 	add.w	lr, sp, #8
 80039d6:	f50e 5085 	add.w	r0, lr, #4256	; 0x10a0
 80039da:	6748      	str	r0, [r1, #116]	; 0x74
 80039dc:	f10d 0e0c 	add.w	lr, sp, #12
 80039e0:	f50e 5085 	add.w	r0, lr, #4256	; 0x10a0
 80039e4:	6788      	str	r0, [r1, #120]	; 0x78
 80039e6:	6f48      	ldr	r0, [r1, #116]	; 0x74
 80039e8:	6f89      	ldr	r1, [r1, #120]	; 0x78
 80039ea:	f7fd f815 	bl	8000a18 <_ZN4mem310checkpoint14initialization28_$u7b$$u7b$closure$u7d$$u7d$17h4df02161c80f4d8dE>
 80039ee:	9a2a      	ldr	r2, [sp, #168]	; 0xa8
 80039f0:	4601      	mov	r1, r0
 80039f2:	9808      	ldr	r0, [sp, #32]
 80039f4:	6809      	ldr	r1, [r1, #0]
 80039f6:	f8c2 0094 	str.w	r0, [r2, #148]	; 0x94
 80039fa:	f8c2 1098 	str.w	r1, [r2, #152]	; 0x98
 80039fe:	f8c2 009c 	str.w	r0, [r2, #156]	; 0x9c
 8003a02:	f003 fcf6 	bl	80073f2 <_ZN4core3ptr14write_volatile17h46a673fe162f1e59E>
 8003a06:	9a09      	ldr	r2, [sp, #36]	; 0x24
 8003a08:	980a      	ldr	r0, [sp, #40]	; 0x28
 8003a0a:	992a      	ldr	r1, [sp, #168]	; 0xa8
 8003a0c:	92ba      	str	r2, [sp, #744]	; 0x2e8
 8003a0e:	6008      	str	r0, [r1, #0]
 8003a10:	6088      	str	r0, [r1, #8]
 8003a12:	60c8      	str	r0, [r1, #12]
 8003a14:	f003 fcb6 	bl	8007384 <_ZN4core3ptr13read_volatile17h384c2f472b76a07aE>
 8003a18:	992a      	ldr	r1, [sp, #168]	; 0xa8
 8003a1a:	6048      	str	r0, [r1, #4]
 8003a1c:	f50d 5e80 	add.w	lr, sp, #4096	; 0x1000
 8003a20:	f8ce 0024 	str.w	r0, [lr, #36]	; 0x24
 8003a24:	f50d 5e80 	add.w	lr, sp, #4096	; 0x1000
 8003a28:	f8ce 0028 	str.w	r0, [lr, #40]	; 0x28
 8003a2c:	f10d 0e04 	add.w	lr, sp, #4
 8003a30:	f50e 5081 	add.w	r0, lr, #4128	; 0x1020
 8003a34:	f50d 5e80 	add.w	lr, sp, #4096	; 0x1000
 8003a38:	f8ce 001c 	str.w	r0, [lr, #28]
 8003a3c:	f10d 0e08 	add.w	lr, sp, #8
 8003a40:	f50e 5081 	add.w	r0, lr, #4128	; 0x1020
 8003a44:	f50d 5e80 	add.w	lr, sp, #4096	; 0x1000
 8003a48:	f8ce 0020 	str.w	r0, [lr, #32]
 8003a4c:	f50d 5e80 	add.w	lr, sp, #4096	; 0x1000
 8003a50:	f8de 001c 	ldr.w	r0, [lr, #28]
 8003a54:	f50d 5e80 	add.w	lr, sp, #4096	; 0x1000
 8003a58:	f8de 1020 	ldr.w	r1, [lr, #32]
 8003a5c:	f7fd f805 	bl	8000a6a <_ZN4mem310checkpoint14initialization28_$u7b$$u7b$closure$u7d$$u7d$17h6f0e1a9fa20d7d3fE>
 8003a60:	9a2a      	ldr	r2, [sp, #168]	; 0xa8
 8003a62:	4601      	mov	r1, r0
 8003a64:	980a      	ldr	r0, [sp, #40]	; 0x28
 8003a66:	6809      	ldr	r1, [r1, #0]
 8003a68:	6110      	str	r0, [r2, #16]
 8003a6a:	6151      	str	r1, [r2, #20]
 8003a6c:	6190      	str	r0, [r2, #24]
 8003a6e:	f003 fcc0 	bl	80073f2 <_ZN4core3ptr14write_volatile17h46a673fe162f1e59E>
 8003a72:	a837      	add	r0, sp, #220	; 0xdc
 8003a74:	900e      	str	r0, [sp, #56]	; 0x38
 8003a76:	90a7      	str	r0, [sp, #668]	; 0x29c
 8003a78:	f241 4000 	movw	r0, #5120	; 0x1400
 8003a7c:	f6c4 0000 	movt	r0, #18432	; 0x4800
 8003a80:	900c      	str	r0, [sp, #48]	; 0x30
 8003a82:	f8cd 0cbc 	str.w	r0, [sp, #3260]	; 0xcbc
 8003a86:	f8cd 0cc4 	str.w	r0, [sp, #3268]	; 0xcc4
 8003a8a:	f8cd 0cc8 	str.w	r0, [sp, #3272]	; 0xcc8
 8003a8e:	f003 fc79 	bl	8007384 <_ZN4core3ptr13read_volatile17h384c2f472b76a07aE>
 8003a92:	f8cd 0cc0 	str.w	r0, [sp, #3264]	; 0xcc0
 8003a96:	f8cd 0cb4 	str.w	r0, [sp, #3252]	; 0xcb4
 8003a9a:	f8cd 0cb8 	str.w	r0, [sp, #3256]	; 0xcb8
 8003a9e:	f60d 40b4 	addw	r0, sp, #3252	; 0xcb4
 8003aa2:	f8cd 0cac 	str.w	r0, [sp, #3244]	; 0xcac
 8003aa6:	f60d 40b8 	addw	r0, sp, #3256	; 0xcb8
 8003aaa:	f8cd 0cb0 	str.w	r0, [sp, #3248]	; 0xcb0
 8003aae:	f8dd 0cac 	ldr.w	r0, [sp, #3244]	; 0xcac
 8003ab2:	f8dd 1cb0 	ldr.w	r1, [sp, #3248]	; 0xcb0
 8003ab6:	f7fd f801 	bl	8000abc <_ZN4mem310checkpoint14initialization28_$u7b$$u7b$closure$u7d$$u7d$17h8753bc3404f4efb9E>
 8003aba:	4601      	mov	r1, r0
 8003abc:	980c      	ldr	r0, [sp, #48]	; 0x30
 8003abe:	6809      	ldr	r1, [r1, #0]
 8003ac0:	f8cd 0ccc 	str.w	r0, [sp, #3276]	; 0xccc
 8003ac4:	f8cd 1cd0 	str.w	r1, [sp, #3280]	; 0xcd0
 8003ac8:	f8cd 0cd4 	str.w	r0, [sp, #3284]	; 0xcd4
 8003acc:	f003 fc91 	bl	80073f2 <_ZN4core3ptr14write_volatile17h46a673fe162f1e59E>
 8003ad0:	980e      	ldr	r0, [sp, #56]	; 0x38
 8003ad2:	992a      	ldr	r1, [sp, #168]	; 0xa8
 8003ad4:	90a6      	str	r0, [sp, #664]	; 0x298
 8003ad6:	f241 4020 	movw	r0, #5152	; 0x1420
 8003ada:	f6c4 0000 	movt	r0, #18432	; 0x4800
 8003ade:	900b      	str	r0, [sp, #44]	; 0x2c
 8003ae0:	f8c1 00dc 	str.w	r0, [r1, #220]	; 0xdc
 8003ae4:	f8c1 00e4 	str.w	r0, [r1, #228]	; 0xe4
 8003ae8:	f8c1 00e8 	str.w	r0, [r1, #232]	; 0xe8
 8003aec:	f003 fc4a 	bl	8007384 <_ZN4core3ptr13read_volatile17h384c2f472b76a07aE>
 8003af0:	992a      	ldr	r1, [sp, #168]	; 0xa8
 8003af2:	f8c1 00e0 	str.w	r0, [r1, #224]	; 0xe0
 8003af6:	f8c1 00d4 	str.w	r0, [r1, #212]	; 0xd4
 8003afa:	f8c1 00d8 	str.w	r0, [r1, #216]	; 0xd8
 8003afe:	f50d 5088 	add.w	r0, sp, #4352	; 0x1100
 8003b02:	f8c1 00cc 	str.w	r0, [r1, #204]	; 0xcc
 8003b06:	f10d 0e04 	add.w	lr, sp, #4
 8003b0a:	f50e 5088 	add.w	r0, lr, #4352	; 0x1100
 8003b0e:	f8c1 00d0 	str.w	r0, [r1, #208]	; 0xd0
 8003b12:	f8d1 00cc 	ldr.w	r0, [r1, #204]	; 0xcc
 8003b16:	f8d1 10d0 	ldr.w	r1, [r1, #208]	; 0xd0
 8003b1a:	f7fc fff8 	bl	8000b0e <_ZN4mem310checkpoint14initialization28_$u7b$$u7b$closure$u7d$$u7d$17hc3f55ba626535b6aE>
 8003b1e:	9a2a      	ldr	r2, [sp, #168]	; 0xa8
 8003b20:	4601      	mov	r1, r0
 8003b22:	980b      	ldr	r0, [sp, #44]	; 0x2c
 8003b24:	6809      	ldr	r1, [r1, #0]
 8003b26:	f8c2 00ec 	str.w	r0, [r2, #236]	; 0xec
 8003b2a:	f8c2 10f0 	str.w	r1, [r2, #240]	; 0xf0
 8003b2e:	f8c2 00f4 	str.w	r0, [r2, #244]	; 0xf4
 8003b32:	f003 fc5e 	bl	80073f2 <_ZN4core3ptr14write_volatile17h46a673fe162f1e59E>
 8003b36:	980e      	ldr	r0, [sp, #56]	; 0x38
 8003b38:	992a      	ldr	r1, [sp, #168]	; 0xa8
 8003b3a:	90a5      	str	r0, [sp, #660]	; 0x294
 8003b3c:	f241 4008 	movw	r0, #5128	; 0x1408
 8003b40:	f6c4 0000 	movt	r0, #18432	; 0x4800
 8003b44:	900f      	str	r0, [sp, #60]	; 0x3c
 8003b46:	f8c1 07e8 	str.w	r0, [r1, #2024]	; 0x7e8
 8003b4a:	f8c1 07f0 	str.w	r0, [r1, #2032]	; 0x7f0
 8003b4e:	f8c1 07f4 	str.w	r0, [r1, #2036]	; 0x7f4
 8003b52:	f003 fc17 	bl	8007384 <_ZN4core3ptr13read_volatile17h384c2f472b76a07aE>
 8003b56:	992a      	ldr	r1, [sp, #168]	; 0xa8
 8003b58:	f8c1 07ec 	str.w	r0, [r1, #2028]	; 0x7ec
 8003b5c:	f8c1 07e0 	str.w	r0, [r1, #2016]	; 0x7e0
 8003b60:	f8c1 07e4 	str.w	r0, [r1, #2020]	; 0x7e4
 8003b64:	f10d 0e0c 	add.w	lr, sp, #12
 8003b68:	f50e 50c0 	add.w	r0, lr, #6144	; 0x1800
 8003b6c:	f8c1 07d8 	str.w	r0, [r1, #2008]	; 0x7d8
 8003b70:	f10d 0e10 	add.w	lr, sp, #16
 8003b74:	f50e 50c0 	add.w	r0, lr, #6144	; 0x1800
 8003b78:	f8c1 07dc 	str.w	r0, [r1, #2012]	; 0x7dc
 8003b7c:	f8d1 07d8 	ldr.w	r0, [r1, #2008]	; 0x7d8
 8003b80:	f8d1 17dc 	ldr.w	r1, [r1, #2012]	; 0x7dc
 8003b84:	f7fc ffec 	bl	8000b60 <_ZN4mem310checkpoint14initialization28_$u7b$$u7b$closure$u7d$$u7d$17hf6960a9fd36376f5E>
 8003b88:	9a2a      	ldr	r2, [sp, #168]	; 0xa8
 8003b8a:	4601      	mov	r1, r0
 8003b8c:	980f      	ldr	r0, [sp, #60]	; 0x3c
 8003b8e:	6809      	ldr	r1, [r1, #0]
 8003b90:	f8c2 07f8 	str.w	r0, [r2, #2040]	; 0x7f8
 8003b94:	f8c2 17fc 	str.w	r1, [r2, #2044]	; 0x7fc
 8003b98:	f8c2 0800 	str.w	r0, [r2, #2048]	; 0x800
 8003b9c:	f003 fc29 	bl	80073f2 <_ZN4core3ptr14write_volatile17h46a673fe162f1e59E>
 8003ba0:	980c      	ldr	r0, [sp, #48]	; 0x30
 8003ba2:	9a0e      	ldr	r2, [sp, #56]	; 0x38
 8003ba4:	992a      	ldr	r1, [sp, #168]	; 0xa8
 8003ba6:	92a4      	str	r2, [sp, #656]	; 0x290
 8003ba8:	f8c1 023c 	str.w	r0, [r1, #572]	; 0x23c
 8003bac:	f8c1 0244 	str.w	r0, [r1, #580]	; 0x244
 8003bb0:	f8c1 0248 	str.w	r0, [r1, #584]	; 0x248
 8003bb4:	f003 fbe6 	bl	8007384 <_ZN4core3ptr13read_volatile17h384c2f472b76a07aE>
 8003bb8:	992a      	ldr	r1, [sp, #168]	; 0xa8
 8003bba:	f8c1 0240 	str.w	r0, [r1, #576]	; 0x240
 8003bbe:	f8c1 0234 	str.w	r0, [r1, #564]	; 0x234
 8003bc2:	f8c1 0238 	str.w	r0, [r1, #568]	; 0x238
 8003bc6:	f50d 5093 	add.w	r0, sp, #4704	; 0x1260
 8003bca:	f8c1 022c 	str.w	r0, [r1, #556]	; 0x22c
 8003bce:	f10d 0e04 	add.w	lr, sp, #4
 8003bd2:	f50e 5093 	add.w	r0, lr, #4704	; 0x1260
 8003bd6:	f8c1 0230 	str.w	r0, [r1, #560]	; 0x230
 8003bda:	f8d1 022c 	ldr.w	r0, [r1, #556]	; 0x22c
 8003bde:	f8d1 1230 	ldr.w	r1, [r1, #560]	; 0x230
 8003be2:	f7fc ffe6 	bl	8000bb2 <_ZN4mem310checkpoint14initialization28_$u7b$$u7b$closure$u7d$$u7d$17hddfc1d4f87258aaaE>
 8003be6:	9a2a      	ldr	r2, [sp, #168]	; 0xa8
 8003be8:	4601      	mov	r1, r0
 8003bea:	980c      	ldr	r0, [sp, #48]	; 0x30
 8003bec:	6809      	ldr	r1, [r1, #0]
 8003bee:	f8c2 024c 	str.w	r0, [r2, #588]	; 0x24c
 8003bf2:	f8c2 1250 	str.w	r1, [r2, #592]	; 0x250
 8003bf6:	f8c2 0254 	str.w	r0, [r2, #596]	; 0x254
 8003bfa:	f003 fbfa 	bl	80073f2 <_ZN4core3ptr14write_volatile17h46a673fe162f1e59E>
 8003bfe:	980b      	ldr	r0, [sp, #44]	; 0x2c
 8003c00:	9a0e      	ldr	r2, [sp, #56]	; 0x38
 8003c02:	992a      	ldr	r1, [sp, #168]	; 0xa8
 8003c04:	92a3      	str	r2, [sp, #652]	; 0x28c
 8003c06:	f8c1 018c 	str.w	r0, [r1, #396]	; 0x18c
 8003c0a:	f8c1 0194 	str.w	r0, [r1, #404]	; 0x194
 8003c0e:	f8c1 0198 	str.w	r0, [r1, #408]	; 0x198
 8003c12:	f003 fbb7 	bl	8007384 <_ZN4core3ptr13read_volatile17h384c2f472b76a07aE>
 8003c16:	992a      	ldr	r1, [sp, #168]	; 0xa8
 8003c18:	f8c1 0190 	str.w	r0, [r1, #400]	; 0x190
 8003c1c:	f8c1 0184 	str.w	r0, [r1, #388]	; 0x184
 8003c20:	f8c1 0188 	str.w	r0, [r1, #392]	; 0x188
 8003c24:	f10d 0e10 	add.w	lr, sp, #16
 8003c28:	f50e 508d 	add.w	r0, lr, #4512	; 0x11a0
 8003c2c:	f8c1 017c 	str.w	r0, [r1, #380]	; 0x17c
 8003c30:	f10d 0e14 	add.w	lr, sp, #20
 8003c34:	f50e 508d 	add.w	r0, lr, #4512	; 0x11a0
 8003c38:	f8c1 0180 	str.w	r0, [r1, #384]	; 0x180
 8003c3c:	f8d1 017c 	ldr.w	r0, [r1, #380]	; 0x17c
 8003c40:	f8d1 1180 	ldr.w	r1, [r1, #384]	; 0x180
 8003c44:	f7fc ffde 	bl	8000c04 <_ZN4mem310checkpoint14initialization28_$u7b$$u7b$closure$u7d$$u7d$17hfbaa0175f7a5cb30E>
 8003c48:	9a2a      	ldr	r2, [sp, #168]	; 0xa8
 8003c4a:	4601      	mov	r1, r0
 8003c4c:	980b      	ldr	r0, [sp, #44]	; 0x2c
 8003c4e:	6809      	ldr	r1, [r1, #0]
 8003c50:	f8c2 019c 	str.w	r0, [r2, #412]	; 0x19c
 8003c54:	f8c2 11a0 	str.w	r1, [r2, #416]	; 0x1a0
 8003c58:	f8c2 01a4 	str.w	r0, [r2, #420]	; 0x1a4
 8003c5c:	f003 fbc9 	bl	80073f2 <_ZN4core3ptr14write_volatile17h46a673fe162f1e59E>
 8003c60:	9a0e      	ldr	r2, [sp, #56]	; 0x38
 8003c62:	980f      	ldr	r0, [sp, #60]	; 0x3c
 8003c64:	992a      	ldr	r1, [sp, #168]	; 0xa8
 8003c66:	92a2      	str	r2, [sp, #648]	; 0x288
 8003c68:	f8c1 04fc 	str.w	r0, [r1, #1276]	; 0x4fc
 8003c6c:	f8c1 0504 	str.w	r0, [r1, #1284]	; 0x504
 8003c70:	f8c1 0508 	str.w	r0, [r1, #1288]	; 0x508
 8003c74:	f003 fb86 	bl	8007384 <_ZN4core3ptr13read_volatile17h384c2f472b76a07aE>
 8003c78:	992a      	ldr	r1, [sp, #168]	; 0xa8
 8003c7a:	f8c1 0500 	str.w	r0, [r1, #1280]	; 0x500
 8003c7e:	f8c1 04f4 	str.w	r0, [r1, #1268]	; 0x4f4
 8003c82:	f8c1 04f8 	str.w	r0, [r1, #1272]	; 0x4f8
 8003c86:	f50d 50a9 	add.w	r0, sp, #5408	; 0x1520
 8003c8a:	f8c1 04ec 	str.w	r0, [r1, #1260]	; 0x4ec
 8003c8e:	f10d 0e04 	add.w	lr, sp, #4
 8003c92:	f50e 50a9 	add.w	r0, lr, #5408	; 0x1520
 8003c96:	f8c1 04f0 	str.w	r0, [r1, #1264]	; 0x4f0
 8003c9a:	f8d1 04ec 	ldr.w	r0, [r1, #1260]	; 0x4ec
 8003c9e:	f8d1 14f0 	ldr.w	r1, [r1, #1264]	; 0x4f0
 8003ca2:	f7fc ffd8 	bl	8000c56 <_ZN4mem310checkpoint14initialization28_$u7b$$u7b$closure$u7d$$u7d$17h6b874422224f3290E>
 8003ca6:	9a2a      	ldr	r2, [sp, #168]	; 0xa8
 8003ca8:	4601      	mov	r1, r0
 8003caa:	980f      	ldr	r0, [sp, #60]	; 0x3c
 8003cac:	6809      	ldr	r1, [r1, #0]
 8003cae:	f8c2 050c 	str.w	r0, [r2, #1292]	; 0x50c
 8003cb2:	f8c2 1510 	str.w	r1, [r2, #1296]	; 0x510
 8003cb6:	f8c2 0514 	str.w	r0, [r2, #1300]	; 0x514
 8003cba:	f003 fb9a 	bl	80073f2 <_ZN4core3ptr14write_volatile17h46a673fe162f1e59E>
 8003cbe:	980c      	ldr	r0, [sp, #48]	; 0x30
 8003cc0:	990e      	ldr	r1, [sp, #56]	; 0x38
 8003cc2:	91a1      	str	r1, [sp, #644]	; 0x284
 8003cc4:	f8cd 0710 	str.w	r0, [sp, #1808]	; 0x710
 8003cc8:	f8cd 0718 	str.w	r0, [sp, #1816]	; 0x718
 8003ccc:	f8cd 071c 	str.w	r0, [sp, #1820]	; 0x71c
 8003cd0:	f003 fb58 	bl	8007384 <_ZN4core3ptr13read_volatile17h384c2f472b76a07aE>
 8003cd4:	f8cd 0714 	str.w	r0, [sp, #1812]	; 0x714
 8003cd8:	f8cd 0708 	str.w	r0, [sp, #1800]	; 0x708
 8003cdc:	f8cd 070c 	str.w	r0, [sp, #1804]	; 0x70c
 8003ce0:	f50d 60e1 	add.w	r0, sp, #1800	; 0x708
 8003ce4:	f8cd 0700 	str.w	r0, [sp, #1792]	; 0x700
 8003ce8:	f20d 700c 	addw	r0, sp, #1804	; 0x70c
 8003cec:	f8cd 0704 	str.w	r0, [sp, #1796]	; 0x704
 8003cf0:	f8dd 0700 	ldr.w	r0, [sp, #1792]	; 0x700
 8003cf4:	f8dd 1704 	ldr.w	r1, [sp, #1796]	; 0x704
 8003cf8:	f7fc ffd6 	bl	8000ca8 <_ZN4mem310checkpoint14initialization28_$u7b$$u7b$closure$u7d$$u7d$17h25c1f1d5a325095aE>
 8003cfc:	4601      	mov	r1, r0
 8003cfe:	980c      	ldr	r0, [sp, #48]	; 0x30
 8003d00:	6809      	ldr	r1, [r1, #0]
 8003d02:	f8cd 0720 	str.w	r0, [sp, #1824]	; 0x720
 8003d06:	f8cd 1724 	str.w	r1, [sp, #1828]	; 0x724
 8003d0a:	f8cd 0728 	str.w	r0, [sp, #1832]	; 0x728
 8003d0e:	f003 fb70 	bl	80073f2 <_ZN4core3ptr14write_volatile17h46a673fe162f1e59E>
 8003d12:	980b      	ldr	r0, [sp, #44]	; 0x2c
 8003d14:	9a0e      	ldr	r2, [sp, #56]	; 0x38
 8003d16:	992a      	ldr	r1, [sp, #168]	; 0xa8
 8003d18:	92a0      	str	r2, [sp, #640]	; 0x280
 8003d1a:	f8c1 0160 	str.w	r0, [r1, #352]	; 0x160
 8003d1e:	f8c1 0168 	str.w	r0, [r1, #360]	; 0x168
 8003d22:	f8c1 016c 	str.w	r0, [r1, #364]	; 0x16c
 8003d26:	f003 fb2d 	bl	8007384 <_ZN4core3ptr13read_volatile17h384c2f472b76a07aE>
 8003d2a:	992a      	ldr	r1, [sp, #168]	; 0xa8
 8003d2c:	f8c1 0164 	str.w	r0, [r1, #356]	; 0x164
 8003d30:	f8c1 0158 	str.w	r0, [r1, #344]	; 0x158
 8003d34:	f8c1 015c 	str.w	r0, [r1, #348]	; 0x15c
 8003d38:	f10d 0e04 	add.w	lr, sp, #4
 8003d3c:	f50e 508c 	add.w	r0, lr, #4480	; 0x1180
 8003d40:	f8c1 0150 	str.w	r0, [r1, #336]	; 0x150
 8003d44:	f10d 0e08 	add.w	lr, sp, #8
 8003d48:	f50e 508c 	add.w	r0, lr, #4480	; 0x1180
 8003d4c:	f8c1 0154 	str.w	r0, [r1, #340]	; 0x154
 8003d50:	f8d1 0150 	ldr.w	r0, [r1, #336]	; 0x150
 8003d54:	f8d1 1154 	ldr.w	r1, [r1, #340]	; 0x154
 8003d58:	f7fc ffcf 	bl	8000cfa <_ZN4mem310checkpoint14initialization28_$u7b$$u7b$closure$u7d$$u7d$17hee4b2b8e0a6a9548E>
 8003d5c:	9a2a      	ldr	r2, [sp, #168]	; 0xa8
 8003d5e:	4601      	mov	r1, r0
 8003d60:	980b      	ldr	r0, [sp, #44]	; 0x2c
 8003d62:	6809      	ldr	r1, [r1, #0]
 8003d64:	f8c2 0170 	str.w	r0, [r2, #368]	; 0x170
 8003d68:	f8c2 1174 	str.w	r1, [r2, #372]	; 0x174
 8003d6c:	f8c2 0178 	str.w	r0, [r2, #376]	; 0x178
 8003d70:	f003 fb3f 	bl	80073f2 <_ZN4core3ptr14write_volatile17h46a673fe162f1e59E>
 8003d74:	990e      	ldr	r1, [sp, #56]	; 0x38
 8003d76:	980f      	ldr	r0, [sp, #60]	; 0x3c
 8003d78:	919f      	str	r1, [sp, #636]	; 0x27c
 8003d7a:	f8cd 0df0 	str.w	r0, [sp, #3568]	; 0xdf0
 8003d7e:	f8cd 0df8 	str.w	r0, [sp, #3576]	; 0xdf8
 8003d82:	f8cd 0dfc 	str.w	r0, [sp, #3580]	; 0xdfc
 8003d86:	f003 fafd 	bl	8007384 <_ZN4core3ptr13read_volatile17h384c2f472b76a07aE>
 8003d8a:	f8cd 0df4 	str.w	r0, [sp, #3572]	; 0xdf4
 8003d8e:	f8cd 0de8 	str.w	r0, [sp, #3560]	; 0xde8
 8003d92:	f8cd 0dec 	str.w	r0, [sp, #3564]	; 0xdec
 8003d96:	f60d 50e8 	addw	r0, sp, #3560	; 0xde8
 8003d9a:	f8cd 0de0 	str.w	r0, [sp, #3552]	; 0xde0
 8003d9e:	f60d 50ec 	addw	r0, sp, #3564	; 0xdec
 8003da2:	f8cd 0de4 	str.w	r0, [sp, #3556]	; 0xde4
 8003da6:	f8dd 0de0 	ldr.w	r0, [sp, #3552]	; 0xde0
 8003daa:	f8dd 1de4 	ldr.w	r1, [sp, #3556]	; 0xde4
 8003dae:	f7fc ffcd 	bl	8000d4c <_ZN4mem310checkpoint14initialization28_$u7b$$u7b$closure$u7d$$u7d$17hf6dd0c597c0df35bE>
 8003db2:	4601      	mov	r1, r0
 8003db4:	980f      	ldr	r0, [sp, #60]	; 0x3c
 8003db6:	6809      	ldr	r1, [r1, #0]
 8003db8:	f8cd 0e00 	str.w	r0, [sp, #3584]	; 0xe00
 8003dbc:	f8cd 1e04 	str.w	r1, [sp, #3588]	; 0xe04
 8003dc0:	f8cd 0e08 	str.w	r0, [sp, #3592]	; 0xe08
 8003dc4:	f003 fb15 	bl	80073f2 <_ZN4core3ptr14write_volatile17h46a673fe162f1e59E>
 8003dc8:	980c      	ldr	r0, [sp, #48]	; 0x30
 8003dca:	990e      	ldr	r1, [sp, #56]	; 0x38
 8003dcc:	919e      	str	r1, [sp, #632]	; 0x278
 8003dce:	f847 0ca4 	str.w	r0, [r7, #-164]
 8003dd2:	f847 0c9c 	str.w	r0, [r7, #-156]
 8003dd6:	f847 0c98 	str.w	r0, [r7, #-152]
 8003dda:	f003 fad3 	bl	8007384 <_ZN4core3ptr13read_volatile17h384c2f472b76a07aE>
 8003dde:	992a      	ldr	r1, [sp, #168]	; 0xa8
 8003de0:	f847 0ca0 	str.w	r0, [r7, #-160]
 8003de4:	f847 0cac 	str.w	r0, [r7, #-172]
 8003de8:	f847 0ca8 	str.w	r0, [r7, #-168]
 8003dec:	f1a7 00ac 	sub.w	r0, r7, #172	; 0xac
 8003df0:	f8c1 08e0 	str.w	r0, [r1, #2272]	; 0x8e0
 8003df4:	f1a7 00a8 	sub.w	r0, r7, #168	; 0xa8
 8003df8:	f8c1 08e4 	str.w	r0, [r1, #2276]	; 0x8e4
 8003dfc:	f8d1 08e0 	ldr.w	r0, [r1, #2272]	; 0x8e0
 8003e00:	f8d1 18e4 	ldr.w	r1, [r1, #2276]	; 0x8e4
 8003e04:	f7fc ffcb 	bl	8000d9e <_ZN4mem310checkpoint14initialization28_$u7b$$u7b$closure$u7d$$u7d$17haec990b88fc15cfbE>
 8003e08:	4601      	mov	r1, r0
 8003e0a:	980c      	ldr	r0, [sp, #48]	; 0x30
 8003e0c:	6809      	ldr	r1, [r1, #0]
 8003e0e:	f847 0c94 	str.w	r0, [r7, #-148]
 8003e12:	f847 1c90 	str.w	r1, [r7, #-144]
 8003e16:	f847 0c8c 	str.w	r0, [r7, #-140]
 8003e1a:	f003 faea 	bl	80073f2 <_ZN4core3ptr14write_volatile17h46a673fe162f1e59E>
 8003e1e:	980b      	ldr	r0, [sp, #44]	; 0x2c
 8003e20:	990e      	ldr	r1, [sp, #56]	; 0x38
 8003e22:	919d      	str	r1, [sp, #628]	; 0x274
 8003e24:	f8cd 0e74 	str.w	r0, [sp, #3700]	; 0xe74
 8003e28:	f8cd 0e7c 	str.w	r0, [sp, #3708]	; 0xe7c
 8003e2c:	f8cd 0e80 	str.w	r0, [sp, #3712]	; 0xe80
 8003e30:	f003 faa8 	bl	8007384 <_ZN4core3ptr13read_volatile17h384c2f472b76a07aE>
 8003e34:	f8cd 0e78 	str.w	r0, [sp, #3704]	; 0xe78
 8003e38:	f8cd 0e6c 	str.w	r0, [sp, #3692]	; 0xe6c
 8003e3c:	f8cd 0e70 	str.w	r0, [sp, #3696]	; 0xe70
 8003e40:	f60d 606c 	addw	r0, sp, #3692	; 0xe6c
 8003e44:	f8cd 0e64 	str.w	r0, [sp, #3684]	; 0xe64
 8003e48:	f50d 6067 	add.w	r0, sp, #3696	; 0xe70
 8003e4c:	f8cd 0e68 	str.w	r0, [sp, #3688]	; 0xe68
 8003e50:	f8dd 0e64 	ldr.w	r0, [sp, #3684]	; 0xe64
 8003e54:	f8dd 1e68 	ldr.w	r1, [sp, #3688]	; 0xe68
 8003e58:	f7fc ffca 	bl	8000df0 <_ZN4mem310checkpoint14initialization28_$u7b$$u7b$closure$u7d$$u7d$17h234011e7e72be7b9E>
 8003e5c:	4601      	mov	r1, r0
 8003e5e:	980b      	ldr	r0, [sp, #44]	; 0x2c
 8003e60:	6809      	ldr	r1, [r1, #0]
 8003e62:	f8cd 0e84 	str.w	r0, [sp, #3716]	; 0xe84
 8003e66:	f8cd 1e88 	str.w	r1, [sp, #3720]	; 0xe88
 8003e6a:	f8cd 0e8c 	str.w	r0, [sp, #3724]	; 0xe8c
 8003e6e:	f003 fac0 	bl	80073f2 <_ZN4core3ptr14write_volatile17h46a673fe162f1e59E>
 8003e72:	990e      	ldr	r1, [sp, #56]	; 0x38
 8003e74:	980f      	ldr	r0, [sp, #60]	; 0x3c
 8003e76:	919c      	str	r1, [sp, #624]	; 0x270
 8003e78:	f8cd 0450 	str.w	r0, [sp, #1104]	; 0x450
 8003e7c:	f8cd 0458 	str.w	r0, [sp, #1112]	; 0x458
 8003e80:	f8cd 045c 	str.w	r0, [sp, #1116]	; 0x45c
 8003e84:	f003 fa7e 	bl	8007384 <_ZN4core3ptr13read_volatile17h384c2f472b76a07aE>
 8003e88:	f8cd 0454 	str.w	r0, [sp, #1108]	; 0x454
 8003e8c:	f8cd 0448 	str.w	r0, [sp, #1096]	; 0x448
 8003e90:	f8cd 044c 	str.w	r0, [sp, #1100]	; 0x44c
 8003e94:	f50d 6089 	add.w	r0, sp, #1096	; 0x448
 8003e98:	f8cd 0440 	str.w	r0, [sp, #1088]	; 0x440
 8003e9c:	f20d 404c 	addw	r0, sp, #1100	; 0x44c
 8003ea0:	f8cd 0444 	str.w	r0, [sp, #1092]	; 0x444
 8003ea4:	f8dd 0440 	ldr.w	r0, [sp, #1088]	; 0x440
 8003ea8:	f8dd 1444 	ldr.w	r1, [sp, #1092]	; 0x444
 8003eac:	f7fc ffc9 	bl	8000e42 <_ZN4mem310checkpoint14initialization28_$u7b$$u7b$closure$u7d$$u7d$17hcbf3fb1073633e72E>
 8003eb0:	4601      	mov	r1, r0
 8003eb2:	980f      	ldr	r0, [sp, #60]	; 0x3c
 8003eb4:	6809      	ldr	r1, [r1, #0]
 8003eb6:	f8cd 0460 	str.w	r0, [sp, #1120]	; 0x460
 8003eba:	f8cd 1464 	str.w	r1, [sp, #1124]	; 0x464
 8003ebe:	f8cd 0468 	str.w	r0, [sp, #1128]	; 0x468
 8003ec2:	f003 fa96 	bl	80073f2 <_ZN4core3ptr14write_volatile17h46a673fe162f1e59E>
 8003ec6:	980c      	ldr	r0, [sp, #48]	; 0x30
 8003ec8:	990e      	ldr	r1, [sp, #56]	; 0x38
 8003eca:	919b      	str	r1, [sp, #620]	; 0x26c
 8003ecc:	f8cd 0870 	str.w	r0, [sp, #2160]	; 0x870
 8003ed0:	f8cd 0878 	str.w	r0, [sp, #2168]	; 0x878
 8003ed4:	f8cd 087c 	str.w	r0, [sp, #2172]	; 0x87c
 8003ed8:	f003 fa54 	bl	8007384 <_ZN4core3ptr13read_volatile17h384c2f472b76a07aE>
 8003edc:	f8cd 0874 	str.w	r0, [sp, #2164]	; 0x874
 8003ee0:	f8cd 0868 	str.w	r0, [sp, #2152]	; 0x868
 8003ee4:	f8cd 086c 	str.w	r0, [sp, #2156]	; 0x86c
 8003ee8:	f60d 0068 	addw	r0, sp, #2152	; 0x868
 8003eec:	f8cd 0860 	str.w	r0, [sp, #2144]	; 0x860
 8003ef0:	f60d 006c 	addw	r0, sp, #2156	; 0x86c
 8003ef4:	f8cd 0864 	str.w	r0, [sp, #2148]	; 0x864
 8003ef8:	f8dd 0860 	ldr.w	r0, [sp, #2144]	; 0x860
 8003efc:	f8dd 1864 	ldr.w	r1, [sp, #2148]	; 0x864
 8003f00:	f7fc ffc8 	bl	8000e94 <_ZN4mem310checkpoint14initialization28_$u7b$$u7b$closure$u7d$$u7d$17hfea7bc50c85e5e92E>
 8003f04:	4601      	mov	r1, r0
 8003f06:	980c      	ldr	r0, [sp, #48]	; 0x30
 8003f08:	6809      	ldr	r1, [r1, #0]
 8003f0a:	f8cd 0880 	str.w	r0, [sp, #2176]	; 0x880
 8003f0e:	f8cd 1884 	str.w	r1, [sp, #2180]	; 0x884
 8003f12:	f8cd 0888 	str.w	r0, [sp, #2184]	; 0x888
 8003f16:	f003 fa6c 	bl	80073f2 <_ZN4core3ptr14write_volatile17h46a673fe162f1e59E>
 8003f1a:	980e      	ldr	r0, [sp, #56]	; 0x38
 8003f1c:	909a      	str	r0, [sp, #616]	; 0x268
 8003f1e:	f241 4024 	movw	r0, #5156	; 0x1424
 8003f22:	f6c4 0000 	movt	r0, #18432	; 0x4800
 8003f26:	900d      	str	r0, [sp, #52]	; 0x34
 8003f28:	f8cd 0ef8 	str.w	r0, [sp, #3832]	; 0xef8
 8003f2c:	f8cd 0f00 	str.w	r0, [sp, #3840]	; 0xf00
 8003f30:	f8cd 0f04 	str.w	r0, [sp, #3844]	; 0xf04
 8003f34:	f003 fa26 	bl	8007384 <_ZN4core3ptr13read_volatile17h384c2f472b76a07aE>
 8003f38:	f8cd 0efc 	str.w	r0, [sp, #3836]	; 0xefc
 8003f3c:	f8cd 0ef0 	str.w	r0, [sp, #3824]	; 0xef0
 8003f40:	f8cd 0ef4 	str.w	r0, [sp, #3828]	; 0xef4
 8003f44:	f50d 606f 	add.w	r0, sp, #3824	; 0xef0
 8003f48:	f8cd 0ee8 	str.w	r0, [sp, #3816]	; 0xee8
 8003f4c:	f60d 60f4 	addw	r0, sp, #3828	; 0xef4
 8003f50:	f8cd 0eec 	str.w	r0, [sp, #3820]	; 0xeec
 8003f54:	f8dd 0ee8 	ldr.w	r0, [sp, #3816]	; 0xee8
 8003f58:	f8dd 1eec 	ldr.w	r1, [sp, #3820]	; 0xeec
 8003f5c:	f7fc ffc3 	bl	8000ee6 <_ZN4mem310checkpoint14initialization28_$u7b$$u7b$closure$u7d$$u7d$17hc8ab11208bbd6f91E>
 8003f60:	4601      	mov	r1, r0
 8003f62:	980d      	ldr	r0, [sp, #52]	; 0x34
 8003f64:	6809      	ldr	r1, [r1, #0]
 8003f66:	f8cd 0f08 	str.w	r0, [sp, #3848]	; 0xf08
 8003f6a:	f8cd 1f0c 	str.w	r1, [sp, #3852]	; 0xf0c
 8003f6e:	f8cd 0f10 	str.w	r0, [sp, #3856]	; 0xf10
 8003f72:	f003 fa3e 	bl	80073f2 <_ZN4core3ptr14write_volatile17h46a673fe162f1e59E>
 8003f76:	990e      	ldr	r1, [sp, #56]	; 0x38
 8003f78:	980f      	ldr	r0, [sp, #60]	; 0x3c
 8003f7a:	9199      	str	r1, [sp, #612]	; 0x264
 8003f7c:	f8cd 09fc 	str.w	r0, [sp, #2556]	; 0x9fc
 8003f80:	f8cd 0a04 	str.w	r0, [sp, #2564]	; 0xa04
 8003f84:	f8cd 0a08 	str.w	r0, [sp, #2568]	; 0xa08
 8003f88:	f003 f9fc 	bl	8007384 <_ZN4core3ptr13read_volatile17h384c2f472b76a07aE>
 8003f8c:	f8cd 0a00 	str.w	r0, [sp, #2560]	; 0xa00
 8003f90:	f8cd 09f4 	str.w	r0, [sp, #2548]	; 0x9f4
 8003f94:	f8cd 09f8 	str.w	r0, [sp, #2552]	; 0x9f8
 8003f98:	f60d 10f4 	addw	r0, sp, #2548	; 0x9f4
 8003f9c:	f8cd 09ec 	str.w	r0, [sp, #2540]	; 0x9ec
 8003fa0:	f60d 10f8 	addw	r0, sp, #2552	; 0x9f8
 8003fa4:	f8cd 09f0 	str.w	r0, [sp, #2544]	; 0x9f0
 8003fa8:	f8dd 09ec 	ldr.w	r0, [sp, #2540]	; 0x9ec
 8003fac:	f8dd 19f0 	ldr.w	r1, [sp, #2544]	; 0x9f0
 8003fb0:	f7fc ffc2 	bl	8000f38 <_ZN4mem310checkpoint14initialization28_$u7b$$u7b$closure$u7d$$u7d$17hf9cafcfad234f579E>
 8003fb4:	4601      	mov	r1, r0
 8003fb6:	980f      	ldr	r0, [sp, #60]	; 0x3c
 8003fb8:	6809      	ldr	r1, [r1, #0]
 8003fba:	f8cd 0a0c 	str.w	r0, [sp, #2572]	; 0xa0c
 8003fbe:	f8cd 1a10 	str.w	r1, [sp, #2576]	; 0xa10
 8003fc2:	f8cd 0a14 	str.w	r0, [sp, #2580]	; 0xa14
 8003fc6:	f003 fa14 	bl	80073f2 <_ZN4core3ptr14write_volatile17h46a673fe162f1e59E>
 8003fca:	980c      	ldr	r0, [sp, #48]	; 0x30
 8003fcc:	990e      	ldr	r1, [sp, #56]	; 0x38
 8003fce:	9198      	str	r1, [sp, #608]	; 0x260
 8003fd0:	f8cd 0c64 	str.w	r0, [sp, #3172]	; 0xc64
 8003fd4:	f8cd 0c6c 	str.w	r0, [sp, #3180]	; 0xc6c
 8003fd8:	f8cd 0c70 	str.w	r0, [sp, #3184]	; 0xc70
 8003fdc:	f003 f9d2 	bl	8007384 <_ZN4core3ptr13read_volatile17h384c2f472b76a07aE>
 8003fe0:	f8cd 0c68 	str.w	r0, [sp, #3176]	; 0xc68
 8003fe4:	f8cd 0c5c 	str.w	r0, [sp, #3164]	; 0xc5c
 8003fe8:	f8cd 0c60 	str.w	r0, [sp, #3168]	; 0xc60
 8003fec:	f60d 405c 	addw	r0, sp, #3164	; 0xc5c
 8003ff0:	f8cd 0c54 	str.w	r0, [sp, #3156]	; 0xc54
 8003ff4:	f50d 6046 	add.w	r0, sp, #3168	; 0xc60
 8003ff8:	f8cd 0c58 	str.w	r0, [sp, #3160]	; 0xc58
 8003ffc:	f8dd 0c54 	ldr.w	r0, [sp, #3156]	; 0xc54
 8004000:	f8dd 1c58 	ldr.w	r1, [sp, #3160]	; 0xc58
 8004004:	f7fc ffc1 	bl	8000f8a <_ZN4mem310checkpoint14initialization28_$u7b$$u7b$closure$u7d$$u7d$17h63d61ebebf8e2b9aE>
 8004008:	4601      	mov	r1, r0
 800400a:	980c      	ldr	r0, [sp, #48]	; 0x30
 800400c:	6809      	ldr	r1, [r1, #0]
 800400e:	f8cd 0c74 	str.w	r0, [sp, #3188]	; 0xc74
 8004012:	f8cd 1c78 	str.w	r1, [sp, #3192]	; 0xc78
 8004016:	f8cd 0c7c 	str.w	r0, [sp, #3196]	; 0xc7c
 800401a:	f003 f9ea 	bl	80073f2 <_ZN4core3ptr14write_volatile17h46a673fe162f1e59E>
 800401e:	980d      	ldr	r0, [sp, #52]	; 0x34
 8004020:	9a0e      	ldr	r2, [sp, #56]	; 0x38
 8004022:	992a      	ldr	r1, [sp, #168]	; 0xa8
 8004024:	9297      	str	r2, [sp, #604]	; 0x25c
 8004026:	f8c1 065c 	str.w	r0, [r1, #1628]	; 0x65c
 800402a:	f8c1 0664 	str.w	r0, [r1, #1636]	; 0x664
 800402e:	f8c1 0668 	str.w	r0, [r1, #1640]	; 0x668
 8004032:	f003 f9a7 	bl	8007384 <_ZN4core3ptr13read_volatile17h384c2f472b76a07aE>
 8004036:	992a      	ldr	r1, [sp, #168]	; 0xa8
 8004038:	f8c1 0660 	str.w	r0, [r1, #1632]	; 0x660
 800403c:	f8c1 0654 	str.w	r0, [r1, #1620]	; 0x654
 8004040:	f8c1 0658 	str.w	r0, [r1, #1624]	; 0x658
 8004044:	f50d 50b4 	add.w	r0, sp, #5760	; 0x1680
 8004048:	f8c1 064c 	str.w	r0, [r1, #1612]	; 0x64c
 800404c:	f10d 0e04 	add.w	lr, sp, #4
 8004050:	f50e 50b4 	add.w	r0, lr, #5760	; 0x1680
 8004054:	f8c1 0650 	str.w	r0, [r1, #1616]	; 0x650
 8004058:	f8d1 064c 	ldr.w	r0, [r1, #1612]	; 0x64c
 800405c:	f8d1 1650 	ldr.w	r1, [r1, #1616]	; 0x650
 8004060:	f7fc ffbc 	bl	8000fdc <_ZN4mem310checkpoint14initialization28_$u7b$$u7b$closure$u7d$$u7d$17h545cadd446397d7aE>
 8004064:	9a2a      	ldr	r2, [sp, #168]	; 0xa8
 8004066:	4601      	mov	r1, r0
 8004068:	980d      	ldr	r0, [sp, #52]	; 0x34
 800406a:	6809      	ldr	r1, [r1, #0]
 800406c:	f8c2 066c 	str.w	r0, [r2, #1644]	; 0x66c
 8004070:	f8c2 1670 	str.w	r1, [r2, #1648]	; 0x670
 8004074:	f8c2 0674 	str.w	r0, [r2, #1652]	; 0x674
 8004078:	f003 f9bb 	bl	80073f2 <_ZN4core3ptr14write_volatile17h46a673fe162f1e59E>
 800407c:	9a0e      	ldr	r2, [sp, #56]	; 0x38
 800407e:	980f      	ldr	r0, [sp, #60]	; 0x3c
 8004080:	992a      	ldr	r1, [sp, #168]	; 0xa8
 8004082:	9296      	str	r2, [sp, #600]	; 0x258
 8004084:	f8c1 086c 	str.w	r0, [r1, #2156]	; 0x86c
 8004088:	f8c1 0874 	str.w	r0, [r1, #2164]	; 0x874
 800408c:	f8c1 0878 	str.w	r0, [r1, #2168]	; 0x878
 8004090:	f003 f978 	bl	8007384 <_ZN4core3ptr13read_volatile17h384c2f472b76a07aE>
 8004094:	992a      	ldr	r1, [sp, #168]	; 0xa8
 8004096:	f8c1 0870 	str.w	r0, [r1, #2160]	; 0x870
 800409a:	f8c1 0864 	str.w	r0, [r1, #2148]	; 0x864
 800409e:	f8c1 0868 	str.w	r0, [r1, #2152]	; 0x868
 80040a2:	f10d 0e10 	add.w	lr, sp, #16
 80040a6:	f50e 50c4 	add.w	r0, lr, #6272	; 0x1880
 80040aa:	f8c1 085c 	str.w	r0, [r1, #2140]	; 0x85c
 80040ae:	f10d 0e14 	add.w	lr, sp, #20
 80040b2:	f50e 50c4 	add.w	r0, lr, #6272	; 0x1880
 80040b6:	f8c1 0860 	str.w	r0, [r1, #2144]	; 0x860
 80040ba:	f8d1 085c 	ldr.w	r0, [r1, #2140]	; 0x85c
 80040be:	f8d1 1860 	ldr.w	r1, [r1, #2144]	; 0x860
 80040c2:	f7fc ffb4 	bl	800102e <_ZN4mem310checkpoint14initialization28_$u7b$$u7b$closure$u7d$$u7d$17hae9af8be013071caE>
 80040c6:	9a2a      	ldr	r2, [sp, #168]	; 0xa8
 80040c8:	4601      	mov	r1, r0
 80040ca:	980f      	ldr	r0, [sp, #60]	; 0x3c
 80040cc:	6809      	ldr	r1, [r1, #0]
 80040ce:	f8c2 087c 	str.w	r0, [r2, #2172]	; 0x87c
 80040d2:	f8c2 1880 	str.w	r1, [r2, #2176]	; 0x880
 80040d6:	f8c2 0884 	str.w	r0, [r2, #2180]	; 0x884
 80040da:	f003 f98a 	bl	80073f2 <_ZN4core3ptr14write_volatile17h46a673fe162f1e59E>
 80040de:	980c      	ldr	r0, [sp, #48]	; 0x30
 80040e0:	990e      	ldr	r1, [sp, #56]	; 0x38
 80040e2:	9195      	str	r1, [sp, #596]	; 0x254
 80040e4:	f8cd 0424 	str.w	r0, [sp, #1060]	; 0x424
 80040e8:	f8cd 042c 	str.w	r0, [sp, #1068]	; 0x42c
 80040ec:	f8cd 0430 	str.w	r0, [sp, #1072]	; 0x430
 80040f0:	f003 f948 	bl	8007384 <_ZN4core3ptr13read_volatile17h384c2f472b76a07aE>
 80040f4:	f8cd 0428 	str.w	r0, [sp, #1064]	; 0x428
 80040f8:	f8cd 041c 	str.w	r0, [sp, #1052]	; 0x41c
 80040fc:	f8cd 0420 	str.w	r0, [sp, #1056]	; 0x420
 8004100:	f20d 401c 	addw	r0, sp, #1052	; 0x41c
 8004104:	f8cd 0414 	str.w	r0, [sp, #1044]	; 0x414
 8004108:	f50d 6084 	add.w	r0, sp, #1056	; 0x420
 800410c:	f8cd 0418 	str.w	r0, [sp, #1048]	; 0x418
 8004110:	f8dd 0414 	ldr.w	r0, [sp, #1044]	; 0x414
 8004114:	f8dd 1418 	ldr.w	r1, [sp, #1048]	; 0x418
 8004118:	f7fc ffb2 	bl	8001080 <_ZN4mem310checkpoint14initialization28_$u7b$$u7b$closure$u7d$$u7d$17h80ae122164428f14E>
 800411c:	4601      	mov	r1, r0
 800411e:	980c      	ldr	r0, [sp, #48]	; 0x30
 8004120:	6809      	ldr	r1, [r1, #0]
 8004122:	f8cd 0434 	str.w	r0, [sp, #1076]	; 0x434
 8004126:	f8cd 1438 	str.w	r1, [sp, #1080]	; 0x438
 800412a:	f8cd 043c 	str.w	r0, [sp, #1084]	; 0x43c
 800412e:	f003 f960 	bl	80073f2 <_ZN4core3ptr14write_volatile17h46a673fe162f1e59E>
 8004132:	980d      	ldr	r0, [sp, #52]	; 0x34
 8004134:	990e      	ldr	r1, [sp, #56]	; 0x38
 8004136:	9194      	str	r1, [sp, #592]	; 0x250
 8004138:	f8cd 0634 	str.w	r0, [sp, #1588]	; 0x634
 800413c:	f8cd 063c 	str.w	r0, [sp, #1596]	; 0x63c
 8004140:	f8cd 0640 	str.w	r0, [sp, #1600]	; 0x640
 8004144:	f003 f91e 	bl	8007384 <_ZN4core3ptr13read_volatile17h384c2f472b76a07aE>
 8004148:	f8cd 0638 	str.w	r0, [sp, #1592]	; 0x638
 800414c:	f8cd 062c 	str.w	r0, [sp, #1580]	; 0x62c
 8004150:	f8cd 0630 	str.w	r0, [sp, #1584]	; 0x630
 8004154:	f20d 602c 	addw	r0, sp, #1580	; 0x62c
 8004158:	f8cd 0624 	str.w	r0, [sp, #1572]	; 0x624
 800415c:	f50d 60c6 	add.w	r0, sp, #1584	; 0x630
 8004160:	f8cd 0628 	str.w	r0, [sp, #1576]	; 0x628
 8004164:	f8dd 0624 	ldr.w	r0, [sp, #1572]	; 0x624
 8004168:	f8dd 1628 	ldr.w	r1, [sp, #1576]	; 0x628
 800416c:	f7fc ffb1 	bl	80010d2 <_ZN4mem310checkpoint14initialization28_$u7b$$u7b$closure$u7d$$u7d$17h7438c05bb67b58d5E>
 8004170:	4601      	mov	r1, r0
 8004172:	980d      	ldr	r0, [sp, #52]	; 0x34
 8004174:	6809      	ldr	r1, [r1, #0]
 8004176:	f8cd 0644 	str.w	r0, [sp, #1604]	; 0x644
 800417a:	f8cd 1648 	str.w	r1, [sp, #1608]	; 0x648
 800417e:	f8cd 064c 	str.w	r0, [sp, #1612]	; 0x64c
 8004182:	f003 f936 	bl	80073f2 <_ZN4core3ptr14write_volatile17h46a673fe162f1e59E>
 8004186:	9a0e      	ldr	r2, [sp, #56]	; 0x38
 8004188:	980f      	ldr	r0, [sp, #60]	; 0x3c
 800418a:	992a      	ldr	r1, [sp, #168]	; 0xa8
 800418c:	9293      	str	r2, [sp, #588]	; 0x24c
 800418e:	f8c1 039c 	str.w	r0, [r1, #924]	; 0x39c
 8004192:	f8c1 03a4 	str.w	r0, [r1, #932]	; 0x3a4
 8004196:	f8c1 03a8 	str.w	r0, [r1, #936]	; 0x3a8
 800419a:	f003 f8f3 	bl	8007384 <_ZN4core3ptr13read_volatile17h384c2f472b76a07aE>
 800419e:	992a      	ldr	r1, [sp, #168]	; 0xa8
 80041a0:	f8c1 03a0 	str.w	r0, [r1, #928]	; 0x3a0
 80041a4:	f8c1 0394 	str.w	r0, [r1, #916]	; 0x394
 80041a8:	f8c1 0398 	str.w	r0, [r1, #920]	; 0x398
 80041ac:	f50d 509e 	add.w	r0, sp, #5056	; 0x13c0
 80041b0:	f8c1 038c 	str.w	r0, [r1, #908]	; 0x38c
 80041b4:	f10d 0e04 	add.w	lr, sp, #4
 80041b8:	f50e 509e 	add.w	r0, lr, #5056	; 0x13c0
 80041bc:	f8c1 0390 	str.w	r0, [r1, #912]	; 0x390
 80041c0:	f8d1 038c 	ldr.w	r0, [r1, #908]	; 0x38c
 80041c4:	f8d1 1390 	ldr.w	r1, [r1, #912]	; 0x390
 80041c8:	f7fc ffac 	bl	8001124 <_ZN4mem310checkpoint14initialization28_$u7b$$u7b$closure$u7d$$u7d$17hefaf12c55297acebE>
 80041cc:	9a2a      	ldr	r2, [sp, #168]	; 0xa8
 80041ce:	4601      	mov	r1, r0
 80041d0:	980f      	ldr	r0, [sp, #60]	; 0x3c
 80041d2:	6809      	ldr	r1, [r1, #0]
 80041d4:	f8c2 03ac 	str.w	r0, [r2, #940]	; 0x3ac
 80041d8:	f8c2 13b0 	str.w	r1, [r2, #944]	; 0x3b0
 80041dc:	f8c2 03b4 	str.w	r0, [r2, #948]	; 0x3b4
 80041e0:	f003 f907 	bl	80073f2 <_ZN4core3ptr14write_volatile17h46a673fe162f1e59E>
 80041e4:	980c      	ldr	r0, [sp, #48]	; 0x30
 80041e6:	990e      	ldr	r1, [sp, #56]	; 0x38
 80041e8:	9192      	str	r1, [sp, #584]	; 0x248
 80041ea:	f8cd 07ec 	str.w	r0, [sp, #2028]	; 0x7ec
 80041ee:	f8cd 07f4 	str.w	r0, [sp, #2036]	; 0x7f4
 80041f2:	f8cd 07f8 	str.w	r0, [sp, #2040]	; 0x7f8
 80041f6:	f003 f8c5 	bl	8007384 <_ZN4core3ptr13read_volatile17h384c2f472b76a07aE>
 80041fa:	f8cd 07f0 	str.w	r0, [sp, #2032]	; 0x7f0
 80041fe:	f8cd 07e4 	str.w	r0, [sp, #2020]	; 0x7e4
 8004202:	f8cd 07e8 	str.w	r0, [sp, #2024]	; 0x7e8
 8004206:	f20d 70e4 	addw	r0, sp, #2020	; 0x7e4
 800420a:	f8cd 07dc 	str.w	r0, [sp, #2012]	; 0x7dc
 800420e:	f50d 60fd 	add.w	r0, sp, #2024	; 0x7e8
 8004212:	f8cd 07e0 	str.w	r0, [sp, #2016]	; 0x7e0
 8004216:	f8dd 07dc 	ldr.w	r0, [sp, #2012]	; 0x7dc
 800421a:	f8dd 17e0 	ldr.w	r1, [sp, #2016]	; 0x7e0
 800421e:	f7fc ffaa 	bl	8001176 <_ZN4mem310checkpoint14initialization28_$u7b$$u7b$closure$u7d$$u7d$17hc5dd05b6ad486997E>
 8004222:	4601      	mov	r1, r0
 8004224:	980c      	ldr	r0, [sp, #48]	; 0x30
 8004226:	6809      	ldr	r1, [r1, #0]
 8004228:	f8cd 07fc 	str.w	r0, [sp, #2044]	; 0x7fc
 800422c:	f8cd 1800 	str.w	r1, [sp, #2048]	; 0x800
 8004230:	f8cd 0804 	str.w	r0, [sp, #2052]	; 0x804
 8004234:	f003 f8dd 	bl	80073f2 <_ZN4core3ptr14write_volatile17h46a673fe162f1e59E>
 8004238:	980d      	ldr	r0, [sp, #52]	; 0x34
 800423a:	990e      	ldr	r1, [sp, #56]	; 0x38
 800423c:	9191      	str	r1, [sp, #580]	; 0x244
 800423e:	f8cd 07c0 	str.w	r0, [sp, #1984]	; 0x7c0
 8004242:	f8cd 07c8 	str.w	r0, [sp, #1992]	; 0x7c8
 8004246:	f8cd 07cc 	str.w	r0, [sp, #1996]	; 0x7cc
 800424a:	f003 f89b 	bl	8007384 <_ZN4core3ptr13read_volatile17h384c2f472b76a07aE>
 800424e:	f8cd 07c4 	str.w	r0, [sp, #1988]	; 0x7c4
 8004252:	f8cd 07b8 	str.w	r0, [sp, #1976]	; 0x7b8
 8004256:	f8cd 07bc 	str.w	r0, [sp, #1980]	; 0x7bc
 800425a:	f50d 60f7 	add.w	r0, sp, #1976	; 0x7b8
 800425e:	f8cd 07b0 	str.w	r0, [sp, #1968]	; 0x7b0
 8004262:	f20d 70bc 	addw	r0, sp, #1980	; 0x7bc
 8004266:	f8cd 07b4 	str.w	r0, [sp, #1972]	; 0x7b4
 800426a:	f8dd 07b0 	ldr.w	r0, [sp, #1968]	; 0x7b0
 800426e:	f8dd 17b4 	ldr.w	r1, [sp, #1972]	; 0x7b4
 8004272:	f7fc ffa7 	bl	80011c4 <_ZN4mem310checkpoint14initialization28_$u7b$$u7b$closure$u7d$$u7d$17he9436e464764b706E>
 8004276:	4601      	mov	r1, r0
 8004278:	980d      	ldr	r0, [sp, #52]	; 0x34
 800427a:	6809      	ldr	r1, [r1, #0]
 800427c:	f8cd 07d0 	str.w	r0, [sp, #2000]	; 0x7d0
 8004280:	f8cd 17d4 	str.w	r1, [sp, #2004]	; 0x7d4
 8004284:	f8cd 07d8 	str.w	r0, [sp, #2008]	; 0x7d8
 8004288:	f003 f8b3 	bl	80073f2 <_ZN4core3ptr14write_volatile17h46a673fe162f1e59E>
 800428c:	990e      	ldr	r1, [sp, #56]	; 0x38
 800428e:	980f      	ldr	r0, [sp, #60]	; 0x3c
 8004290:	9190      	str	r1, [sp, #576]	; 0x240
 8004292:	f8cd 0ea0 	str.w	r0, [sp, #3744]	; 0xea0
 8004296:	f8cd 0ea8 	str.w	r0, [sp, #3752]	; 0xea8
 800429a:	f8cd 0eac 	str.w	r0, [sp, #3756]	; 0xeac
 800429e:	f003 f871 	bl	8007384 <_ZN4core3ptr13read_volatile17h384c2f472b76a07aE>
 80042a2:	f8cd 0ea4 	str.w	r0, [sp, #3748]	; 0xea4
 80042a6:	f8cd 0e98 	str.w	r0, [sp, #3736]	; 0xe98
 80042aa:	f8cd 0e9c 	str.w	r0, [sp, #3740]	; 0xe9c
 80042ae:	f60d 6098 	addw	r0, sp, #3736	; 0xe98
 80042b2:	f8cd 0e90 	str.w	r0, [sp, #3728]	; 0xe90
 80042b6:	f60d 609c 	addw	r0, sp, #3740	; 0xe9c
 80042ba:	f8cd 0e94 	str.w	r0, [sp, #3732]	; 0xe94
 80042be:	f8dd 0e90 	ldr.w	r0, [sp, #3728]	; 0xe90
 80042c2:	f8dd 1e94 	ldr.w	r1, [sp, #3732]	; 0xe94
 80042c6:	f7fc ffa4 	bl	8001212 <_ZN4mem310checkpoint14initialization28_$u7b$$u7b$closure$u7d$$u7d$17hf6b2a660979c4acbE>
 80042ca:	4601      	mov	r1, r0
 80042cc:	980f      	ldr	r0, [sp, #60]	; 0x3c
 80042ce:	6809      	ldr	r1, [r1, #0]
 80042d0:	f8cd 0eb0 	str.w	r0, [sp, #3760]	; 0xeb0
 80042d4:	f8cd 1eb4 	str.w	r1, [sp, #3764]	; 0xeb4
 80042d8:	f8cd 0eb8 	str.w	r0, [sp, #3768]	; 0xeb8
 80042dc:	f003 f889 	bl	80073f2 <_ZN4core3ptr14write_volatile17h46a673fe162f1e59E>
 80042e0:	f10d 00dd 	add.w	r0, sp, #221	; 0xdd
 80042e4:	9012      	str	r0, [sp, #72]	; 0x48
 80042e6:	90b9      	str	r0, [sp, #740]	; 0x2e4
 80042e8:	f641 0000 	movw	r0, #6144	; 0x1800
 80042ec:	f6c4 0000 	movt	r0, #18432	; 0x4800
 80042f0:	9010      	str	r0, [sp, #64]	; 0x40
 80042f2:	f8cd 0dc4 	str.w	r0, [sp, #3524]	; 0xdc4
 80042f6:	f8cd 0dcc 	str.w	r0, [sp, #3532]	; 0xdcc
 80042fa:	f8cd 0dd0 	str.w	r0, [sp, #3536]	; 0xdd0
 80042fe:	f003 f841 	bl	8007384 <_ZN4core3ptr13read_volatile17h384c2f472b76a07aE>
 8004302:	f8cd 0dc8 	str.w	r0, [sp, #3528]	; 0xdc8
 8004306:	f8cd 0dbc 	str.w	r0, [sp, #3516]	; 0xdbc
 800430a:	f8cd 0dc0 	str.w	r0, [sp, #3520]	; 0xdc0
 800430e:	f60d 50bc 	addw	r0, sp, #3516	; 0xdbc
 8004312:	f8cd 0db4 	str.w	r0, [sp, #3508]	; 0xdb4
 8004316:	f50d 605c 	add.w	r0, sp, #3520	; 0xdc0
 800431a:	f8cd 0db8 	str.w	r0, [sp, #3512]	; 0xdb8
 800431e:	f8dd 0db4 	ldr.w	r0, [sp, #3508]	; 0xdb4
 8004322:	f8dd 1db8 	ldr.w	r1, [sp, #3512]	; 0xdb8
 8004326:	f7fc ff9b 	bl	8001260 <_ZN4mem310checkpoint14initialization28_$u7b$$u7b$closure$u7d$$u7d$17hba5b856812f4216bE>
 800432a:	4601      	mov	r1, r0
 800432c:	9810      	ldr	r0, [sp, #64]	; 0x40
 800432e:	6809      	ldr	r1, [r1, #0]
 8004330:	f8cd 0dd4 	str.w	r0, [sp, #3540]	; 0xdd4
 8004334:	f8cd 1dd8 	str.w	r1, [sp, #3544]	; 0xdd8
 8004338:	f8cd 0ddc 	str.w	r0, [sp, #3548]	; 0xddc
 800433c:	f003 f859 	bl	80073f2 <_ZN4core3ptr14write_volatile17h46a673fe162f1e59E>
 8004340:	9812      	ldr	r0, [sp, #72]	; 0x48
 8004342:	992a      	ldr	r1, [sp, #168]	; 0xa8
 8004344:	90b8      	str	r0, [sp, #736]	; 0x2e0
 8004346:	f641 0020 	movw	r0, #6176	; 0x1820
 800434a:	f6c4 0000 	movt	r0, #18432	; 0x4800
 800434e:	9011      	str	r0, [sp, #68]	; 0x44
 8004350:	f8c1 05d8 	str.w	r0, [r1, #1496]	; 0x5d8
 8004354:	f8c1 05e0 	str.w	r0, [r1, #1504]	; 0x5e0
 8004358:	f8c1 05e4 	str.w	r0, [r1, #1508]	; 0x5e4
 800435c:	f003 f812 	bl	8007384 <_ZN4core3ptr13read_volatile17h384c2f472b76a07aE>
 8004360:	992a      	ldr	r1, [sp, #168]	; 0xa8
 8004362:	f8c1 05dc 	str.w	r0, [r1, #1500]	; 0x5dc
 8004366:	f8c1 05d0 	str.w	r0, [r1, #1488]	; 0x5d0
 800436a:	f8c1 05d4 	str.w	r0, [r1, #1492]	; 0x5d4
 800436e:	f10d 0e1c 	add.w	lr, sp, #28
 8004372:	f50e 50af 	add.w	r0, lr, #5600	; 0x15e0
 8004376:	f8c1 05c8 	str.w	r0, [r1, #1480]	; 0x5c8
 800437a:	f50d 50b0 	add.w	r0, sp, #5632	; 0x1600
 800437e:	f8c1 05cc 	str.w	r0, [r1, #1484]	; 0x5cc
 8004382:	f8d1 05c8 	ldr.w	r0, [r1, #1480]	; 0x5c8
 8004386:	f8d1 15cc 	ldr.w	r1, [r1, #1484]	; 0x5cc
 800438a:	f7fc ff8e 	bl	80012aa <_ZN4mem310checkpoint14initialization28_$u7b$$u7b$closure$u7d$$u7d$17h30a26d6ff20f47e4E>
 800438e:	9a2a      	ldr	r2, [sp, #168]	; 0xa8
 8004390:	4601      	mov	r1, r0
 8004392:	9811      	ldr	r0, [sp, #68]	; 0x44
 8004394:	6809      	ldr	r1, [r1, #0]
 8004396:	f8c2 05e8 	str.w	r0, [r2, #1512]	; 0x5e8
 800439a:	f8c2 15ec 	str.w	r1, [r2, #1516]	; 0x5ec
 800439e:	f8c2 05f0 	str.w	r0, [r2, #1520]	; 0x5f0
 80043a2:	f003 f826 	bl	80073f2 <_ZN4core3ptr14write_volatile17h46a673fe162f1e59E>
 80043a6:	9812      	ldr	r0, [sp, #72]	; 0x48
 80043a8:	992a      	ldr	r1, [sp, #168]	; 0xa8
 80043aa:	90b7      	str	r0, [sp, #732]	; 0x2dc
 80043ac:	f641 0008 	movw	r0, #6152	; 0x1808
 80043b0:	f6c4 0000 	movt	r0, #18432	; 0x4800
 80043b4:	9013      	str	r0, [sp, #76]	; 0x4c
 80043b6:	f8c1 0108 	str.w	r0, [r1, #264]	; 0x108
 80043ba:	f8c1 0110 	str.w	r0, [r1, #272]	; 0x110
 80043be:	f8c1 0114 	str.w	r0, [r1, #276]	; 0x114
 80043c2:	f002 ffdf 	bl	8007384 <_ZN4core3ptr13read_volatile17h384c2f472b76a07aE>
 80043c6:	992a      	ldr	r1, [sp, #168]	; 0xa8
 80043c8:	f8c1 010c 	str.w	r0, [r1, #268]	; 0x10c
 80043cc:	f8c1 0100 	str.w	r0, [r1, #256]	; 0x100
 80043d0:	f8c1 0104 	str.w	r0, [r1, #260]	; 0x104
 80043d4:	f10d 0e0c 	add.w	lr, sp, #12
 80043d8:	f50e 5089 	add.w	r0, lr, #4384	; 0x1120
 80043dc:	f8c1 00f8 	str.w	r0, [r1, #248]	; 0xf8
 80043e0:	f10d 0e10 	add.w	lr, sp, #16
 80043e4:	f50e 5089 	add.w	r0, lr, #4384	; 0x1120
 80043e8:	f8c1 00fc 	str.w	r0, [r1, #252]	; 0xfc
 80043ec:	f8d1 00f8 	ldr.w	r0, [r1, #248]	; 0xf8
 80043f0:	f8d1 10fc 	ldr.w	r1, [r1, #252]	; 0xfc
 80043f4:	f7fc ff7e 	bl	80012f4 <_ZN4mem310checkpoint14initialization28_$u7b$$u7b$closure$u7d$$u7d$17h6539634417f393b8E>
 80043f8:	9a2a      	ldr	r2, [sp, #168]	; 0xa8
 80043fa:	4601      	mov	r1, r0
 80043fc:	9813      	ldr	r0, [sp, #76]	; 0x4c
 80043fe:	6809      	ldr	r1, [r1, #0]
 8004400:	f8c2 0118 	str.w	r0, [r2, #280]	; 0x118
 8004404:	f8c2 111c 	str.w	r1, [r2, #284]	; 0x11c
 8004408:	f8c2 0120 	str.w	r0, [r2, #288]	; 0x120
 800440c:	f002 fff1 	bl	80073f2 <_ZN4core3ptr14write_volatile17h46a673fe162f1e59E>
 8004410:	9810      	ldr	r0, [sp, #64]	; 0x40
 8004412:	9a12      	ldr	r2, [sp, #72]	; 0x48
 8004414:	992a      	ldr	r1, [sp, #168]	; 0xa8
 8004416:	92b6      	str	r2, [sp, #728]	; 0x2d8
 8004418:	62c8      	str	r0, [r1, #44]	; 0x2c
 800441a:	6348      	str	r0, [r1, #52]	; 0x34
 800441c:	6388      	str	r0, [r1, #56]	; 0x38
 800441e:	f002 ffb1 	bl	8007384 <_ZN4core3ptr13read_volatile17h384c2f472b76a07aE>
 8004422:	992a      	ldr	r1, [sp, #168]	; 0xa8
 8004424:	6308      	str	r0, [r1, #48]	; 0x30
 8004426:	6248      	str	r0, [r1, #36]	; 0x24
 8004428:	6288      	str	r0, [r1, #40]	; 0x28
 800442a:	f10d 0e10 	add.w	lr, sp, #16
 800442e:	f50e 5082 	add.w	r0, lr, #4160	; 0x1040
 8004432:	61c8      	str	r0, [r1, #28]
 8004434:	f10d 0e14 	add.w	lr, sp, #20
 8004438:	f50e 5082 	add.w	r0, lr, #4160	; 0x1040
 800443c:	6208      	str	r0, [r1, #32]
 800443e:	69c8      	ldr	r0, [r1, #28]
 8004440:	6a09      	ldr	r1, [r1, #32]
 8004442:	f7fc ff7c 	bl	800133e <_ZN4mem310checkpoint14initialization28_$u7b$$u7b$closure$u7d$$u7d$17h257246d2b6bf9995E>
 8004446:	9a2a      	ldr	r2, [sp, #168]	; 0xa8
 8004448:	4601      	mov	r1, r0
 800444a:	9810      	ldr	r0, [sp, #64]	; 0x40
 800444c:	6809      	ldr	r1, [r1, #0]
 800444e:	63d0      	str	r0, [r2, #60]	; 0x3c
 8004450:	6411      	str	r1, [r2, #64]	; 0x40
 8004452:	6450      	str	r0, [r2, #68]	; 0x44
 8004454:	f002 ffcd 	bl	80073f2 <_ZN4core3ptr14write_volatile17h46a673fe162f1e59E>
 8004458:	9811      	ldr	r0, [sp, #68]	; 0x44
 800445a:	9912      	ldr	r1, [sp, #72]	; 0x48
 800445c:	91b5      	str	r1, [sp, #724]	; 0x2d4
 800445e:	f8cd 0a28 	str.w	r0, [sp, #2600]	; 0xa28
 8004462:	f8cd 0a30 	str.w	r0, [sp, #2608]	; 0xa30
 8004466:	f8cd 0a34 	str.w	r0, [sp, #2612]	; 0xa34
 800446a:	f002 ff8b 	bl	8007384 <_ZN4core3ptr13read_volatile17h384c2f472b76a07aE>
 800446e:	f8cd 0a2c 	str.w	r0, [sp, #2604]	; 0xa2c
 8004472:	f8cd 0a20 	str.w	r0, [sp, #2592]	; 0xa20
 8004476:	f8cd 0a24 	str.w	r0, [sp, #2596]	; 0xa24
 800447a:	f50d 6022 	add.w	r0, sp, #2592	; 0xa20
 800447e:	f8cd 0a18 	str.w	r0, [sp, #2584]	; 0xa18
 8004482:	f60d 2024 	addw	r0, sp, #2596	; 0xa24
 8004486:	f8cd 0a1c 	str.w	r0, [sp, #2588]	; 0xa1c
 800448a:	f8dd 0a18 	ldr.w	r0, [sp, #2584]	; 0xa18
 800448e:	f8dd 1a1c 	ldr.w	r1, [sp, #2588]	; 0xa1c
 8004492:	f7fc ff7d 	bl	8001390 <_ZN4mem310checkpoint14initialization28_$u7b$$u7b$closure$u7d$$u7d$17h153b8323b5185f8aE>
 8004496:	4601      	mov	r1, r0
 8004498:	9811      	ldr	r0, [sp, #68]	; 0x44
 800449a:	6809      	ldr	r1, [r1, #0]
 800449c:	f8cd 0a38 	str.w	r0, [sp, #2616]	; 0xa38
 80044a0:	f8cd 1a3c 	str.w	r1, [sp, #2620]	; 0xa3c
 80044a4:	f8cd 0a40 	str.w	r0, [sp, #2624]	; 0xa40
 80044a8:	f002 ffa3 	bl	80073f2 <_ZN4core3ptr14write_volatile17h46a673fe162f1e59E>
 80044ac:	9912      	ldr	r1, [sp, #72]	; 0x48
 80044ae:	9813      	ldr	r0, [sp, #76]	; 0x4c
 80044b0:	91b4      	str	r1, [sp, #720]	; 0x2d0
 80044b2:	f8cd 0768 	str.w	r0, [sp, #1896]	; 0x768
 80044b6:	f8cd 0770 	str.w	r0, [sp, #1904]	; 0x770
 80044ba:	f8cd 0774 	str.w	r0, [sp, #1908]	; 0x774
 80044be:	f002 ff61 	bl	8007384 <_ZN4core3ptr13read_volatile17h384c2f472b76a07aE>
 80044c2:	f8cd 076c 	str.w	r0, [sp, #1900]	; 0x76c
 80044c6:	f8cd 0760 	str.w	r0, [sp, #1888]	; 0x760
 80044ca:	f8cd 0764 	str.w	r0, [sp, #1892]	; 0x764
 80044ce:	f50d 60ec 	add.w	r0, sp, #1888	; 0x760
 80044d2:	f8cd 0758 	str.w	r0, [sp, #1880]	; 0x758
 80044d6:	f20d 7064 	addw	r0, sp, #1892	; 0x764
 80044da:	f8cd 075c 	str.w	r0, [sp, #1884]	; 0x75c
 80044de:	f8dd 0758 	ldr.w	r0, [sp, #1880]	; 0x758
 80044e2:	f8dd 175c 	ldr.w	r1, [sp, #1884]	; 0x75c
 80044e6:	f7fc ff7c 	bl	80013e2 <_ZN4mem310checkpoint14initialization28_$u7b$$u7b$closure$u7d$$u7d$17h95392e744e248f8bE>
 80044ea:	4601      	mov	r1, r0
 80044ec:	9813      	ldr	r0, [sp, #76]	; 0x4c
 80044ee:	6809      	ldr	r1, [r1, #0]
 80044f0:	f8cd 0778 	str.w	r0, [sp, #1912]	; 0x778
 80044f4:	f8cd 177c 	str.w	r1, [sp, #1916]	; 0x77c
 80044f8:	f8cd 0780 	str.w	r0, [sp, #1920]	; 0x780
 80044fc:	f002 ff79 	bl	80073f2 <_ZN4core3ptr14write_volatile17h46a673fe162f1e59E>
 8004500:	9810      	ldr	r0, [sp, #64]	; 0x40
 8004502:	9a12      	ldr	r2, [sp, #72]	; 0x48
 8004504:	992a      	ldr	r1, [sp, #168]	; 0xa8
 8004506:	92b3      	str	r2, [sp, #716]	; 0x2cc
 8004508:	f8c1 0580 	str.w	r0, [r1, #1408]	; 0x580
 800450c:	f8c1 0588 	str.w	r0, [r1, #1416]	; 0x588
 8004510:	f8c1 058c 	str.w	r0, [r1, #1420]	; 0x58c
 8004514:	f002 ff36 	bl	8007384 <_ZN4core3ptr13read_volatile17h384c2f472b76a07aE>
 8004518:	992a      	ldr	r1, [sp, #168]	; 0xa8
 800451a:	f8c1 0584 	str.w	r0, [r1, #1412]	; 0x584
 800451e:	f8c1 0578 	str.w	r0, [r1, #1400]	; 0x578
 8004522:	f8c1 057c 	str.w	r0, [r1, #1404]	; 0x57c
 8004526:	f10d 0e04 	add.w	lr, sp, #4
 800452a:	f50e 50ad 	add.w	r0, lr, #5536	; 0x15a0
 800452e:	f8c1 0570 	str.w	r0, [r1, #1392]	; 0x570
 8004532:	f10d 0e08 	add.w	lr, sp, #8
 8004536:	f50e 50ad 	add.w	r0, lr, #5536	; 0x15a0
 800453a:	f8c1 0574 	str.w	r0, [r1, #1396]	; 0x574
 800453e:	f8d1 0570 	ldr.w	r0, [r1, #1392]	; 0x570
 8004542:	f8d1 1574 	ldr.w	r1, [r1, #1396]	; 0x574
 8004546:	f7fc ff75 	bl	8001434 <_ZN4mem310checkpoint14initialization28_$u7b$$u7b$closure$u7d$$u7d$17hc35dac7480372d2dE>
 800454a:	9a2a      	ldr	r2, [sp, #168]	; 0xa8
 800454c:	4601      	mov	r1, r0
 800454e:	9810      	ldr	r0, [sp, #64]	; 0x40
 8004550:	6809      	ldr	r1, [r1, #0]
 8004552:	f8c2 0590 	str.w	r0, [r2, #1424]	; 0x590
 8004556:	f8c2 1594 	str.w	r1, [r2, #1428]	; 0x594
 800455a:	f8c2 0598 	str.w	r0, [r2, #1432]	; 0x598
 800455e:	f002 ff48 	bl	80073f2 <_ZN4core3ptr14write_volatile17h46a673fe162f1e59E>
 8004562:	9811      	ldr	r0, [sp, #68]	; 0x44
 8004564:	9912      	ldr	r1, [sp, #72]	; 0x48
 8004566:	91b2      	str	r1, [sp, #712]	; 0x2c8
 8004568:	f8cd 0978 	str.w	r0, [sp, #2424]	; 0x978
 800456c:	f8cd 0980 	str.w	r0, [sp, #2432]	; 0x980
 8004570:	f8cd 0984 	str.w	r0, [sp, #2436]	; 0x984
 8004574:	f002 ff06 	bl	8007384 <_ZN4core3ptr13read_volatile17h384c2f472b76a07aE>
 8004578:	f8cd 097c 	str.w	r0, [sp, #2428]	; 0x97c
 800457c:	f8cd 0970 	str.w	r0, [sp, #2416]	; 0x970
 8004580:	f8cd 0974 	str.w	r0, [sp, #2420]	; 0x974
 8004584:	f50d 6017 	add.w	r0, sp, #2416	; 0x970
 8004588:	f8cd 0968 	str.w	r0, [sp, #2408]	; 0x968
 800458c:	f60d 1074 	addw	r0, sp, #2420	; 0x974
 8004590:	f8cd 096c 	str.w	r0, [sp, #2412]	; 0x96c
 8004594:	f8dd 0968 	ldr.w	r0, [sp, #2408]	; 0x968
 8004598:	f8dd 196c 	ldr.w	r1, [sp, #2412]	; 0x96c
 800459c:	f7fc ff73 	bl	8001486 <_ZN4mem310checkpoint14initialization28_$u7b$$u7b$closure$u7d$$u7d$17h1b850279a3c7e4a5E>
 80045a0:	4601      	mov	r1, r0
 80045a2:	9811      	ldr	r0, [sp, #68]	; 0x44
 80045a4:	6809      	ldr	r1, [r1, #0]
 80045a6:	f8cd 0988 	str.w	r0, [sp, #2440]	; 0x988
 80045aa:	f8cd 198c 	str.w	r1, [sp, #2444]	; 0x98c
 80045ae:	f8cd 0990 	str.w	r0, [sp, #2448]	; 0x990
 80045b2:	f002 ff1e 	bl	80073f2 <_ZN4core3ptr14write_volatile17h46a673fe162f1e59E>
 80045b6:	9912      	ldr	r1, [sp, #72]	; 0x48
 80045b8:	9813      	ldr	r0, [sp, #76]	; 0x4c
 80045ba:	91b1      	str	r1, [sp, #708]	; 0x2c4
 80045bc:	f8cd 0fd4 	str.w	r0, [sp, #4052]	; 0xfd4
 80045c0:	f8cd 0fdc 	str.w	r0, [sp, #4060]	; 0xfdc
 80045c4:	f8cd 0fe0 	str.w	r0, [sp, #4064]	; 0xfe0
 80045c8:	f002 fedc 	bl	8007384 <_ZN4core3ptr13read_volatile17h384c2f472b76a07aE>
 80045cc:	f8cd 0fd8 	str.w	r0, [sp, #4056]	; 0xfd8
 80045d0:	f8cd 0fcc 	str.w	r0, [sp, #4044]	; 0xfcc
 80045d4:	f8cd 0fd0 	str.w	r0, [sp, #4048]	; 0xfd0
 80045d8:	f60d 70cc 	addw	r0, sp, #4044	; 0xfcc
 80045dc:	f8cd 0fc4 	str.w	r0, [sp, #4036]	; 0xfc4
 80045e0:	f50d 607d 	add.w	r0, sp, #4048	; 0xfd0
 80045e4:	f8cd 0fc8 	str.w	r0, [sp, #4040]	; 0xfc8
 80045e8:	f8dd 0fc4 	ldr.w	r0, [sp, #4036]	; 0xfc4
 80045ec:	f8dd 1fc8 	ldr.w	r1, [sp, #4040]	; 0xfc8
 80045f0:	f7fc ff72 	bl	80014d8 <_ZN4mem310checkpoint14initialization28_$u7b$$u7b$closure$u7d$$u7d$17h37d1c5dfd129c630E>
 80045f4:	4601      	mov	r1, r0
 80045f6:	9813      	ldr	r0, [sp, #76]	; 0x4c
 80045f8:	6809      	ldr	r1, [r1, #0]
 80045fa:	f8cd 0fe4 	str.w	r0, [sp, #4068]	; 0xfe4
 80045fe:	f8cd 1fe8 	str.w	r1, [sp, #4072]	; 0xfe8
 8004602:	f8cd 0fec 	str.w	r0, [sp, #4076]	; 0xfec
 8004606:	f002 fef4 	bl	80073f2 <_ZN4core3ptr14write_volatile17h46a673fe162f1e59E>
 800460a:	9810      	ldr	r0, [sp, #64]	; 0x40
 800460c:	9a12      	ldr	r2, [sp, #72]	; 0x48
 800460e:	992a      	ldr	r1, [sp, #168]	; 0xa8
 8004610:	92b0      	str	r2, [sp, #704]	; 0x2c0
 8004612:	f8c1 0478 	str.w	r0, [r1, #1144]	; 0x478
 8004616:	f8c1 0480 	str.w	r0, [r1, #1152]	; 0x480
 800461a:	f8c1 0484 	str.w	r0, [r1, #1156]	; 0x484
 800461e:	f002 feb1 	bl	8007384 <_ZN4core3ptr13read_volatile17h384c2f472b76a07aE>
 8004622:	992a      	ldr	r1, [sp, #168]	; 0xa8
 8004624:	f8c1 047c 	str.w	r0, [r1, #1148]	; 0x47c
 8004628:	f8c1 0470 	str.w	r0, [r1, #1136]	; 0x470
 800462c:	f8c1 0474 	str.w	r0, [r1, #1140]	; 0x474
 8004630:	f10d 0e1c 	add.w	lr, sp, #28
 8004634:	f50e 50a4 	add.w	r0, lr, #5248	; 0x1480
 8004638:	f8c1 0468 	str.w	r0, [r1, #1128]	; 0x468
 800463c:	f50d 50a5 	add.w	r0, sp, #5280	; 0x14a0
 8004640:	f8c1 046c 	str.w	r0, [r1, #1132]	; 0x46c
 8004644:	f8d1 0468 	ldr.w	r0, [r1, #1128]	; 0x468
 8004648:	f8d1 146c 	ldr.w	r1, [r1, #1132]	; 0x46c
 800464c:	f7fc ff6d 	bl	800152a <_ZN4mem310checkpoint14initialization28_$u7b$$u7b$closure$u7d$$u7d$17h16b933f1ef258bb1E>
 8004650:	9a2a      	ldr	r2, [sp, #168]	; 0xa8
 8004652:	4601      	mov	r1, r0
 8004654:	9810      	ldr	r0, [sp, #64]	; 0x40
 8004656:	6809      	ldr	r1, [r1, #0]
 8004658:	f8c2 0488 	str.w	r0, [r2, #1160]	; 0x488
 800465c:	f8c2 148c 	str.w	r1, [r2, #1164]	; 0x48c
 8004660:	f8c2 0490 	str.w	r0, [r2, #1168]	; 0x490
 8004664:	f002 fec5 	bl	80073f2 <_ZN4core3ptr14write_volatile17h46a673fe162f1e59E>
 8004668:	9811      	ldr	r0, [sp, #68]	; 0x44
 800466a:	9912      	ldr	r1, [sp, #72]	; 0x48
 800466c:	91af      	str	r1, [sp, #700]	; 0x2bc
 800466e:	f8cd 04d4 	str.w	r0, [sp, #1236]	; 0x4d4
 8004672:	f8cd 04dc 	str.w	r0, [sp, #1244]	; 0x4dc
 8004676:	f8cd 04e0 	str.w	r0, [sp, #1248]	; 0x4e0
 800467a:	f002 fe83 	bl	8007384 <_ZN4core3ptr13read_volatile17h384c2f472b76a07aE>
 800467e:	f8cd 04d8 	str.w	r0, [sp, #1240]	; 0x4d8
 8004682:	f8cd 04cc 	str.w	r0, [sp, #1228]	; 0x4cc
 8004686:	f8cd 04d0 	str.w	r0, [sp, #1232]	; 0x4d0
 800468a:	f20d 40cc 	addw	r0, sp, #1228	; 0x4cc
 800468e:	f8cd 04c4 	str.w	r0, [sp, #1220]	; 0x4c4
 8004692:	f50d 609a 	add.w	r0, sp, #1232	; 0x4d0
 8004696:	f8cd 04c8 	str.w	r0, [sp, #1224]	; 0x4c8
 800469a:	f8dd 04c4 	ldr.w	r0, [sp, #1220]	; 0x4c4
 800469e:	f8dd 14c8 	ldr.w	r1, [sp, #1224]	; 0x4c8
 80046a2:	f7fc ff6b 	bl	800157c <_ZN4mem310checkpoint14initialization28_$u7b$$u7b$closure$u7d$$u7d$17hca84cfdcf0f5bf20E>
 80046a6:	4601      	mov	r1, r0
 80046a8:	9811      	ldr	r0, [sp, #68]	; 0x44
 80046aa:	6809      	ldr	r1, [r1, #0]
 80046ac:	f8cd 04e4 	str.w	r0, [sp, #1252]	; 0x4e4
 80046b0:	f8cd 14e8 	str.w	r1, [sp, #1256]	; 0x4e8
 80046b4:	f8cd 04ec 	str.w	r0, [sp, #1260]	; 0x4ec
 80046b8:	f002 fe9b 	bl	80073f2 <_ZN4core3ptr14write_volatile17h46a673fe162f1e59E>
 80046bc:	9a12      	ldr	r2, [sp, #72]	; 0x48
 80046be:	9813      	ldr	r0, [sp, #76]	; 0x4c
 80046c0:	992a      	ldr	r1, [sp, #168]	; 0xa8
 80046c2:	92ae      	str	r2, [sp, #696]	; 0x2b8
 80046c4:	f8c1 00b0 	str.w	r0, [r1, #176]	; 0xb0
 80046c8:	f8c1 00b8 	str.w	r0, [r1, #184]	; 0xb8
 80046cc:	f8c1 00bc 	str.w	r0, [r1, #188]	; 0xbc
 80046d0:	f002 fe58 	bl	8007384 <_ZN4core3ptr13read_volatile17h384c2f472b76a07aE>
 80046d4:	992a      	ldr	r1, [sp, #168]	; 0xa8
 80046d6:	f8c1 00b4 	str.w	r0, [r1, #180]	; 0xb4
 80046da:	f8c1 00a8 	str.w	r0, [r1, #168]	; 0xa8
 80046de:	f8c1 00ac 	str.w	r0, [r1, #172]	; 0xac
 80046e2:	f10d 0e14 	add.w	lr, sp, #20
 80046e6:	f50e 5086 	add.w	r0, lr, #4288	; 0x10c0
 80046ea:	f8c1 00a0 	str.w	r0, [r1, #160]	; 0xa0
 80046ee:	f10d 0e18 	add.w	lr, sp, #24
 80046f2:	f50e 5086 	add.w	r0, lr, #4288	; 0x10c0
 80046f6:	f8c1 00a4 	str.w	r0, [r1, #164]	; 0xa4
 80046fa:	f8d1 00a0 	ldr.w	r0, [r1, #160]	; 0xa0
 80046fe:	f8d1 10a4 	ldr.w	r1, [r1, #164]	; 0xa4
 8004702:	f7fc ff64 	bl	80015ce <_ZN4mem310checkpoint14initialization28_$u7b$$u7b$closure$u7d$$u7d$17hba6dec74ce82aa1eE>
 8004706:	9a2a      	ldr	r2, [sp, #168]	; 0xa8
 8004708:	4601      	mov	r1, r0
 800470a:	9813      	ldr	r0, [sp, #76]	; 0x4c
 800470c:	6809      	ldr	r1, [r1, #0]
 800470e:	f8c2 00c0 	str.w	r0, [r2, #192]	; 0xc0
 8004712:	f8c2 10c4 	str.w	r1, [r2, #196]	; 0xc4
 8004716:	f8c2 00c8 	str.w	r0, [r2, #200]	; 0xc8
 800471a:	f002 fe6a 	bl	80073f2 <_ZN4core3ptr14write_volatile17h46a673fe162f1e59E>
 800471e:	9810      	ldr	r0, [sp, #64]	; 0x40
 8004720:	9912      	ldr	r1, [sp, #72]	; 0x48
 8004722:	91ad      	str	r1, [sp, #692]	; 0x2b4
 8004724:	f8cd 0ecc 	str.w	r0, [sp, #3788]	; 0xecc
 8004728:	f8cd 0ed4 	str.w	r0, [sp, #3796]	; 0xed4
 800472c:	f8cd 0ed8 	str.w	r0, [sp, #3800]	; 0xed8
 8004730:	f002 fe28 	bl	8007384 <_ZN4core3ptr13read_volatile17h384c2f472b76a07aE>
 8004734:	f8cd 0ed0 	str.w	r0, [sp, #3792]	; 0xed0
 8004738:	f8cd 0ec4 	str.w	r0, [sp, #3780]	; 0xec4
 800473c:	f8cd 0ec8 	str.w	r0, [sp, #3784]	; 0xec8
 8004740:	f60d 60c4 	addw	r0, sp, #3780	; 0xec4
 8004744:	f8cd 0ebc 	str.w	r0, [sp, #3772]	; 0xebc
 8004748:	f60d 60c8 	addw	r0, sp, #3784	; 0xec8
 800474c:	f8cd 0ec0 	str.w	r0, [sp, #3776]	; 0xec0
 8004750:	f8dd 0ebc 	ldr.w	r0, [sp, #3772]	; 0xebc
 8004754:	f8dd 1ec0 	ldr.w	r1, [sp, #3776]	; 0xec0
 8004758:	f7fc ff62 	bl	8001620 <_ZN4mem310checkpoint14initialization28_$u7b$$u7b$closure$u7d$$u7d$17h6f79479acd81efa9E>
 800475c:	4601      	mov	r1, r0
 800475e:	9810      	ldr	r0, [sp, #64]	; 0x40
 8004760:	6809      	ldr	r1, [r1, #0]
 8004762:	f8cd 0edc 	str.w	r0, [sp, #3804]	; 0xedc
 8004766:	f8cd 1ee0 	str.w	r1, [sp, #3808]	; 0xee0
 800476a:	f8cd 0ee4 	str.w	r0, [sp, #3812]	; 0xee4
 800476e:	f002 fe40 	bl	80073f2 <_ZN4core3ptr14write_volatile17h46a673fe162f1e59E>
 8004772:	9811      	ldr	r0, [sp, #68]	; 0x44
 8004774:	9912      	ldr	r1, [sp, #72]	; 0x48
 8004776:	91ac      	str	r1, [sp, #688]	; 0x2b0
 8004778:	f8cd 0d40 	str.w	r0, [sp, #3392]	; 0xd40
 800477c:	f8cd 0d48 	str.w	r0, [sp, #3400]	; 0xd48
 8004780:	f8cd 0d4c 	str.w	r0, [sp, #3404]	; 0xd4c
 8004784:	f002 fdfe 	bl	8007384 <_ZN4core3ptr13read_volatile17h384c2f472b76a07aE>
 8004788:	f8cd 0d44 	str.w	r0, [sp, #3396]	; 0xd44
 800478c:	f8cd 0d38 	str.w	r0, [sp, #3384]	; 0xd38
 8004790:	f8cd 0d3c 	str.w	r0, [sp, #3388]	; 0xd3c
 8004794:	f60d 5038 	addw	r0, sp, #3384	; 0xd38
 8004798:	f8cd 0d30 	str.w	r0, [sp, #3376]	; 0xd30
 800479c:	f60d 503c 	addw	r0, sp, #3388	; 0xd3c
 80047a0:	f8cd 0d34 	str.w	r0, [sp, #3380]	; 0xd34
 80047a4:	f8dd 0d30 	ldr.w	r0, [sp, #3376]	; 0xd30
 80047a8:	f8dd 1d34 	ldr.w	r1, [sp, #3380]	; 0xd34
 80047ac:	f7fc ff61 	bl	8001672 <_ZN4mem310checkpoint14initialization28_$u7b$$u7b$closure$u7d$$u7d$17h25fb61d7d76d10f9E>
 80047b0:	4601      	mov	r1, r0
 80047b2:	9811      	ldr	r0, [sp, #68]	; 0x44
 80047b4:	6809      	ldr	r1, [r1, #0]
 80047b6:	f8cd 0d50 	str.w	r0, [sp, #3408]	; 0xd50
 80047ba:	f8cd 1d54 	str.w	r1, [sp, #3412]	; 0xd54
 80047be:	f8cd 0d58 	str.w	r0, [sp, #3416]	; 0xd58
 80047c2:	f002 fe16 	bl	80073f2 <_ZN4core3ptr14write_volatile17h46a673fe162f1e59E>
 80047c6:	9912      	ldr	r1, [sp, #72]	; 0x48
 80047c8:	9813      	ldr	r0, [sp, #76]	; 0x4c
 80047ca:	91ab      	str	r1, [sp, #684]	; 0x2ac
 80047cc:	f8cd 06b8 	str.w	r0, [sp, #1720]	; 0x6b8
 80047d0:	f8cd 06c0 	str.w	r0, [sp, #1728]	; 0x6c0
 80047d4:	f8cd 06c4 	str.w	r0, [sp, #1732]	; 0x6c4
 80047d8:	f002 fdd4 	bl	8007384 <_ZN4core3ptr13read_volatile17h384c2f472b76a07aE>
 80047dc:	f8cd 06bc 	str.w	r0, [sp, #1724]	; 0x6bc
 80047e0:	f8cd 06b0 	str.w	r0, [sp, #1712]	; 0x6b0
 80047e4:	f8cd 06b4 	str.w	r0, [sp, #1716]	; 0x6b4
 80047e8:	f50d 60d6 	add.w	r0, sp, #1712	; 0x6b0
 80047ec:	f8cd 06a8 	str.w	r0, [sp, #1704]	; 0x6a8
 80047f0:	f20d 60b4 	addw	r0, sp, #1716	; 0x6b4
 80047f4:	f8cd 06ac 	str.w	r0, [sp, #1708]	; 0x6ac
 80047f8:	f8dd 06a8 	ldr.w	r0, [sp, #1704]	; 0x6a8
 80047fc:	f8dd 16ac 	ldr.w	r1, [sp, #1708]	; 0x6ac
 8004800:	f7fc ff60 	bl	80016c4 <_ZN4mem310checkpoint14initialization28_$u7b$$u7b$closure$u7d$$u7d$17hfbe1dfc078396314E>
 8004804:	4601      	mov	r1, r0
 8004806:	9813      	ldr	r0, [sp, #76]	; 0x4c
 8004808:	6809      	ldr	r1, [r1, #0]
 800480a:	f8cd 06c8 	str.w	r0, [sp, #1736]	; 0x6c8
 800480e:	f8cd 16cc 	str.w	r1, [sp, #1740]	; 0x6cc
 8004812:	f8cd 06d0 	str.w	r0, [sp, #1744]	; 0x6d0
 8004816:	f002 fdec 	bl	80073f2 <_ZN4core3ptr14write_volatile17h46a673fe162f1e59E>
 800481a:	9810      	ldr	r0, [sp, #64]	; 0x40
 800481c:	9a12      	ldr	r2, [sp, #72]	; 0x48
 800481e:	992a      	ldr	r1, [sp, #168]	; 0xa8
 8004820:	92aa      	str	r2, [sp, #680]	; 0x2a8
 8004822:	f8c1 01b8 	str.w	r0, [r1, #440]	; 0x1b8
 8004826:	f8c1 01c0 	str.w	r0, [r1, #448]	; 0x1c0
 800482a:	f8c1 01c4 	str.w	r0, [r1, #452]	; 0x1c4
 800482e:	f002 fda9 	bl	8007384 <_ZN4core3ptr13read_volatile17h384c2f472b76a07aE>
 8004832:	992a      	ldr	r1, [sp, #168]	; 0xa8
 8004834:	f8c1 01bc 	str.w	r0, [r1, #444]	; 0x1bc
 8004838:	f8c1 01b0 	str.w	r0, [r1, #432]	; 0x1b0
 800483c:	f8c1 01b4 	str.w	r0, [r1, #436]	; 0x1b4
 8004840:	f10d 0e1c 	add.w	lr, sp, #28
 8004844:	f50e 508e 	add.w	r0, lr, #4544	; 0x11c0
 8004848:	f8c1 01a8 	str.w	r0, [r1, #424]	; 0x1a8
 800484c:	f50d 508f 	add.w	r0, sp, #4576	; 0x11e0
 8004850:	f8c1 01ac 	str.w	r0, [r1, #428]	; 0x1ac
 8004854:	f8d1 01a8 	ldr.w	r0, [r1, #424]	; 0x1a8
 8004858:	f8d1 11ac 	ldr.w	r1, [r1, #428]	; 0x1ac
 800485c:	f7fc ff5b 	bl	8001716 <_ZN4mem310checkpoint14initialization28_$u7b$$u7b$closure$u7d$$u7d$17h21f518cba86d7f37E>
 8004860:	9a2a      	ldr	r2, [sp, #168]	; 0xa8
 8004862:	4601      	mov	r1, r0
 8004864:	9810      	ldr	r0, [sp, #64]	; 0x40
 8004866:	6809      	ldr	r1, [r1, #0]
 8004868:	f8c2 01c8 	str.w	r0, [r2, #456]	; 0x1c8
 800486c:	f8c2 11cc 	str.w	r1, [r2, #460]	; 0x1cc
 8004870:	f8c2 01d0 	str.w	r0, [r2, #464]	; 0x1d0
 8004874:	f002 fdbd 	bl	80073f2 <_ZN4core3ptr14write_volatile17h46a673fe162f1e59E>
 8004878:	9811      	ldr	r0, [sp, #68]	; 0x44
 800487a:	9912      	ldr	r1, [sp, #72]	; 0x48
 800487c:	91a9      	str	r1, [sp, #676]	; 0x2a4
 800487e:	f8cd 073c 	str.w	r0, [sp, #1852]	; 0x73c
 8004882:	f8cd 0744 	str.w	r0, [sp, #1860]	; 0x744
 8004886:	f8cd 0748 	str.w	r0, [sp, #1864]	; 0x748
 800488a:	f002 fd7b 	bl	8007384 <_ZN4core3ptr13read_volatile17h384c2f472b76a07aE>
 800488e:	f8cd 0740 	str.w	r0, [sp, #1856]	; 0x740
 8004892:	f8cd 0734 	str.w	r0, [sp, #1844]	; 0x734
 8004896:	f8cd 0738 	str.w	r0, [sp, #1848]	; 0x738
 800489a:	f20d 7034 	addw	r0, sp, #1844	; 0x734
 800489e:	f8cd 072c 	str.w	r0, [sp, #1836]	; 0x72c
 80048a2:	f50d 60e7 	add.w	r0, sp, #1848	; 0x738
 80048a6:	f8cd 0730 	str.w	r0, [sp, #1840]	; 0x730
 80048aa:	f8dd 072c 	ldr.w	r0, [sp, #1836]	; 0x72c
 80048ae:	f8dd 1730 	ldr.w	r1, [sp, #1840]	; 0x730
 80048b2:	f7fc ff59 	bl	8001768 <_ZN4mem310checkpoint14initialization28_$u7b$$u7b$closure$u7d$$u7d$17h096011064112a9faE>
 80048b6:	4601      	mov	r1, r0
 80048b8:	9811      	ldr	r0, [sp, #68]	; 0x44
 80048ba:	6809      	ldr	r1, [r1, #0]
 80048bc:	f8cd 074c 	str.w	r0, [sp, #1868]	; 0x74c
 80048c0:	f8cd 1750 	str.w	r1, [sp, #1872]	; 0x750
 80048c4:	f8cd 0754 	str.w	r0, [sp, #1876]	; 0x754
 80048c8:	f002 fd93 	bl	80073f2 <_ZN4core3ptr14write_volatile17h46a673fe162f1e59E>
 80048cc:	9912      	ldr	r1, [sp, #72]	; 0x48
 80048ce:	9813      	ldr	r0, [sp, #76]	; 0x4c
 80048d0:	91a8      	str	r1, [sp, #672]	; 0x2a0
 80048d2:	f8cd 0f50 	str.w	r0, [sp, #3920]	; 0xf50
 80048d6:	f8cd 0f58 	str.w	r0, [sp, #3928]	; 0xf58
 80048da:	f8cd 0f5c 	str.w	r0, [sp, #3932]	; 0xf5c
 80048de:	f002 fd51 	bl	8007384 <_ZN4core3ptr13read_volatile17h384c2f472b76a07aE>
 80048e2:	f8cd 0f54 	str.w	r0, [sp, #3924]	; 0xf54
 80048e6:	f8cd 0f48 	str.w	r0, [sp, #3912]	; 0xf48
 80048ea:	f8cd 0f4c 	str.w	r0, [sp, #3916]	; 0xf4c
 80048ee:	f60d 7048 	addw	r0, sp, #3912	; 0xf48
 80048f2:	f8cd 0f40 	str.w	r0, [sp, #3904]	; 0xf40
 80048f6:	f60d 704c 	addw	r0, sp, #3916	; 0xf4c
 80048fa:	f8cd 0f44 	str.w	r0, [sp, #3908]	; 0xf44
 80048fe:	f8dd 0f40 	ldr.w	r0, [sp, #3904]	; 0xf40
 8004902:	f8dd 1f44 	ldr.w	r1, [sp, #3908]	; 0xf44
 8004906:	f7fc ff58 	bl	80017ba <_ZN4mem310checkpoint14initialization28_$u7b$$u7b$closure$u7d$$u7d$17hf28812279b2c2a00E>
 800490a:	4601      	mov	r1, r0
 800490c:	9813      	ldr	r0, [sp, #76]	; 0x4c
 800490e:	6809      	ldr	r1, [r1, #0]
 8004910:	f8cd 0f60 	str.w	r0, [sp, #3936]	; 0xf60
 8004914:	f8cd 1f64 	str.w	r1, [sp, #3940]	; 0xf64
 8004918:	f8cd 0f68 	str.w	r0, [sp, #3944]	; 0xf68
 800491c:	f002 fd69 	bl	80073f2 <_ZN4core3ptr14write_volatile17h46a673fe162f1e59E>
 8004920:	992a      	ldr	r1, [sp, #168]	; 0xa8
 8004922:	f10d 00da 	add.w	r0, sp, #218	; 0xda
 8004926:	901c      	str	r0, [sp, #112]	; 0x70
 8004928:	9074      	str	r0, [sp, #464]	; 0x1d0
 800492a:	f640 4000 	movw	r0, #3072	; 0xc00
 800492e:	f6c4 0000 	movt	r0, #18432	; 0x4800
 8004932:	901a      	str	r0, [sp, #104]	; 0x68
 8004934:	f8c1 0370 	str.w	r0, [r1, #880]	; 0x370
 8004938:	f8c1 0378 	str.w	r0, [r1, #888]	; 0x378
 800493c:	f8c1 037c 	str.w	r0, [r1, #892]	; 0x37c
 8004940:	f002 fd20 	bl	8007384 <_ZN4core3ptr13read_volatile17h384c2f472b76a07aE>
 8004944:	992a      	ldr	r1, [sp, #168]	; 0xa8
 8004946:	f8c1 0374 	str.w	r0, [r1, #884]	; 0x374
 800494a:	f8c1 0368 	str.w	r0, [r1, #872]	; 0x368
 800494e:	f8c1 036c 	str.w	r0, [r1, #876]	; 0x36c
 8004952:	f10d 0e14 	add.w	lr, sp, #20
 8004956:	f50e 509c 	add.w	r0, lr, #4992	; 0x1380
 800495a:	f8c1 0360 	str.w	r0, [r1, #864]	; 0x360
 800495e:	f10d 0e18 	add.w	lr, sp, #24
 8004962:	f50e 509c 	add.w	r0, lr, #4992	; 0x1380
 8004966:	f8c1 0364 	str.w	r0, [r1, #868]	; 0x364
 800496a:	f8d1 0360 	ldr.w	r0, [r1, #864]	; 0x360
 800496e:	f8d1 1364 	ldr.w	r1, [r1, #868]	; 0x364
 8004972:	f7fc ff4b 	bl	800180c <_ZN4mem310checkpoint14initialization28_$u7b$$u7b$closure$u7d$$u7d$17h81714c99b1bb50f2E>
 8004976:	9a2a      	ldr	r2, [sp, #168]	; 0xa8
 8004978:	4601      	mov	r1, r0
 800497a:	981a      	ldr	r0, [sp, #104]	; 0x68
 800497c:	6809      	ldr	r1, [r1, #0]
 800497e:	f8c2 0380 	str.w	r0, [r2, #896]	; 0x380
 8004982:	f8c2 1384 	str.w	r1, [r2, #900]	; 0x384
 8004986:	f8c2 0388 	str.w	r0, [r2, #904]	; 0x388
 800498a:	f002 fd32 	bl	80073f2 <_ZN4core3ptr14write_volatile17h46a673fe162f1e59E>
 800498e:	981c      	ldr	r0, [sp, #112]	; 0x70
 8004990:	992a      	ldr	r1, [sp, #168]	; 0xa8
 8004992:	9073      	str	r0, [sp, #460]	; 0x1cc
 8004994:	f640 4024 	movw	r0, #3108	; 0xc24
 8004998:	f6c4 0000 	movt	r0, #18432	; 0x4800
 800499c:	9019      	str	r0, [sp, #100]	; 0x64
 800499e:	f8c1 04d0 	str.w	r0, [r1, #1232]	; 0x4d0
 80049a2:	f8c1 04d8 	str.w	r0, [r1, #1240]	; 0x4d8
 80049a6:	f8c1 04dc 	str.w	r0, [r1, #1244]	; 0x4dc
 80049aa:	f002 fceb 	bl	8007384 <_ZN4core3ptr13read_volatile17h384c2f472b76a07aE>
 80049ae:	992a      	ldr	r1, [sp, #168]	; 0xa8
 80049b0:	f8c1 04d4 	str.w	r0, [r1, #1236]	; 0x4d4
 80049b4:	f8c1 04c8 	str.w	r0, [r1, #1224]	; 0x4c8
 80049b8:	f8c1 04cc 	str.w	r0, [r1, #1228]	; 0x4cc
 80049bc:	f10d 0e14 	add.w	lr, sp, #20
 80049c0:	f50e 50a7 	add.w	r0, lr, #5344	; 0x14e0
 80049c4:	f8c1 04c0 	str.w	r0, [r1, #1216]	; 0x4c0
 80049c8:	f10d 0e18 	add.w	lr, sp, #24
 80049cc:	f50e 50a7 	add.w	r0, lr, #5344	; 0x14e0
 80049d0:	f8c1 04c4 	str.w	r0, [r1, #1220]	; 0x4c4
 80049d4:	f8d1 04c0 	ldr.w	r0, [r1, #1216]	; 0x4c0
 80049d8:	f8d1 14c4 	ldr.w	r1, [r1, #1220]	; 0x4c4
 80049dc:	f7fc ff3f 	bl	800185e <_ZN4mem310checkpoint14initialization28_$u7b$$u7b$closure$u7d$$u7d$17hfa6ad445c6718325E>
 80049e0:	9a2a      	ldr	r2, [sp, #168]	; 0xa8
 80049e2:	4601      	mov	r1, r0
 80049e4:	9819      	ldr	r0, [sp, #100]	; 0x64
 80049e6:	6809      	ldr	r1, [r1, #0]
 80049e8:	f8c2 04e0 	str.w	r0, [r2, #1248]	; 0x4e0
 80049ec:	f8c2 14e4 	str.w	r1, [r2, #1252]	; 0x4e4
 80049f0:	f8c2 04e8 	str.w	r0, [r2, #1256]	; 0x4e8
 80049f4:	f002 fcfd 	bl	80073f2 <_ZN4core3ptr14write_volatile17h46a673fe162f1e59E>
 80049f8:	981c      	ldr	r0, [sp, #112]	; 0x70
 80049fa:	992a      	ldr	r1, [sp, #168]	; 0xa8
 80049fc:	9072      	str	r0, [sp, #456]	; 0x1c8
 80049fe:	f640 4008 	movw	r0, #3080	; 0xc08
 8004a02:	f6c4 0000 	movt	r0, #18432	; 0x4800
 8004a06:	901d      	str	r0, [sp, #116]	; 0x74
 8004a08:	f8c1 0344 	str.w	r0, [r1, #836]	; 0x344
 8004a0c:	f8c1 034c 	str.w	r0, [r1, #844]	; 0x34c
 8004a10:	f8c1 0350 	str.w	r0, [r1, #848]	; 0x350
 8004a14:	f002 fcb6 	bl	8007384 <_ZN4core3ptr13read_volatile17h384c2f472b76a07aE>
 8004a18:	992a      	ldr	r1, [sp, #168]	; 0xa8
 8004a1a:	f8c1 0348 	str.w	r0, [r1, #840]	; 0x348
 8004a1e:	f8c1 033c 	str.w	r0, [r1, #828]	; 0x33c
 8004a22:	f8c1 0340 	str.w	r0, [r1, #832]	; 0x340
 8004a26:	f10d 0e08 	add.w	lr, sp, #8
 8004a2a:	f50e 509b 	add.w	r0, lr, #4960	; 0x1360
 8004a2e:	f8c1 0334 	str.w	r0, [r1, #820]	; 0x334
 8004a32:	f10d 0e0c 	add.w	lr, sp, #12
 8004a36:	f50e 509b 	add.w	r0, lr, #4960	; 0x1360
 8004a3a:	f8c1 0338 	str.w	r0, [r1, #824]	; 0x338
 8004a3e:	f8d1 0334 	ldr.w	r0, [r1, #820]	; 0x334
 8004a42:	f8d1 1338 	ldr.w	r1, [r1, #824]	; 0x338
 8004a46:	f7fc ff33 	bl	80018b0 <_ZN4mem310checkpoint14initialization28_$u7b$$u7b$closure$u7d$$u7d$17hc126dfa96afa8153E>
 8004a4a:	9a2a      	ldr	r2, [sp, #168]	; 0xa8
 8004a4c:	4601      	mov	r1, r0
 8004a4e:	981d      	ldr	r0, [sp, #116]	; 0x74
 8004a50:	6809      	ldr	r1, [r1, #0]
 8004a52:	f8c2 0354 	str.w	r0, [r2, #852]	; 0x354
 8004a56:	f8c2 1358 	str.w	r1, [r2, #856]	; 0x358
 8004a5a:	f8c2 035c 	str.w	r0, [r2, #860]	; 0x35c
 8004a5e:	f002 fcc8 	bl	80073f2 <_ZN4core3ptr14write_volatile17h46a673fe162f1e59E>
 8004a62:	981a      	ldr	r0, [sp, #104]	; 0x68
 8004a64:	9a1c      	ldr	r2, [sp, #112]	; 0x70
 8004a66:	992a      	ldr	r1, [sp, #168]	; 0xa8
 8004a68:	9271      	str	r2, [sp, #452]	; 0x1c4
 8004a6a:	f8c1 0210 	str.w	r0, [r1, #528]	; 0x210
 8004a6e:	f8c1 0218 	str.w	r0, [r1, #536]	; 0x218
 8004a72:	f8c1 021c 	str.w	r0, [r1, #540]	; 0x21c
 8004a76:	f002 fc85 	bl	8007384 <_ZN4core3ptr13read_volatile17h384c2f472b76a07aE>
 8004a7a:	992a      	ldr	r1, [sp, #168]	; 0xa8
 8004a7c:	f8c1 0214 	str.w	r0, [r1, #532]	; 0x214
 8004a80:	f8c1 0208 	str.w	r0, [r1, #520]	; 0x208
 8004a84:	f8c1 020c 	str.w	r0, [r1, #524]	; 0x20c
 8004a88:	f10d 0e14 	add.w	lr, sp, #20
 8004a8c:	f50e 5091 	add.w	r0, lr, #4640	; 0x1220
 8004a90:	f8c1 0200 	str.w	r0, [r1, #512]	; 0x200
 8004a94:	f10d 0e18 	add.w	lr, sp, #24
 8004a98:	f50e 5091 	add.w	r0, lr, #4640	; 0x1220
 8004a9c:	f8c1 0204 	str.w	r0, [r1, #516]	; 0x204
 8004aa0:	f8d1 0200 	ldr.w	r0, [r1, #512]	; 0x200
 8004aa4:	f8d1 1204 	ldr.w	r1, [r1, #516]	; 0x204
 8004aa8:	f7fc ff2b 	bl	8001902 <_ZN4mem310checkpoint14initialization28_$u7b$$u7b$closure$u7d$$u7d$17h9aec1ceafdf26df6E>
 8004aac:	9a2a      	ldr	r2, [sp, #168]	; 0xa8
 8004aae:	4601      	mov	r1, r0
 8004ab0:	981a      	ldr	r0, [sp, #104]	; 0x68
 8004ab2:	6809      	ldr	r1, [r1, #0]
 8004ab4:	f8c2 0220 	str.w	r0, [r2, #544]	; 0x220
 8004ab8:	f8c2 1224 	str.w	r1, [r2, #548]	; 0x224
 8004abc:	f8c2 0228 	str.w	r0, [r2, #552]	; 0x228
 8004ac0:	f002 fc97 	bl	80073f2 <_ZN4core3ptr14write_volatile17h46a673fe162f1e59E>
 8004ac4:	9819      	ldr	r0, [sp, #100]	; 0x64
 8004ac6:	991c      	ldr	r1, [sp, #112]	; 0x70
 8004ac8:	9170      	str	r1, [sp, #448]	; 0x1c0
 8004aca:	f8cd 0b04 	str.w	r0, [sp, #2820]	; 0xb04
 8004ace:	f8cd 0b0c 	str.w	r0, [sp, #2828]	; 0xb0c
 8004ad2:	f8cd 0b10 	str.w	r0, [sp, #2832]	; 0xb10
 8004ad6:	f002 fc55 	bl	8007384 <_ZN4core3ptr13read_volatile17h384c2f472b76a07aE>
 8004ada:	f8cd 0b08 	str.w	r0, [sp, #2824]	; 0xb08
 8004ade:	f8cd 0afc 	str.w	r0, [sp, #2812]	; 0xafc
 8004ae2:	f8cd 0b00 	str.w	r0, [sp, #2816]	; 0xb00
 8004ae6:	f60d 20fc 	addw	r0, sp, #2812	; 0xafc
 8004aea:	f8cd 0af4 	str.w	r0, [sp, #2804]	; 0xaf4
 8004aee:	f50d 6030 	add.w	r0, sp, #2816	; 0xb00
 8004af2:	f8cd 0af8 	str.w	r0, [sp, #2808]	; 0xaf8
 8004af6:	f8dd 0af4 	ldr.w	r0, [sp, #2804]	; 0xaf4
 8004afa:	f8dd 1af8 	ldr.w	r1, [sp, #2808]	; 0xaf8
 8004afe:	f7fc ff27 	bl	8001950 <_ZN4mem310checkpoint14initialization28_$u7b$$u7b$closure$u7d$$u7d$17h9c9bcb11e17cc5f0E>
 8004b02:	4601      	mov	r1, r0
 8004b04:	9819      	ldr	r0, [sp, #100]	; 0x64
 8004b06:	6809      	ldr	r1, [r1, #0]
 8004b08:	f8cd 0b14 	str.w	r0, [sp, #2836]	; 0xb14
 8004b0c:	f8cd 1b18 	str.w	r1, [sp, #2840]	; 0xb18
 8004b10:	f8cd 0b1c 	str.w	r0, [sp, #2844]	; 0xb1c
 8004b14:	f002 fc6d 	bl	80073f2 <_ZN4core3ptr14write_volatile17h46a673fe162f1e59E>
 8004b18:	9a1c      	ldr	r2, [sp, #112]	; 0x70
 8004b1a:	981d      	ldr	r0, [sp, #116]	; 0x74
 8004b1c:	992a      	ldr	r1, [sp, #168]	; 0xa8
 8004b1e:	926f      	str	r2, [sp, #444]	; 0x1bc
 8004b20:	f8c1 0268 	str.w	r0, [r1, #616]	; 0x268
 8004b24:	f8c1 0270 	str.w	r0, [r1, #624]	; 0x270
 8004b28:	f8c1 0274 	str.w	r0, [r1, #628]	; 0x274
 8004b2c:	f002 fc2a 	bl	8007384 <_ZN4core3ptr13read_volatile17h384c2f472b76a07aE>
 8004b30:	992a      	ldr	r1, [sp, #168]	; 0xa8
 8004b32:	f8c1 026c 	str.w	r0, [r1, #620]	; 0x26c
 8004b36:	f8c1 0260 	str.w	r0, [r1, #608]	; 0x260
 8004b3a:	f8c1 0264 	str.w	r0, [r1, #612]	; 0x264
 8004b3e:	f10d 0e0c 	add.w	lr, sp, #12
 8004b42:	f50e 5094 	add.w	r0, lr, #4736	; 0x1280
 8004b46:	f8c1 0258 	str.w	r0, [r1, #600]	; 0x258
 8004b4a:	f10d 0e10 	add.w	lr, sp, #16
 8004b4e:	f50e 5094 	add.w	r0, lr, #4736	; 0x1280
 8004b52:	f8c1 025c 	str.w	r0, [r1, #604]	; 0x25c
 8004b56:	f8d1 0258 	ldr.w	r0, [r1, #600]	; 0x258
 8004b5a:	f8d1 125c 	ldr.w	r1, [r1, #604]	; 0x25c
 8004b5e:	f7fc ff1e 	bl	800199e <_ZN4mem310checkpoint14initialization28_$u7b$$u7b$closure$u7d$$u7d$17h50e62298264fcd69E>
 8004b62:	9a2a      	ldr	r2, [sp, #168]	; 0xa8
 8004b64:	4601      	mov	r1, r0
 8004b66:	981d      	ldr	r0, [sp, #116]	; 0x74
 8004b68:	6809      	ldr	r1, [r1, #0]
 8004b6a:	f8c2 0278 	str.w	r0, [r2, #632]	; 0x278
 8004b6e:	f8c2 127c 	str.w	r1, [r2, #636]	; 0x27c
 8004b72:	f8c2 0280 	str.w	r0, [r2, #640]	; 0x280
 8004b76:	f002 fc3c 	bl	80073f2 <_ZN4core3ptr14write_volatile17h46a673fe162f1e59E>
 8004b7a:	981a      	ldr	r0, [sp, #104]	; 0x68
 8004b7c:	991c      	ldr	r1, [sp, #112]	; 0x70
 8004b7e:	916e      	str	r1, [sp, #440]	; 0x1b8
 8004b80:	f8cd 0d98 	str.w	r0, [sp, #3480]	; 0xd98
 8004b84:	f8cd 0da0 	str.w	r0, [sp, #3488]	; 0xda0
 8004b88:	f8cd 0da4 	str.w	r0, [sp, #3492]	; 0xda4
 8004b8c:	f002 fbfa 	bl	8007384 <_ZN4core3ptr13read_volatile17h384c2f472b76a07aE>
 8004b90:	f8cd 0d9c 	str.w	r0, [sp, #3484]	; 0xd9c
 8004b94:	f8cd 0d90 	str.w	r0, [sp, #3472]	; 0xd90
 8004b98:	f8cd 0d94 	str.w	r0, [sp, #3476]	; 0xd94
 8004b9c:	f50d 6059 	add.w	r0, sp, #3472	; 0xd90
 8004ba0:	f8cd 0d88 	str.w	r0, [sp, #3464]	; 0xd88
 8004ba4:	f60d 5094 	addw	r0, sp, #3476	; 0xd94
 8004ba8:	f8cd 0d8c 	str.w	r0, [sp, #3468]	; 0xd8c
 8004bac:	f8dd 0d88 	ldr.w	r0, [sp, #3464]	; 0xd88
 8004bb0:	f8dd 1d8c 	ldr.w	r1, [sp, #3468]	; 0xd8c
 8004bb4:	f7fc ff1a 	bl	80019ec <_ZN4mem310checkpoint14initialization28_$u7b$$u7b$closure$u7d$$u7d$17h1da4cc072323c0c4E>
 8004bb8:	4601      	mov	r1, r0
 8004bba:	981a      	ldr	r0, [sp, #104]	; 0x68
 8004bbc:	6809      	ldr	r1, [r1, #0]
 8004bbe:	f8cd 0da8 	str.w	r0, [sp, #3496]	; 0xda8
 8004bc2:	f8cd 1dac 	str.w	r1, [sp, #3500]	; 0xdac
 8004bc6:	f8cd 0db0 	str.w	r0, [sp, #3504]	; 0xdb0
 8004bca:	f002 fc12 	bl	80073f2 <_ZN4core3ptr14write_volatile17h46a673fe162f1e59E>
 8004bce:	981c      	ldr	r0, [sp, #112]	; 0x70
 8004bd0:	906d      	str	r0, [sp, #436]	; 0x1b4
 8004bd2:	f640 4020 	movw	r0, #3104	; 0xc20
 8004bd6:	f6c4 0000 	movt	r0, #18432	; 0x4800
 8004bda:	901b      	str	r0, [sp, #108]	; 0x6c
 8004bdc:	f847 0c78 	str.w	r0, [r7, #-120]
 8004be0:	f847 0c70 	str.w	r0, [r7, #-112]
 8004be4:	f847 0c6c 	str.w	r0, [r7, #-108]
 8004be8:	f002 fbcc 	bl	8007384 <_ZN4core3ptr13read_volatile17h384c2f472b76a07aE>
 8004bec:	f847 0c74 	str.w	r0, [r7, #-116]
 8004bf0:	f847 0c80 	str.w	r0, [r7, #-128]
 8004bf4:	f847 0c7c 	str.w	r0, [r7, #-124]
 8004bf8:	f1a7 0080 	sub.w	r0, r7, #128	; 0x80
 8004bfc:	f847 0c88 	str.w	r0, [r7, #-136]
 8004c00:	f1a7 007c 	sub.w	r0, r7, #124	; 0x7c
 8004c04:	f847 0c84 	str.w	r0, [r7, #-132]
 8004c08:	f857 0c88 	ldr.w	r0, [r7, #-136]
 8004c0c:	f857 1c84 	ldr.w	r1, [r7, #-132]
 8004c10:	f7fc ff11 	bl	8001a36 <_ZN4mem310checkpoint14initialization28_$u7b$$u7b$closure$u7d$$u7d$17h9c75536e229de59cE>
 8004c14:	4601      	mov	r1, r0
 8004c16:	981b      	ldr	r0, [sp, #108]	; 0x6c
 8004c18:	6809      	ldr	r1, [r1, #0]
 8004c1a:	f847 0c68 	str.w	r0, [r7, #-104]
 8004c1e:	f847 1c64 	str.w	r1, [r7, #-100]
 8004c22:	f847 0c60 	str.w	r0, [r7, #-96]
 8004c26:	f002 fbe4 	bl	80073f2 <_ZN4core3ptr14write_volatile17h46a673fe162f1e59E>
 8004c2a:	9a1c      	ldr	r2, [sp, #112]	; 0x70
 8004c2c:	981d      	ldr	r0, [sp, #116]	; 0x74
 8004c2e:	992a      	ldr	r1, [sp, #168]	; 0xa8
 8004c30:	926c      	str	r2, [sp, #432]	; 0x1b0
 8004c32:	f8c1 0790 	str.w	r0, [r1, #1936]	; 0x790
 8004c36:	f8c1 0798 	str.w	r0, [r1, #1944]	; 0x798
 8004c3a:	f8c1 079c 	str.w	r0, [r1, #1948]	; 0x79c
 8004c3e:	f002 fba1 	bl	8007384 <_ZN4core3ptr13read_volatile17h384c2f472b76a07aE>
 8004c42:	992a      	ldr	r1, [sp, #168]	; 0xa8
 8004c44:	f8c1 0794 	str.w	r0, [r1, #1940]	; 0x794
 8004c48:	f8c1 0788 	str.w	r0, [r1, #1928]	; 0x788
 8004c4c:	f8c1 078c 	str.w	r0, [r1, #1932]	; 0x78c
 8004c50:	f10d 0e14 	add.w	lr, sp, #20
 8004c54:	f50e 50bd 	add.w	r0, lr, #6048	; 0x17a0
 8004c58:	f8c1 0780 	str.w	r0, [r1, #1920]	; 0x780
 8004c5c:	f10d 0e18 	add.w	lr, sp, #24
 8004c60:	f50e 50bd 	add.w	r0, lr, #6048	; 0x17a0
 8004c64:	f8c1 0784 	str.w	r0, [r1, #1924]	; 0x784
 8004c68:	f8d1 0780 	ldr.w	r0, [r1, #1920]	; 0x780
 8004c6c:	f8d1 1784 	ldr.w	r1, [r1, #1924]	; 0x784
 8004c70:	f7fc ff06 	bl	8001a80 <_ZN4mem310checkpoint14initialization28_$u7b$$u7b$closure$u7d$$u7d$17h03fb92e39688d90dE>
 8004c74:	9a2a      	ldr	r2, [sp, #168]	; 0xa8
 8004c76:	4601      	mov	r1, r0
 8004c78:	981d      	ldr	r0, [sp, #116]	; 0x74
 8004c7a:	6809      	ldr	r1, [r1, #0]
 8004c7c:	f8c2 07a0 	str.w	r0, [r2, #1952]	; 0x7a0
 8004c80:	f8c2 17a4 	str.w	r1, [r2, #1956]	; 0x7a4
 8004c84:	f8c2 07a8 	str.w	r0, [r2, #1960]	; 0x7a8
 8004c88:	f002 fbb3 	bl	80073f2 <_ZN4core3ptr14write_volatile17h46a673fe162f1e59E>
 8004c8c:	981a      	ldr	r0, [sp, #104]	; 0x68
 8004c8e:	991c      	ldr	r1, [sp, #112]	; 0x70
 8004c90:	916b      	str	r1, [sp, #428]	; 0x1ac
 8004c92:	f8cd 09a4 	str.w	r0, [sp, #2468]	; 0x9a4
 8004c96:	f8cd 09ac 	str.w	r0, [sp, #2476]	; 0x9ac
 8004c9a:	f8cd 09b0 	str.w	r0, [sp, #2480]	; 0x9b0
 8004c9e:	f002 fb71 	bl	8007384 <_ZN4core3ptr13read_volatile17h384c2f472b76a07aE>
 8004ca2:	f8cd 09a8 	str.w	r0, [sp, #2472]	; 0x9a8
 8004ca6:	f8cd 099c 	str.w	r0, [sp, #2460]	; 0x99c
 8004caa:	f8cd 09a0 	str.w	r0, [sp, #2464]	; 0x9a0
 8004cae:	f60d 109c 	addw	r0, sp, #2460	; 0x99c
 8004cb2:	f8cd 0994 	str.w	r0, [sp, #2452]	; 0x994
 8004cb6:	f50d 601a 	add.w	r0, sp, #2464	; 0x9a0
 8004cba:	f8cd 0998 	str.w	r0, [sp, #2456]	; 0x998
 8004cbe:	f8dd 0994 	ldr.w	r0, [sp, #2452]	; 0x994
 8004cc2:	f8dd 1998 	ldr.w	r1, [sp, #2456]	; 0x998
 8004cc6:	f7fc ff00 	bl	8001aca <_ZN4mem310checkpoint14initialization28_$u7b$$u7b$closure$u7d$$u7d$17h66ecaab3ec13f5a3E>
 8004cca:	4601      	mov	r1, r0
 8004ccc:	981a      	ldr	r0, [sp, #104]	; 0x68
 8004cce:	6809      	ldr	r1, [r1, #0]
 8004cd0:	f8cd 09b4 	str.w	r0, [sp, #2484]	; 0x9b4
 8004cd4:	f8cd 19b8 	str.w	r1, [sp, #2488]	; 0x9b8
 8004cd8:	f8cd 09bc 	str.w	r0, [sp, #2492]	; 0x9bc
 8004cdc:	f002 fb89 	bl	80073f2 <_ZN4core3ptr14write_volatile17h46a673fe162f1e59E>
 8004ce0:	981b      	ldr	r0, [sp, #108]	; 0x6c
 8004ce2:	991c      	ldr	r1, [sp, #112]	; 0x70
 8004ce4:	916a      	str	r1, [sp, #424]	; 0x1a8
 8004ce6:	f8cd 094c 	str.w	r0, [sp, #2380]	; 0x94c
 8004cea:	f8cd 0954 	str.w	r0, [sp, #2388]	; 0x954
 8004cee:	f8cd 0958 	str.w	r0, [sp, #2392]	; 0x958
 8004cf2:	f002 fb47 	bl	8007384 <_ZN4core3ptr13read_volatile17h384c2f472b76a07aE>
 8004cf6:	f8cd 0950 	str.w	r0, [sp, #2384]	; 0x950
 8004cfa:	f8cd 0944 	str.w	r0, [sp, #2372]	; 0x944
 8004cfe:	f8cd 0948 	str.w	r0, [sp, #2376]	; 0x948
 8004d02:	f60d 1044 	addw	r0, sp, #2372	; 0x944
 8004d06:	f8cd 093c 	str.w	r0, [sp, #2364]	; 0x93c
 8004d0a:	f60d 1048 	addw	r0, sp, #2376	; 0x948
 8004d0e:	f8cd 0940 	str.w	r0, [sp, #2368]	; 0x940
 8004d12:	f8dd 093c 	ldr.w	r0, [sp, #2364]	; 0x93c
 8004d16:	f8dd 1940 	ldr.w	r1, [sp, #2368]	; 0x940
 8004d1a:	f7fc feff 	bl	8001b1c <_ZN4mem310checkpoint14initialization28_$u7b$$u7b$closure$u7d$$u7d$17he0ed33d9bc9d95a2E>
 8004d1e:	4601      	mov	r1, r0
 8004d20:	981b      	ldr	r0, [sp, #108]	; 0x6c
 8004d22:	6809      	ldr	r1, [r1, #0]
 8004d24:	f8cd 095c 	str.w	r0, [sp, #2396]	; 0x95c
 8004d28:	f8cd 1960 	str.w	r1, [sp, #2400]	; 0x960
 8004d2c:	f8cd 0964 	str.w	r0, [sp, #2404]	; 0x964
 8004d30:	f002 fb5f 	bl	80073f2 <_ZN4core3ptr14write_volatile17h46a673fe162f1e59E>
 8004d34:	9a1c      	ldr	r2, [sp, #112]	; 0x70
 8004d36:	981d      	ldr	r0, [sp, #116]	; 0x74
 8004d38:	992a      	ldr	r1, [sp, #168]	; 0xa8
 8004d3a:	9269      	str	r2, [sp, #420]	; 0x1a4
 8004d3c:	f8c1 08c4 	str.w	r0, [r1, #2244]	; 0x8c4
 8004d40:	f8c1 08cc 	str.w	r0, [r1, #2252]	; 0x8cc
 8004d44:	f8c1 08d0 	str.w	r0, [r1, #2256]	; 0x8d0
 8004d48:	f002 fb1c 	bl	8007384 <_ZN4core3ptr13read_volatile17h384c2f472b76a07aE>
 8004d4c:	992a      	ldr	r1, [sp, #168]	; 0xa8
 8004d4e:	f8c1 08c8 	str.w	r0, [r1, #2248]	; 0x8c8
 8004d52:	f8c1 08bc 	str.w	r0, [r1, #2236]	; 0x8bc
 8004d56:	f8c1 08c0 	str.w	r0, [r1, #2240]	; 0x8c0
 8004d5a:	f1a7 00d8 	sub.w	r0, r7, #216	; 0xd8
 8004d5e:	f8c1 08b4 	str.w	r0, [r1, #2228]	; 0x8b4
 8004d62:	f1a7 00d4 	sub.w	r0, r7, #212	; 0xd4
 8004d66:	f8c1 08b8 	str.w	r0, [r1, #2232]	; 0x8b8
 8004d6a:	f8d1 08b4 	ldr.w	r0, [r1, #2228]	; 0x8b4
 8004d6e:	f8d1 18b8 	ldr.w	r1, [r1, #2232]	; 0x8b8
 8004d72:	f7fc fefc 	bl	8001b6e <_ZN4mem310checkpoint14initialization28_$u7b$$u7b$closure$u7d$$u7d$17hdbc68c0e3c43a813E>
 8004d76:	9a2a      	ldr	r2, [sp, #168]	; 0xa8
 8004d78:	4601      	mov	r1, r0
 8004d7a:	981d      	ldr	r0, [sp, #116]	; 0x74
 8004d7c:	6809      	ldr	r1, [r1, #0]
 8004d7e:	f8c2 08d4 	str.w	r0, [r2, #2260]	; 0x8d4
 8004d82:	f8c2 18d8 	str.w	r1, [r2, #2264]	; 0x8d8
 8004d86:	f8c2 08dc 	str.w	r0, [r2, #2268]	; 0x8dc
 8004d8a:	f002 fb32 	bl	80073f2 <_ZN4core3ptr14write_volatile17h46a673fe162f1e59E>
 8004d8e:	992a      	ldr	r1, [sp, #168]	; 0xa8
 8004d90:	f10d 00db 	add.w	r0, sp, #219	; 0xdb
 8004d94:	9017      	str	r0, [sp, #92]	; 0x5c
 8004d96:	908f      	str	r0, [sp, #572]	; 0x23c
 8004d98:	f241 0000 	movw	r0, #4096	; 0x1000
 8004d9c:	f6c4 0000 	movt	r0, #18432	; 0x4800
 8004da0:	9015      	str	r0, [sp, #84]	; 0x54
 8004da2:	f8c1 03c8 	str.w	r0, [r1, #968]	; 0x3c8
 8004da6:	f8c1 03d0 	str.w	r0, [r1, #976]	; 0x3d0
 8004daa:	f8c1 03d4 	str.w	r0, [r1, #980]	; 0x3d4
 8004dae:	f002 fae9 	bl	8007384 <_ZN4core3ptr13read_volatile17h384c2f472b76a07aE>
 8004db2:	992a      	ldr	r1, [sp, #168]	; 0xa8
 8004db4:	f8c1 03cc 	str.w	r0, [r1, #972]	; 0x3cc
 8004db8:	f8c1 03c0 	str.w	r0, [r1, #960]	; 0x3c0
 8004dbc:	f8c1 03c4 	str.w	r0, [r1, #964]	; 0x3c4
 8004dc0:	f10d 0e0c 	add.w	lr, sp, #12
 8004dc4:	f50e 509f 	add.w	r0, lr, #5088	; 0x13e0
 8004dc8:	f8c1 03b8 	str.w	r0, [r1, #952]	; 0x3b8
 8004dcc:	f10d 0e10 	add.w	lr, sp, #16
 8004dd0:	f50e 509f 	add.w	r0, lr, #5088	; 0x13e0
 8004dd4:	f8c1 03bc 	str.w	r0, [r1, #956]	; 0x3bc
 8004dd8:	f8d1 03b8 	ldr.w	r0, [r1, #952]	; 0x3b8
 8004ddc:	f8d1 13bc 	ldr.w	r1, [r1, #956]	; 0x3bc
 8004de0:	f7fc feee 	bl	8001bc0 <_ZN4mem310checkpoint14initialization28_$u7b$$u7b$closure$u7d$$u7d$17hd6e80b4702543309E>
 8004de4:	9a2a      	ldr	r2, [sp, #168]	; 0xa8
 8004de6:	4601      	mov	r1, r0
 8004de8:	9815      	ldr	r0, [sp, #84]	; 0x54
 8004dea:	6809      	ldr	r1, [r1, #0]
 8004dec:	f8c2 03d8 	str.w	r0, [r2, #984]	; 0x3d8
 8004df0:	f8c2 13dc 	str.w	r1, [r2, #988]	; 0x3dc
 8004df4:	f8c2 03e0 	str.w	r0, [r2, #992]	; 0x3e0
 8004df8:	f002 fafb 	bl	80073f2 <_ZN4core3ptr14write_volatile17h46a673fe162f1e59E>
 8004dfc:	9817      	ldr	r0, [sp, #92]	; 0x5c
 8004dfe:	908e      	str	r0, [sp, #568]	; 0x238
 8004e00:	f241 0020 	movw	r0, #4128	; 0x1020
 8004e04:	f6c4 0000 	movt	r0, #18432	; 0x4800
 8004e08:	9014      	str	r0, [sp, #80]	; 0x50
 8004e0a:	f8cd 047c 	str.w	r0, [sp, #1148]	; 0x47c
 8004e0e:	f8cd 0484 	str.w	r0, [sp, #1156]	; 0x484
 8004e12:	f8cd 0488 	str.w	r0, [sp, #1160]	; 0x488
 8004e16:	f002 fab5 	bl	8007384 <_ZN4core3ptr13read_volatile17h384c2f472b76a07aE>
 8004e1a:	f8cd 0480 	str.w	r0, [sp, #1152]	; 0x480
 8004e1e:	f8cd 0474 	str.w	r0, [sp, #1140]	; 0x474
 8004e22:	f8cd 0478 	str.w	r0, [sp, #1144]	; 0x478
 8004e26:	f20d 4074 	addw	r0, sp, #1140	; 0x474
 8004e2a:	f8cd 046c 	str.w	r0, [sp, #1132]	; 0x46c
 8004e2e:	f50d 608f 	add.w	r0, sp, #1144	; 0x478
 8004e32:	f8cd 0470 	str.w	r0, [sp, #1136]	; 0x470
 8004e36:	f8dd 046c 	ldr.w	r0, [sp, #1132]	; 0x46c
 8004e3a:	f8dd 1470 	ldr.w	r1, [sp, #1136]	; 0x470
 8004e3e:	f7fc fee8 	bl	8001c12 <_ZN4mem310checkpoint14initialization28_$u7b$$u7b$closure$u7d$$u7d$17hce6637cceaedbc31E>
 8004e42:	4601      	mov	r1, r0
 8004e44:	9814      	ldr	r0, [sp, #80]	; 0x50
 8004e46:	6809      	ldr	r1, [r1, #0]
 8004e48:	f8cd 048c 	str.w	r0, [sp, #1164]	; 0x48c
 8004e4c:	f8cd 1490 	str.w	r1, [sp, #1168]	; 0x490
 8004e50:	f8cd 0494 	str.w	r0, [sp, #1172]	; 0x494
 8004e54:	f002 facd 	bl	80073f2 <_ZN4core3ptr14write_volatile17h46a673fe162f1e59E>
 8004e58:	9817      	ldr	r0, [sp, #92]	; 0x5c
 8004e5a:	908d      	str	r0, [sp, #564]	; 0x234
 8004e5c:	f241 0008 	movw	r0, #4104	; 0x1008
 8004e60:	f6c4 0000 	movt	r0, #18432	; 0x4800
 8004e64:	9018      	str	r0, [sp, #96]	; 0x60
 8004e66:	f8cd 0c90 	str.w	r0, [sp, #3216]	; 0xc90
 8004e6a:	f8cd 0c98 	str.w	r0, [sp, #3224]	; 0xc98
 8004e6e:	f8cd 0c9c 	str.w	r0, [sp, #3228]	; 0xc9c
 8004e72:	f002 fa87 	bl	8007384 <_ZN4core3ptr13read_volatile17h384c2f472b76a07aE>
 8004e76:	f8cd 0c94 	str.w	r0, [sp, #3220]	; 0xc94
 8004e7a:	f8cd 0c88 	str.w	r0, [sp, #3208]	; 0xc88
 8004e7e:	f8cd 0c8c 	str.w	r0, [sp, #3212]	; 0xc8c
 8004e82:	f60d 4088 	addw	r0, sp, #3208	; 0xc88
 8004e86:	f8cd 0c80 	str.w	r0, [sp, #3200]	; 0xc80
 8004e8a:	f60d 408c 	addw	r0, sp, #3212	; 0xc8c
 8004e8e:	f8cd 0c84 	str.w	r0, [sp, #3204]	; 0xc84
 8004e92:	f8dd 0c80 	ldr.w	r0, [sp, #3200]	; 0xc80
 8004e96:	f8dd 1c84 	ldr.w	r1, [sp, #3204]	; 0xc84
 8004e9a:	f7fc fee1 	bl	8001c60 <_ZN4mem310checkpoint14initialization28_$u7b$$u7b$closure$u7d$$u7d$17h300f96ffe67667c6E>
 8004e9e:	4601      	mov	r1, r0
 8004ea0:	9818      	ldr	r0, [sp, #96]	; 0x60
 8004ea2:	6809      	ldr	r1, [r1, #0]
 8004ea4:	f8cd 0ca0 	str.w	r0, [sp, #3232]	; 0xca0
 8004ea8:	f8cd 1ca4 	str.w	r1, [sp, #3236]	; 0xca4
 8004eac:	f8cd 0ca8 	str.w	r0, [sp, #3240]	; 0xca8
 8004eb0:	f002 fa9f 	bl	80073f2 <_ZN4core3ptr14write_volatile17h46a673fe162f1e59E>
 8004eb4:	9815      	ldr	r0, [sp, #84]	; 0x54
 8004eb6:	9a17      	ldr	r2, [sp, #92]	; 0x5c
 8004eb8:	992a      	ldr	r1, [sp, #168]	; 0xa8
 8004eba:	928c      	str	r2, [sp, #560]	; 0x230
 8004ebc:	f8c1 01e4 	str.w	r0, [r1, #484]	; 0x1e4
 8004ec0:	f8c1 01ec 	str.w	r0, [r1, #492]	; 0x1ec
 8004ec4:	f8c1 01f0 	str.w	r0, [r1, #496]	; 0x1f0
 8004ec8:	f002 fa5c 	bl	8007384 <_ZN4core3ptr13read_volatile17h384c2f472b76a07aE>
 8004ecc:	992a      	ldr	r1, [sp, #168]	; 0xa8
 8004ece:	f8c1 01e8 	str.w	r0, [r1, #488]	; 0x1e8
 8004ed2:	f8c1 01dc 	str.w	r0, [r1, #476]	; 0x1dc
 8004ed6:	f8c1 01e0 	str.w	r0, [r1, #480]	; 0x1e0
 8004eda:	f10d 0e08 	add.w	lr, sp, #8
 8004ede:	f50e 5090 	add.w	r0, lr, #4608	; 0x1200
 8004ee2:	f8c1 01d4 	str.w	r0, [r1, #468]	; 0x1d4
 8004ee6:	f10d 0e0c 	add.w	lr, sp, #12
 8004eea:	f50e 5090 	add.w	r0, lr, #4608	; 0x1200
 8004eee:	f8c1 01d8 	str.w	r0, [r1, #472]	; 0x1d8
 8004ef2:	f8d1 01d4 	ldr.w	r0, [r1, #468]	; 0x1d4
 8004ef6:	f8d1 11d8 	ldr.w	r1, [r1, #472]	; 0x1d8
 8004efa:	f7fc feda 	bl	8001cb2 <_ZN4mem310checkpoint14initialization28_$u7b$$u7b$closure$u7d$$u7d$17hd973813acab7d629E>
 8004efe:	9a2a      	ldr	r2, [sp, #168]	; 0xa8
 8004f00:	4601      	mov	r1, r0
 8004f02:	9815      	ldr	r0, [sp, #84]	; 0x54
 8004f04:	6809      	ldr	r1, [r1, #0]
 8004f06:	f8c2 01f4 	str.w	r0, [r2, #500]	; 0x1f4
 8004f0a:	f8c2 11f8 	str.w	r1, [r2, #504]	; 0x1f8
 8004f0e:	f8c2 01fc 	str.w	r0, [r2, #508]	; 0x1fc
 8004f12:	f002 fa6e 	bl	80073f2 <_ZN4core3ptr14write_volatile17h46a673fe162f1e59E>
 8004f16:	9817      	ldr	r0, [sp, #92]	; 0x5c
 8004f18:	908b      	str	r0, [sp, #556]	; 0x22c
 8004f1a:	f241 0024 	movw	r0, #4132	; 0x1024
 8004f1e:	f6c4 0000 	movt	r0, #18432	; 0x4800
 8004f22:	9016      	str	r0, [sp, #88]	; 0x58
 8004f24:	f8cd 0f24 	str.w	r0, [sp, #3876]	; 0xf24
 8004f28:	f8cd 0f2c 	str.w	r0, [sp, #3884]	; 0xf2c
 8004f2c:	f8cd 0f30 	str.w	r0, [sp, #3888]	; 0xf30
 8004f30:	f002 fa28 	bl	8007384 <_ZN4core3ptr13read_volatile17h384c2f472b76a07aE>
 8004f34:	f8cd 0f28 	str.w	r0, [sp, #3880]	; 0xf28
 8004f38:	f8cd 0f1c 	str.w	r0, [sp, #3868]	; 0xf1c
 8004f3c:	f8cd 0f20 	str.w	r0, [sp, #3872]	; 0xf20
 8004f40:	f60d 701c 	addw	r0, sp, #3868	; 0xf1c
 8004f44:	f8cd 0f14 	str.w	r0, [sp, #3860]	; 0xf14
 8004f48:	f50d 6072 	add.w	r0, sp, #3872	; 0xf20
 8004f4c:	f8cd 0f18 	str.w	r0, [sp, #3864]	; 0xf18
 8004f50:	f8dd 0f14 	ldr.w	r0, [sp, #3860]	; 0xf14
 8004f54:	f8dd 1f18 	ldr.w	r1, [sp, #3864]	; 0xf18
 8004f58:	f7fc fed4 	bl	8001d04 <_ZN4mem310checkpoint14initialization28_$u7b$$u7b$closure$u7d$$u7d$17h4910b00916d14a50E>
 8004f5c:	4601      	mov	r1, r0
 8004f5e:	9816      	ldr	r0, [sp, #88]	; 0x58
 8004f60:	6809      	ldr	r1, [r1, #0]
 8004f62:	f8cd 0f34 	str.w	r0, [sp, #3892]	; 0xf34
 8004f66:	f8cd 1f38 	str.w	r1, [sp, #3896]	; 0xf38
 8004f6a:	f8cd 0f3c 	str.w	r0, [sp, #3900]	; 0xf3c
 8004f6e:	f002 fa40 	bl	80073f2 <_ZN4core3ptr14write_volatile17h46a673fe162f1e59E>
 8004f72:	9917      	ldr	r1, [sp, #92]	; 0x5c
 8004f74:	9818      	ldr	r0, [sp, #96]	; 0x60
 8004f76:	918a      	str	r1, [sp, #552]	; 0x228
 8004f78:	f8cd 089c 	str.w	r0, [sp, #2204]	; 0x89c
 8004f7c:	f8cd 08a4 	str.w	r0, [sp, #2212]	; 0x8a4
 8004f80:	f8cd 08a8 	str.w	r0, [sp, #2216]	; 0x8a8
 8004f84:	f002 f9fe 	bl	8007384 <_ZN4core3ptr13read_volatile17h384c2f472b76a07aE>
 8004f88:	f8cd 08a0 	str.w	r0, [sp, #2208]	; 0x8a0
 8004f8c:	f8cd 0894 	str.w	r0, [sp, #2196]	; 0x894
 8004f90:	f8cd 0898 	str.w	r0, [sp, #2200]	; 0x898
 8004f94:	f60d 0094 	addw	r0, sp, #2196	; 0x894
 8004f98:	f8cd 088c 	str.w	r0, [sp, #2188]	; 0x88c
 8004f9c:	f60d 0098 	addw	r0, sp, #2200	; 0x898
 8004fa0:	f8cd 0890 	str.w	r0, [sp, #2192]	; 0x890
 8004fa4:	f8dd 088c 	ldr.w	r0, [sp, #2188]	; 0x88c
 8004fa8:	f8dd 1890 	ldr.w	r1, [sp, #2192]	; 0x890
 8004fac:	f7fc fecf 	bl	8001d4e <_ZN4mem310checkpoint14initialization28_$u7b$$u7b$closure$u7d$$u7d$17h9bb6125f4670bb60E>
 8004fb0:	4601      	mov	r1, r0
 8004fb2:	9818      	ldr	r0, [sp, #96]	; 0x60
 8004fb4:	6809      	ldr	r1, [r1, #0]
 8004fb6:	f8cd 08ac 	str.w	r0, [sp, #2220]	; 0x8ac
 8004fba:	f8cd 18b0 	str.w	r1, [sp, #2224]	; 0x8b0
 8004fbe:	f8cd 08b4 	str.w	r0, [sp, #2228]	; 0x8b4
 8004fc2:	f002 fa16 	bl	80073f2 <_ZN4core3ptr14write_volatile17h46a673fe162f1e59E>
 8004fc6:	9815      	ldr	r0, [sp, #84]	; 0x54
 8004fc8:	9917      	ldr	r1, [sp, #92]	; 0x5c
 8004fca:	9189      	str	r1, [sp, #548]	; 0x224
 8004fcc:	f8cd 0aac 	str.w	r0, [sp, #2732]	; 0xaac
 8004fd0:	f8cd 0ab4 	str.w	r0, [sp, #2740]	; 0xab4
 8004fd4:	f8cd 0ab8 	str.w	r0, [sp, #2744]	; 0xab8
 8004fd8:	f002 f9d4 	bl	8007384 <_ZN4core3ptr13read_volatile17h384c2f472b76a07aE>
 8004fdc:	f8cd 0ab0 	str.w	r0, [sp, #2736]	; 0xab0
 8004fe0:	f8cd 0aa4 	str.w	r0, [sp, #2724]	; 0xaa4
 8004fe4:	f8cd 0aa8 	str.w	r0, [sp, #2728]	; 0xaa8
 8004fe8:	f60d 20a4 	addw	r0, sp, #2724	; 0xaa4
 8004fec:	f8cd 0a9c 	str.w	r0, [sp, #2716]	; 0xa9c
 8004ff0:	f60d 20a8 	addw	r0, sp, #2728	; 0xaa8
 8004ff4:	f8cd 0aa0 	str.w	r0, [sp, #2720]	; 0xaa0
 8004ff8:	f8dd 0a9c 	ldr.w	r0, [sp, #2716]	; 0xa9c
 8004ffc:	f8dd 1aa0 	ldr.w	r1, [sp, #2720]	; 0xaa0
 8005000:	f7fc fece 	bl	8001da0 <_ZN4mem310checkpoint14initialization28_$u7b$$u7b$closure$u7d$$u7d$17h712cfc9407d9512eE>
 8005004:	4601      	mov	r1, r0
 8005006:	9815      	ldr	r0, [sp, #84]	; 0x54
 8005008:	6809      	ldr	r1, [r1, #0]
 800500a:	f8cd 0abc 	str.w	r0, [sp, #2748]	; 0xabc
 800500e:	f8cd 1ac0 	str.w	r1, [sp, #2752]	; 0xac0
 8005012:	f8cd 0ac4 	str.w	r0, [sp, #2756]	; 0xac4
 8005016:	f002 f9ec 	bl	80073f2 <_ZN4core3ptr14write_volatile17h46a673fe162f1e59E>
 800501a:	9816      	ldr	r0, [sp, #88]	; 0x58
 800501c:	9a17      	ldr	r2, [sp, #92]	; 0x5c
 800501e:	992a      	ldr	r1, [sp, #168]	; 0xa8
 8005020:	9288      	str	r2, [sp, #544]	; 0x220
 8005022:	6588      	str	r0, [r1, #88]	; 0x58
 8005024:	6608      	str	r0, [r1, #96]	; 0x60
 8005026:	6648      	str	r0, [r1, #100]	; 0x64
 8005028:	f002 f9ac 	bl	8007384 <_ZN4core3ptr13read_volatile17h384c2f472b76a07aE>
 800502c:	992a      	ldr	r1, [sp, #168]	; 0xa8
 800502e:	65c8      	str	r0, [r1, #92]	; 0x5c
 8005030:	6508      	str	r0, [r1, #80]	; 0x50
 8005032:	6548      	str	r0, [r1, #84]	; 0x54
 8005034:	f10d 0e1c 	add.w	lr, sp, #28
 8005038:	f50e 5083 	add.w	r0, lr, #4192	; 0x1060
 800503c:	6488      	str	r0, [r1, #72]	; 0x48
 800503e:	f50d 5084 	add.w	r0, sp, #4224	; 0x1080
 8005042:	64c8      	str	r0, [r1, #76]	; 0x4c
 8005044:	6c88      	ldr	r0, [r1, #72]	; 0x48
 8005046:	6cc9      	ldr	r1, [r1, #76]	; 0x4c
 8005048:	f7fc fed3 	bl	8001df2 <_ZN4mem310checkpoint14initialization28_$u7b$$u7b$closure$u7d$$u7d$17h8888660a330147ddE>
 800504c:	9a2a      	ldr	r2, [sp, #168]	; 0xa8
 800504e:	4601      	mov	r1, r0
 8005050:	9816      	ldr	r0, [sp, #88]	; 0x58
 8005052:	6809      	ldr	r1, [r1, #0]
 8005054:	6690      	str	r0, [r2, #104]	; 0x68
 8005056:	66d1      	str	r1, [r2, #108]	; 0x6c
 8005058:	6710      	str	r0, [r2, #112]	; 0x70
 800505a:	f002 f9ca 	bl	80073f2 <_ZN4core3ptr14write_volatile17h46a673fe162f1e59E>
 800505e:	9917      	ldr	r1, [sp, #92]	; 0x5c
 8005060:	9818      	ldr	r0, [sp, #96]	; 0x60
 8005062:	9187      	str	r1, [sp, #540]	; 0x21c
 8005064:	f8cd 0e48 	str.w	r0, [sp, #3656]	; 0xe48
 8005068:	f8cd 0e50 	str.w	r0, [sp, #3664]	; 0xe50
 800506c:	f8cd 0e54 	str.w	r0, [sp, #3668]	; 0xe54
 8005070:	f002 f988 	bl	8007384 <_ZN4core3ptr13read_volatile17h384c2f472b76a07aE>
 8005074:	f8cd 0e4c 	str.w	r0, [sp, #3660]	; 0xe4c
 8005078:	f8cd 0e40 	str.w	r0, [sp, #3648]	; 0xe40
 800507c:	f8cd 0e44 	str.w	r0, [sp, #3652]	; 0xe44
 8005080:	f50d 6064 	add.w	r0, sp, #3648	; 0xe40
 8005084:	f8cd 0e38 	str.w	r0, [sp, #3640]	; 0xe38
 8005088:	f60d 6044 	addw	r0, sp, #3652	; 0xe44
 800508c:	f8cd 0e3c 	str.w	r0, [sp, #3644]	; 0xe3c
 8005090:	f8dd 0e38 	ldr.w	r0, [sp, #3640]	; 0xe38
 8005094:	f8dd 1e3c 	ldr.w	r1, [sp, #3644]	; 0xe3c
 8005098:	f7fc fed4 	bl	8001e44 <_ZN4mem310checkpoint14initialization28_$u7b$$u7b$closure$u7d$$u7d$17h4df5593fe28b550aE>
 800509c:	4601      	mov	r1, r0
 800509e:	9818      	ldr	r0, [sp, #96]	; 0x60
 80050a0:	6809      	ldr	r1, [r1, #0]
 80050a2:	f8cd 0e58 	str.w	r0, [sp, #3672]	; 0xe58
 80050a6:	f8cd 1e5c 	str.w	r1, [sp, #3676]	; 0xe5c
 80050aa:	f8cd 0e60 	str.w	r0, [sp, #3680]	; 0xe60
 80050ae:	f002 f9a0 	bl	80073f2 <_ZN4core3ptr14write_volatile17h46a673fe162f1e59E>
 80050b2:	9815      	ldr	r0, [sp, #84]	; 0x54
 80050b4:	9a17      	ldr	r2, [sp, #92]	; 0x5c
 80050b6:	992a      	ldr	r1, [sp, #168]	; 0xa8
 80050b8:	9286      	str	r2, [sp, #536]	; 0x218
 80050ba:	f8c1 07bc 	str.w	r0, [r1, #1980]	; 0x7bc
 80050be:	f8c1 07c4 	str.w	r0, [r1, #1988]	; 0x7c4
 80050c2:	f8c1 07c8 	str.w	r0, [r1, #1992]	; 0x7c8
 80050c6:	f002 f95d 	bl	8007384 <_ZN4core3ptr13read_volatile17h384c2f472b76a07aE>
 80050ca:	992a      	ldr	r1, [sp, #168]	; 0xa8
 80050cc:	f8c1 07c0 	str.w	r0, [r1, #1984]	; 0x7c0
 80050d0:	f8c1 07b4 	str.w	r0, [r1, #1972]	; 0x7b4
 80050d4:	f8c1 07b8 	str.w	r0, [r1, #1976]	; 0x7b8
 80050d8:	f50d 50bf 	add.w	r0, sp, #6112	; 0x17e0
 80050dc:	f8c1 07ac 	str.w	r0, [r1, #1964]	; 0x7ac
 80050e0:	f10d 0e04 	add.w	lr, sp, #4
 80050e4:	f50e 50bf 	add.w	r0, lr, #6112	; 0x17e0
 80050e8:	f8c1 07b0 	str.w	r0, [r1, #1968]	; 0x7b0
 80050ec:	f8d1 07ac 	ldr.w	r0, [r1, #1964]	; 0x7ac
 80050f0:	f8d1 17b0 	ldr.w	r1, [r1, #1968]	; 0x7b0
 80050f4:	f7fc fecf 	bl	8001e96 <_ZN4mem310checkpoint14initialization28_$u7b$$u7b$closure$u7d$$u7d$17h2cf885448c03fc92E>
 80050f8:	9a2a      	ldr	r2, [sp, #168]	; 0xa8
 80050fa:	4601      	mov	r1, r0
 80050fc:	9815      	ldr	r0, [sp, #84]	; 0x54
 80050fe:	6809      	ldr	r1, [r1, #0]
 8005100:	f8c2 07cc 	str.w	r0, [r2, #1996]	; 0x7cc
 8005104:	f8c2 17d0 	str.w	r1, [r2, #2000]	; 0x7d0
 8005108:	f8c2 07d4 	str.w	r0, [r2, #2004]	; 0x7d4
 800510c:	f002 f971 	bl	80073f2 <_ZN4core3ptr14write_volatile17h46a673fe162f1e59E>
 8005110:	9816      	ldr	r0, [sp, #88]	; 0x58
 8005112:	9917      	ldr	r1, [sp, #92]	; 0x5c
 8005114:	9185      	str	r1, [sp, #532]	; 0x214
 8005116:	f8cd 0fa8 	str.w	r0, [sp, #4008]	; 0xfa8
 800511a:	f8cd 0fb0 	str.w	r0, [sp, #4016]	; 0xfb0
 800511e:	f8cd 0fb4 	str.w	r0, [sp, #4020]	; 0xfb4
 8005122:	f002 f92f 	bl	8007384 <_ZN4core3ptr13read_volatile17h384c2f472b76a07aE>
 8005126:	f8cd 0fac 	str.w	r0, [sp, #4012]	; 0xfac
 800512a:	f8cd 0fa0 	str.w	r0, [sp, #4000]	; 0xfa0
 800512e:	f8cd 0fa4 	str.w	r0, [sp, #4004]	; 0xfa4
 8005132:	f50d 607a 	add.w	r0, sp, #4000	; 0xfa0
 8005136:	f8cd 0f98 	str.w	r0, [sp, #3992]	; 0xf98
 800513a:	f60d 70a4 	addw	r0, sp, #4004	; 0xfa4
 800513e:	f8cd 0f9c 	str.w	r0, [sp, #3996]	; 0xf9c
 8005142:	f8dd 0f98 	ldr.w	r0, [sp, #3992]	; 0xf98
 8005146:	f8dd 1f9c 	ldr.w	r1, [sp, #3996]	; 0xf9c
 800514a:	f7fc fecd 	bl	8001ee8 <_ZN4mem310checkpoint14initialization28_$u7b$$u7b$closure$u7d$$u7d$17hc8e89b1a2084e5aeE>
 800514e:	4601      	mov	r1, r0
 8005150:	9816      	ldr	r0, [sp, #88]	; 0x58
 8005152:	6809      	ldr	r1, [r1, #0]
 8005154:	f8cd 0fb8 	str.w	r0, [sp, #4024]	; 0xfb8
 8005158:	f8cd 1fbc 	str.w	r1, [sp, #4028]	; 0xfbc
 800515c:	f8cd 0fc0 	str.w	r0, [sp, #4032]	; 0xfc0
 8005160:	f002 f947 	bl	80073f2 <_ZN4core3ptr14write_volatile17h46a673fe162f1e59E>
 8005164:	9917      	ldr	r1, [sp, #92]	; 0x5c
 8005166:	9818      	ldr	r0, [sp, #96]	; 0x60
 8005168:	9184      	str	r1, [sp, #528]	; 0x210
 800516a:	f50d 5e80 	add.w	lr, sp, #4096	; 0x1000
 800516e:	f8ce 0000 	str.w	r0, [lr]
 8005172:	f50d 5e80 	add.w	lr, sp, #4096	; 0x1000
 8005176:	f8ce 0008 	str.w	r0, [lr, #8]
 800517a:	f50d 5e80 	add.w	lr, sp, #4096	; 0x1000
 800517e:	f8ce 000c 	str.w	r0, [lr, #12]
 8005182:	f002 f8ff 	bl	8007384 <_ZN4core3ptr13read_volatile17h384c2f472b76a07aE>
 8005186:	f50d 5e80 	add.w	lr, sp, #4096	; 0x1000
 800518a:	f8ce 0004 	str.w	r0, [lr, #4]
 800518e:	f8cd 0ff8 	str.w	r0, [sp, #4088]	; 0xff8
 8005192:	f8cd 0ffc 	str.w	r0, [sp, #4092]	; 0xffc
 8005196:	f60d 70f8 	addw	r0, sp, #4088	; 0xff8
 800519a:	f8cd 0ff0 	str.w	r0, [sp, #4080]	; 0xff0
 800519e:	f60d 70fc 	addw	r0, sp, #4092	; 0xffc
 80051a2:	f8cd 0ff4 	str.w	r0, [sp, #4084]	; 0xff4
 80051a6:	f8dd 0ff0 	ldr.w	r0, [sp, #4080]	; 0xff0
 80051aa:	f8dd 1ff4 	ldr.w	r1, [sp, #4084]	; 0xff4
 80051ae:	f7fc fec4 	bl	8001f3a <_ZN4mem310checkpoint14initialization28_$u7b$$u7b$closure$u7d$$u7d$17hdee1e805bce3b332E>
 80051b2:	4601      	mov	r1, r0
 80051b4:	9818      	ldr	r0, [sp, #96]	; 0x60
 80051b6:	6809      	ldr	r1, [r1, #0]
 80051b8:	f50d 5e80 	add.w	lr, sp, #4096	; 0x1000
 80051bc:	f8ce 0010 	str.w	r0, [lr, #16]
 80051c0:	f50d 5e80 	add.w	lr, sp, #4096	; 0x1000
 80051c4:	f8ce 1014 	str.w	r1, [lr, #20]
 80051c8:	f50d 5e80 	add.w	lr, sp, #4096	; 0x1000
 80051cc:	f8ce 0018 	str.w	r0, [lr, #24]
 80051d0:	f002 f90f 	bl	80073f2 <_ZN4core3ptr14write_volatile17h46a673fe162f1e59E>
 80051d4:	9815      	ldr	r0, [sp, #84]	; 0x54
 80051d6:	9917      	ldr	r1, [sp, #92]	; 0x5c
 80051d8:	9183      	str	r1, [sp, #524]	; 0x20c
 80051da:	f8cd 068c 	str.w	r0, [sp, #1676]	; 0x68c
 80051de:	f8cd 0694 	str.w	r0, [sp, #1684]	; 0x694
 80051e2:	f8cd 0698 	str.w	r0, [sp, #1688]	; 0x698
 80051e6:	f002 f8cd 	bl	8007384 <_ZN4core3ptr13read_volatile17h384c2f472b76a07aE>
 80051ea:	f8cd 0690 	str.w	r0, [sp, #1680]	; 0x690
 80051ee:	f8cd 0684 	str.w	r0, [sp, #1668]	; 0x684
 80051f2:	f8cd 0688 	str.w	r0, [sp, #1672]	; 0x688
 80051f6:	f20d 6084 	addw	r0, sp, #1668	; 0x684
 80051fa:	f8cd 067c 	str.w	r0, [sp, #1660]	; 0x67c
 80051fe:	f50d 60d1 	add.w	r0, sp, #1672	; 0x688
 8005202:	f8cd 0680 	str.w	r0, [sp, #1664]	; 0x680
 8005206:	f8dd 067c 	ldr.w	r0, [sp, #1660]	; 0x67c
 800520a:	f8dd 1680 	ldr.w	r1, [sp, #1664]	; 0x680
 800520e:	f7fc febd 	bl	8001f8c <_ZN4mem310checkpoint14initialization28_$u7b$$u7b$closure$u7d$$u7d$17hf961cb5ddc900f3dE>
 8005212:	4601      	mov	r1, r0
 8005214:	9815      	ldr	r0, [sp, #84]	; 0x54
 8005216:	6809      	ldr	r1, [r1, #0]
 8005218:	f8cd 069c 	str.w	r0, [sp, #1692]	; 0x69c
 800521c:	f8cd 16a0 	str.w	r1, [sp, #1696]	; 0x6a0
 8005220:	f8cd 06a4 	str.w	r0, [sp, #1700]	; 0x6a4
 8005224:	f002 f8e5 	bl	80073f2 <_ZN4core3ptr14write_volatile17h46a673fe162f1e59E>
 8005228:	9816      	ldr	r0, [sp, #88]	; 0x58
 800522a:	9917      	ldr	r1, [sp, #92]	; 0x5c
 800522c:	9182      	str	r1, [sp, #520]	; 0x208
 800522e:	f8cd 0bb4 	str.w	r0, [sp, #2996]	; 0xbb4
 8005232:	f8cd 0bbc 	str.w	r0, [sp, #3004]	; 0xbbc
 8005236:	f8cd 0bc0 	str.w	r0, [sp, #3008]	; 0xbc0
 800523a:	f002 f8a3 	bl	8007384 <_ZN4core3ptr13read_volatile17h384c2f472b76a07aE>
 800523e:	f8cd 0bb8 	str.w	r0, [sp, #3000]	; 0xbb8
 8005242:	f8cd 0bac 	str.w	r0, [sp, #2988]	; 0xbac
 8005246:	f8cd 0bb0 	str.w	r0, [sp, #2992]	; 0xbb0
 800524a:	f60d 30ac 	addw	r0, sp, #2988	; 0xbac
 800524e:	f8cd 0ba4 	str.w	r0, [sp, #2980]	; 0xba4
 8005252:	f50d 603b 	add.w	r0, sp, #2992	; 0xbb0
 8005256:	f8cd 0ba8 	str.w	r0, [sp, #2984]	; 0xba8
 800525a:	f8dd 0ba4 	ldr.w	r0, [sp, #2980]	; 0xba4
 800525e:	f8dd 1ba8 	ldr.w	r1, [sp, #2984]	; 0xba8
 8005262:	f7fc febc 	bl	8001fde <_ZN4mem310checkpoint14initialization28_$u7b$$u7b$closure$u7d$$u7d$17hd8924d0525bd16a1E>
 8005266:	4601      	mov	r1, r0
 8005268:	9816      	ldr	r0, [sp, #88]	; 0x58
 800526a:	6809      	ldr	r1, [r1, #0]
 800526c:	f8cd 0bc4 	str.w	r0, [sp, #3012]	; 0xbc4
 8005270:	f8cd 1bc8 	str.w	r1, [sp, #3016]	; 0xbc8
 8005274:	f8cd 0bcc 	str.w	r0, [sp, #3020]	; 0xbcc
 8005278:	f002 f8bb 	bl	80073f2 <_ZN4core3ptr14write_volatile17h46a673fe162f1e59E>
 800527c:	9a17      	ldr	r2, [sp, #92]	; 0x5c
 800527e:	9818      	ldr	r0, [sp, #96]	; 0x60
 8005280:	992a      	ldr	r1, [sp, #168]	; 0xa8
 8005282:	9281      	str	r2, [sp, #516]	; 0x204
 8005284:	f8c1 04a4 	str.w	r0, [r1, #1188]	; 0x4a4
 8005288:	f8c1 04ac 	str.w	r0, [r1, #1196]	; 0x4ac
 800528c:	f8c1 04b0 	str.w	r0, [r1, #1200]	; 0x4b0
 8005290:	f002 f878 	bl	8007384 <_ZN4core3ptr13read_volatile17h384c2f472b76a07aE>
 8005294:	992a      	ldr	r1, [sp, #168]	; 0xa8
 8005296:	f8c1 04a8 	str.w	r0, [r1, #1192]	; 0x4a8
 800529a:	f8c1 049c 	str.w	r0, [r1, #1180]	; 0x49c
 800529e:	f8c1 04a0 	str.w	r0, [r1, #1184]	; 0x4a0
 80052a2:	f10d 0e08 	add.w	lr, sp, #8
 80052a6:	f50e 50a6 	add.w	r0, lr, #5312	; 0x14c0
 80052aa:	f8c1 0494 	str.w	r0, [r1, #1172]	; 0x494
 80052ae:	f10d 0e0c 	add.w	lr, sp, #12
 80052b2:	f50e 50a6 	add.w	r0, lr, #5312	; 0x14c0
 80052b6:	f8c1 0498 	str.w	r0, [r1, #1176]	; 0x498
 80052ba:	f8d1 0494 	ldr.w	r0, [r1, #1172]	; 0x494
 80052be:	f8d1 1498 	ldr.w	r1, [r1, #1176]	; 0x498
 80052c2:	f7fc feb5 	bl	8002030 <_ZN4mem310checkpoint14initialization28_$u7b$$u7b$closure$u7d$$u7d$17hb43170516307a5d7E>
 80052c6:	9a2a      	ldr	r2, [sp, #168]	; 0xa8
 80052c8:	4601      	mov	r1, r0
 80052ca:	9818      	ldr	r0, [sp, #96]	; 0x60
 80052cc:	6809      	ldr	r1, [r1, #0]
 80052ce:	f8c2 04b4 	str.w	r0, [r2, #1204]	; 0x4b4
 80052d2:	f8c2 14b8 	str.w	r1, [r2, #1208]	; 0x4b8
 80052d6:	f8c2 04bc 	str.w	r0, [r2, #1212]	; 0x4bc
 80052da:	f002 f88a 	bl	80073f2 <_ZN4core3ptr14write_volatile17h46a673fe162f1e59E>
 80052de:	9815      	ldr	r0, [sp, #84]	; 0x54
 80052e0:	9917      	ldr	r1, [sp, #92]	; 0x5c
 80052e2:	9180      	str	r1, [sp, #512]	; 0x200
 80052e4:	f8cd 0be0 	str.w	r0, [sp, #3040]	; 0xbe0
 80052e8:	f8cd 0be8 	str.w	r0, [sp, #3048]	; 0xbe8
 80052ec:	f8cd 0bec 	str.w	r0, [sp, #3052]	; 0xbec
 80052f0:	f002 f848 	bl	8007384 <_ZN4core3ptr13read_volatile17h384c2f472b76a07aE>
 80052f4:	f8cd 0be4 	str.w	r0, [sp, #3044]	; 0xbe4
 80052f8:	f8cd 0bd8 	str.w	r0, [sp, #3032]	; 0xbd8
 80052fc:	f8cd 0bdc 	str.w	r0, [sp, #3036]	; 0xbdc
 8005300:	f60d 30d8 	addw	r0, sp, #3032	; 0xbd8
 8005304:	f8cd 0bd0 	str.w	r0, [sp, #3024]	; 0xbd0
 8005308:	f60d 30dc 	addw	r0, sp, #3036	; 0xbdc
 800530c:	f8cd 0bd4 	str.w	r0, [sp, #3028]	; 0xbd4
 8005310:	f8dd 0bd0 	ldr.w	r0, [sp, #3024]	; 0xbd0
 8005314:	f8dd 1bd4 	ldr.w	r1, [sp, #3028]	; 0xbd4
 8005318:	f7fc feb3 	bl	8002082 <_ZN4mem310checkpoint14initialization28_$u7b$$u7b$closure$u7d$$u7d$17hf8b690586ce9d722E>
 800531c:	4601      	mov	r1, r0
 800531e:	9815      	ldr	r0, [sp, #84]	; 0x54
 8005320:	6809      	ldr	r1, [r1, #0]
 8005322:	f8cd 0bf0 	str.w	r0, [sp, #3056]	; 0xbf0
 8005326:	f8cd 1bf4 	str.w	r1, [sp, #3060]	; 0xbf4
 800532a:	f8cd 0bf8 	str.w	r0, [sp, #3064]	; 0xbf8
 800532e:	f002 f860 	bl	80073f2 <_ZN4core3ptr14write_volatile17h46a673fe162f1e59E>
 8005332:	9816      	ldr	r0, [sp, #88]	; 0x58
 8005334:	9917      	ldr	r1, [sp, #92]	; 0x5c
 8005336:	917f      	str	r1, [sp, #508]	; 0x1fc
 8005338:	f8cd 08c8 	str.w	r0, [sp, #2248]	; 0x8c8
 800533c:	f8cd 08d0 	str.w	r0, [sp, #2256]	; 0x8d0
 8005340:	f8cd 08d4 	str.w	r0, [sp, #2260]	; 0x8d4
 8005344:	f002 f81e 	bl	8007384 <_ZN4core3ptr13read_volatile17h384c2f472b76a07aE>
 8005348:	f8cd 08cc 	str.w	r0, [sp, #2252]	; 0x8cc
 800534c:	f8cd 08c0 	str.w	r0, [sp, #2240]	; 0x8c0
 8005350:	f8cd 08c4 	str.w	r0, [sp, #2244]	; 0x8c4
 8005354:	f50d 600c 	add.w	r0, sp, #2240	; 0x8c0
 8005358:	f8cd 08b8 	str.w	r0, [sp, #2232]	; 0x8b8
 800535c:	f60d 00c4 	addw	r0, sp, #2244	; 0x8c4
 8005360:	f8cd 08bc 	str.w	r0, [sp, #2236]	; 0x8bc
 8005364:	f8dd 08b8 	ldr.w	r0, [sp, #2232]	; 0x8b8
 8005368:	f8dd 18bc 	ldr.w	r1, [sp, #2236]	; 0x8bc
 800536c:	f7fc feb2 	bl	80020d4 <_ZN4mem310checkpoint14initialization28_$u7b$$u7b$closure$u7d$$u7d$17h1446d3539829b3f6E>
 8005370:	4601      	mov	r1, r0
 8005372:	9816      	ldr	r0, [sp, #88]	; 0x58
 8005374:	6809      	ldr	r1, [r1, #0]
 8005376:	f8cd 08d8 	str.w	r0, [sp, #2264]	; 0x8d8
 800537a:	f8cd 18dc 	str.w	r1, [sp, #2268]	; 0x8dc
 800537e:	f8cd 08e0 	str.w	r0, [sp, #2272]	; 0x8e0
 8005382:	f002 f836 	bl	80073f2 <_ZN4core3ptr14write_volatile17h46a673fe162f1e59E>
 8005386:	9a17      	ldr	r2, [sp, #92]	; 0x5c
 8005388:	9818      	ldr	r0, [sp, #96]	; 0x60
 800538a:	992a      	ldr	r1, [sp, #168]	; 0xa8
 800538c:	927e      	str	r2, [sp, #504]	; 0x1f8
 800538e:	f8c1 0764 	str.w	r0, [r1, #1892]	; 0x764
 8005392:	f8c1 076c 	str.w	r0, [r1, #1900]	; 0x76c
 8005396:	f8c1 0770 	str.w	r0, [r1, #1904]	; 0x770
 800539a:	f001 fff3 	bl	8007384 <_ZN4core3ptr13read_volatile17h384c2f472b76a07aE>
 800539e:	992a      	ldr	r1, [sp, #168]	; 0xa8
 80053a0:	f8c1 0768 	str.w	r0, [r1, #1896]	; 0x768
 80053a4:	f8c1 075c 	str.w	r0, [r1, #1884]	; 0x75c
 80053a8:	f8c1 0760 	str.w	r0, [r1, #1888]	; 0x760
 80053ac:	f10d 0e08 	add.w	lr, sp, #8
 80053b0:	f50e 50bc 	add.w	r0, lr, #6016	; 0x1780
 80053b4:	f8c1 0754 	str.w	r0, [r1, #1876]	; 0x754
 80053b8:	f10d 0e0c 	add.w	lr, sp, #12
 80053bc:	f50e 50bc 	add.w	r0, lr, #6016	; 0x1780
 80053c0:	f8c1 0758 	str.w	r0, [r1, #1880]	; 0x758
 80053c4:	f8d1 0754 	ldr.w	r0, [r1, #1876]	; 0x754
 80053c8:	f8d1 1758 	ldr.w	r1, [r1, #1880]	; 0x758
 80053cc:	f7fc feab 	bl	8002126 <_ZN4mem310checkpoint14initialization28_$u7b$$u7b$closure$u7d$$u7d$17hc5daa2baadf9d9aeE>
 80053d0:	9a2a      	ldr	r2, [sp, #168]	; 0xa8
 80053d2:	4601      	mov	r1, r0
 80053d4:	9818      	ldr	r0, [sp, #96]	; 0x60
 80053d6:	6809      	ldr	r1, [r1, #0]
 80053d8:	f8c2 0774 	str.w	r0, [r2, #1908]	; 0x774
 80053dc:	f8c2 1778 	str.w	r1, [r2, #1912]	; 0x778
 80053e0:	f8c2 077c 	str.w	r0, [r2, #1916]	; 0x77c
 80053e4:	f002 f805 	bl	80073f2 <_ZN4core3ptr14write_volatile17h46a673fe162f1e59E>
 80053e8:	9815      	ldr	r0, [sp, #84]	; 0x54
 80053ea:	9917      	ldr	r1, [sp, #92]	; 0x5c
 80053ec:	917d      	str	r1, [sp, #500]	; 0x1f4
 80053ee:	f8cd 05dc 	str.w	r0, [sp, #1500]	; 0x5dc
 80053f2:	f8cd 05e4 	str.w	r0, [sp, #1508]	; 0x5e4
 80053f6:	f8cd 05e8 	str.w	r0, [sp, #1512]	; 0x5e8
 80053fa:	f001 ffc3 	bl	8007384 <_ZN4core3ptr13read_volatile17h384c2f472b76a07aE>
 80053fe:	f8cd 05e0 	str.w	r0, [sp, #1504]	; 0x5e0
 8005402:	f8cd 05d4 	str.w	r0, [sp, #1492]	; 0x5d4
 8005406:	f8cd 05d8 	str.w	r0, [sp, #1496]	; 0x5d8
 800540a:	f20d 50d4 	addw	r0, sp, #1492	; 0x5d4
 800540e:	f8cd 05cc 	str.w	r0, [sp, #1484]	; 0x5cc
 8005412:	f50d 60bb 	add.w	r0, sp, #1496	; 0x5d8
 8005416:	f8cd 05d0 	str.w	r0, [sp, #1488]	; 0x5d0
 800541a:	f8dd 05cc 	ldr.w	r0, [sp, #1484]	; 0x5cc
 800541e:	f8dd 15d0 	ldr.w	r1, [sp, #1488]	; 0x5d0
 8005422:	f7fc fea9 	bl	8002178 <_ZN4mem310checkpoint14initialization28_$u7b$$u7b$closure$u7d$$u7d$17hbf36a610414d6d39E>
 8005426:	4601      	mov	r1, r0
 8005428:	9815      	ldr	r0, [sp, #84]	; 0x54
 800542a:	6809      	ldr	r1, [r1, #0]
 800542c:	f8cd 05ec 	str.w	r0, [sp, #1516]	; 0x5ec
 8005430:	f8cd 15f0 	str.w	r1, [sp, #1520]	; 0x5f0
 8005434:	f8cd 05f4 	str.w	r0, [sp, #1524]	; 0x5f4
 8005438:	f001 ffdb 	bl	80073f2 <_ZN4core3ptr14write_volatile17h46a673fe162f1e59E>
 800543c:	9816      	ldr	r0, [sp, #88]	; 0x58
 800543e:	9917      	ldr	r1, [sp, #92]	; 0x5c
 8005440:	917c      	str	r1, [sp, #496]	; 0x1f0
 8005442:	f8cd 0558 	str.w	r0, [sp, #1368]	; 0x558
 8005446:	f8cd 0560 	str.w	r0, [sp, #1376]	; 0x560
 800544a:	f8cd 0564 	str.w	r0, [sp, #1380]	; 0x564
 800544e:	f001 ff99 	bl	8007384 <_ZN4core3ptr13read_volatile17h384c2f472b76a07aE>
 8005452:	f8cd 055c 	str.w	r0, [sp, #1372]	; 0x55c
 8005456:	f8cd 0550 	str.w	r0, [sp, #1360]	; 0x550
 800545a:	f8cd 0554 	str.w	r0, [sp, #1364]	; 0x554
 800545e:	f50d 60aa 	add.w	r0, sp, #1360	; 0x550
 8005462:	f8cd 0548 	str.w	r0, [sp, #1352]	; 0x548
 8005466:	f20d 5054 	addw	r0, sp, #1364	; 0x554
 800546a:	f8cd 054c 	str.w	r0, [sp, #1356]	; 0x54c
 800546e:	f8dd 0548 	ldr.w	r0, [sp, #1352]	; 0x548
 8005472:	f8dd 154c 	ldr.w	r1, [sp, #1356]	; 0x54c
 8005476:	f7fc fea8 	bl	80021ca <_ZN4mem310checkpoint14initialization28_$u7b$$u7b$closure$u7d$$u7d$17h17bccc9c796fc4a5E>
 800547a:	4601      	mov	r1, r0
 800547c:	9816      	ldr	r0, [sp, #88]	; 0x58
 800547e:	6809      	ldr	r1, [r1, #0]
 8005480:	f8cd 0568 	str.w	r0, [sp, #1384]	; 0x568
 8005484:	f8cd 156c 	str.w	r1, [sp, #1388]	; 0x56c
 8005488:	f8cd 0570 	str.w	r0, [sp, #1392]	; 0x570
 800548c:	f001 ffb1 	bl	80073f2 <_ZN4core3ptr14write_volatile17h46a673fe162f1e59E>
 8005490:	9917      	ldr	r1, [sp, #92]	; 0x5c
 8005492:	9818      	ldr	r0, [sp, #96]	; 0x60
 8005494:	917b      	str	r1, [sp, #492]	; 0x1ec
 8005496:	f8cd 0584 	str.w	r0, [sp, #1412]	; 0x584
 800549a:	f8cd 058c 	str.w	r0, [sp, #1420]	; 0x58c
 800549e:	f8cd 0590 	str.w	r0, [sp, #1424]	; 0x590
 80054a2:	f001 ff6f 	bl	8007384 <_ZN4core3ptr13read_volatile17h384c2f472b76a07aE>
 80054a6:	f8cd 0588 	str.w	r0, [sp, #1416]	; 0x588
 80054aa:	f8cd 057c 	str.w	r0, [sp, #1404]	; 0x57c
 80054ae:	f8cd 0580 	str.w	r0, [sp, #1408]	; 0x580
 80054b2:	f20d 507c 	addw	r0, sp, #1404	; 0x57c
 80054b6:	f8cd 0574 	str.w	r0, [sp, #1396]	; 0x574
 80054ba:	f50d 60b0 	add.w	r0, sp, #1408	; 0x580
 80054be:	f8cd 0578 	str.w	r0, [sp, #1400]	; 0x578
 80054c2:	f8dd 0574 	ldr.w	r0, [sp, #1396]	; 0x574
 80054c6:	f8dd 1578 	ldr.w	r1, [sp, #1400]	; 0x578
 80054ca:	f7fc fea7 	bl	800221c <_ZN4mem310checkpoint14initialization28_$u7b$$u7b$closure$u7d$$u7d$17h8545db0c6c250d62E>
 80054ce:	4601      	mov	r1, r0
 80054d0:	9818      	ldr	r0, [sp, #96]	; 0x60
 80054d2:	6809      	ldr	r1, [r1, #0]
 80054d4:	f8cd 0594 	str.w	r0, [sp, #1428]	; 0x594
 80054d8:	f8cd 1598 	str.w	r1, [sp, #1432]	; 0x598
 80054dc:	f8cd 059c 	str.w	r0, [sp, #1436]	; 0x59c
 80054e0:	f001 ff87 	bl	80073f2 <_ZN4core3ptr14write_volatile17h46a673fe162f1e59E>
 80054e4:	9815      	ldr	r0, [sp, #84]	; 0x54
 80054e6:	9a17      	ldr	r2, [sp, #92]	; 0x5c
 80054e8:	992a      	ldr	r1, [sp, #168]	; 0xa8
 80054ea:	927a      	str	r2, [sp, #488]	; 0x1e8
 80054ec:	f8c1 02c0 	str.w	r0, [r1, #704]	; 0x2c0
 80054f0:	f8c1 02c8 	str.w	r0, [r1, #712]	; 0x2c8
 80054f4:	f8c1 02cc 	str.w	r0, [r1, #716]	; 0x2cc
 80054f8:	f001 ff44 	bl	8007384 <_ZN4core3ptr13read_volatile17h384c2f472b76a07aE>
 80054fc:	992a      	ldr	r1, [sp, #168]	; 0xa8
 80054fe:	f8c1 02c4 	str.w	r0, [r1, #708]	; 0x2c4
 8005502:	f8c1 02b8 	str.w	r0, [r1, #696]	; 0x2b8
 8005506:	f8c1 02bc 	str.w	r0, [r1, #700]	; 0x2bc
 800550a:	f10d 0e04 	add.w	lr, sp, #4
 800550e:	f50e 5097 	add.w	r0, lr, #4832	; 0x12e0
 8005512:	f8c1 02b0 	str.w	r0, [r1, #688]	; 0x2b0
 8005516:	f10d 0e08 	add.w	lr, sp, #8
 800551a:	f50e 5097 	add.w	r0, lr, #4832	; 0x12e0
 800551e:	f8c1 02b4 	str.w	r0, [r1, #692]	; 0x2b4
 8005522:	f8d1 02b0 	ldr.w	r0, [r1, #688]	; 0x2b0
 8005526:	f8d1 12b4 	ldr.w	r1, [r1, #692]	; 0x2b4
 800552a:	f7fc fea0 	bl	800226e <_ZN4mem310checkpoint14initialization28_$u7b$$u7b$closure$u7d$$u7d$17hc68858af5a93aca3E>
 800552e:	9a2a      	ldr	r2, [sp, #168]	; 0xa8
 8005530:	4601      	mov	r1, r0
 8005532:	9815      	ldr	r0, [sp, #84]	; 0x54
 8005534:	6809      	ldr	r1, [r1, #0]
 8005536:	f8c2 02d0 	str.w	r0, [r2, #720]	; 0x2d0
 800553a:	f8c2 12d4 	str.w	r1, [r2, #724]	; 0x2d4
 800553e:	f8c2 02d8 	str.w	r0, [r2, #728]	; 0x2d8
 8005542:	f001 ff56 	bl	80073f2 <_ZN4core3ptr14write_volatile17h46a673fe162f1e59E>
 8005546:	9816      	ldr	r0, [sp, #88]	; 0x58
 8005548:	9a17      	ldr	r2, [sp, #92]	; 0x5c
 800554a:	992a      	ldr	r1, [sp, #168]	; 0xa8
 800554c:	9279      	str	r2, [sp, #484]	; 0x1e4
 800554e:	f8c1 0630 	str.w	r0, [r1, #1584]	; 0x630
 8005552:	f8c1 0638 	str.w	r0, [r1, #1592]	; 0x638
 8005556:	f8c1 063c 	str.w	r0, [r1, #1596]	; 0x63c
 800555a:	f001 ff13 	bl	8007384 <_ZN4core3ptr13read_volatile17h384c2f472b76a07aE>
 800555e:	992a      	ldr	r1, [sp, #168]	; 0xa8
 8005560:	f8c1 0634 	str.w	r0, [r1, #1588]	; 0x634
 8005564:	f8c1 0628 	str.w	r0, [r1, #1576]	; 0x628
 8005568:	f8c1 062c 	str.w	r0, [r1, #1580]	; 0x62c
 800556c:	f10d 0e14 	add.w	lr, sp, #20
 8005570:	f50e 50b2 	add.w	r0, lr, #5696	; 0x1640
 8005574:	f8c1 0620 	str.w	r0, [r1, #1568]	; 0x620
 8005578:	f10d 0e18 	add.w	lr, sp, #24
 800557c:	f50e 50b2 	add.w	r0, lr, #5696	; 0x1640
 8005580:	f8c1 0624 	str.w	r0, [r1, #1572]	; 0x624
 8005584:	f8d1 0620 	ldr.w	r0, [r1, #1568]	; 0x620
 8005588:	f8d1 1624 	ldr.w	r1, [r1, #1572]	; 0x624
 800558c:	f7fc fe98 	bl	80022c0 <_ZN4mem310checkpoint14initialization28_$u7b$$u7b$closure$u7d$$u7d$17hb1a05370965cef9aE>
 8005590:	9a2a      	ldr	r2, [sp, #168]	; 0xa8
 8005592:	4601      	mov	r1, r0
 8005594:	9816      	ldr	r0, [sp, #88]	; 0x58
 8005596:	6809      	ldr	r1, [r1, #0]
 8005598:	f8c2 0640 	str.w	r0, [r2, #1600]	; 0x640
 800559c:	f8c2 1644 	str.w	r1, [r2, #1604]	; 0x644
 80055a0:	f8c2 0648 	str.w	r0, [r2, #1608]	; 0x648
 80055a4:	f001 ff25 	bl	80073f2 <_ZN4core3ptr14write_volatile17h46a673fe162f1e59E>
 80055a8:	9917      	ldr	r1, [sp, #92]	; 0x5c
 80055aa:	9818      	ldr	r0, [sp, #96]	; 0x60
 80055ac:	9178      	str	r1, [sp, #480]	; 0x1e0
 80055ae:	f8cd 0818 	str.w	r0, [sp, #2072]	; 0x818
 80055b2:	f8cd 0820 	str.w	r0, [sp, #2080]	; 0x820
 80055b6:	f8cd 0824 	str.w	r0, [sp, #2084]	; 0x824
 80055ba:	f001 fee3 	bl	8007384 <_ZN4core3ptr13read_volatile17h384c2f472b76a07aE>
 80055be:	f8cd 081c 	str.w	r0, [sp, #2076]	; 0x81c
 80055c2:	f8cd 0810 	str.w	r0, [sp, #2064]	; 0x810
 80055c6:	f8cd 0814 	str.w	r0, [sp, #2068]	; 0x814
 80055ca:	f50d 6001 	add.w	r0, sp, #2064	; 0x810
 80055ce:	f8cd 0808 	str.w	r0, [sp, #2056]	; 0x808
 80055d2:	f60d 0014 	addw	r0, sp, #2068	; 0x814
 80055d6:	f8cd 080c 	str.w	r0, [sp, #2060]	; 0x80c
 80055da:	f8dd 0808 	ldr.w	r0, [sp, #2056]	; 0x808
 80055de:	f8dd 180c 	ldr.w	r1, [sp, #2060]	; 0x80c
 80055e2:	f7fc fe96 	bl	8002312 <_ZN4mem310checkpoint14initialization28_$u7b$$u7b$closure$u7d$$u7d$17h937b7e0b07e5804eE>
 80055e6:	4601      	mov	r1, r0
 80055e8:	9818      	ldr	r0, [sp, #96]	; 0x60
 80055ea:	6809      	ldr	r1, [r1, #0]
 80055ec:	f8cd 0828 	str.w	r0, [sp, #2088]	; 0x828
 80055f0:	f8cd 182c 	str.w	r1, [sp, #2092]	; 0x82c
 80055f4:	f8cd 0830 	str.w	r0, [sp, #2096]	; 0x830
 80055f8:	f001 fefb 	bl	80073f2 <_ZN4core3ptr14write_volatile17h46a673fe162f1e59E>
 80055fc:	9815      	ldr	r0, [sp, #84]	; 0x54
 80055fe:	9917      	ldr	r1, [sp, #92]	; 0x5c
 8005600:	9177      	str	r1, [sp, #476]	; 0x1dc
 8005602:	f8cd 05b0 	str.w	r0, [sp, #1456]	; 0x5b0
 8005606:	f8cd 05b8 	str.w	r0, [sp, #1464]	; 0x5b8
 800560a:	f8cd 05bc 	str.w	r0, [sp, #1468]	; 0x5bc
 800560e:	f001 feb9 	bl	8007384 <_ZN4core3ptr13read_volatile17h384c2f472b76a07aE>
 8005612:	f8cd 05b4 	str.w	r0, [sp, #1460]	; 0x5b4
 8005616:	f8cd 05a8 	str.w	r0, [sp, #1448]	; 0x5a8
 800561a:	f8cd 05ac 	str.w	r0, [sp, #1452]	; 0x5ac
 800561e:	f50d 60b5 	add.w	r0, sp, #1448	; 0x5a8
 8005622:	f8cd 05a0 	str.w	r0, [sp, #1440]	; 0x5a0
 8005626:	f20d 50ac 	addw	r0, sp, #1452	; 0x5ac
 800562a:	f8cd 05a4 	str.w	r0, [sp, #1444]	; 0x5a4
 800562e:	f8dd 05a0 	ldr.w	r0, [sp, #1440]	; 0x5a0
 8005632:	f8dd 15a4 	ldr.w	r1, [sp, #1444]	; 0x5a4
 8005636:	f7fc fe95 	bl	8002364 <_ZN4mem310checkpoint14initialization28_$u7b$$u7b$closure$u7d$$u7d$17h86650e8f1ba57bacE>
 800563a:	4601      	mov	r1, r0
 800563c:	9815      	ldr	r0, [sp, #84]	; 0x54
 800563e:	6809      	ldr	r1, [r1, #0]
 8005640:	f8cd 05c0 	str.w	r0, [sp, #1472]	; 0x5c0
 8005644:	f8cd 15c4 	str.w	r1, [sp, #1476]	; 0x5c4
 8005648:	f8cd 05c8 	str.w	r0, [sp, #1480]	; 0x5c8
 800564c:	f001 fed1 	bl	80073f2 <_ZN4core3ptr14write_volatile17h46a673fe162f1e59E>
 8005650:	9816      	ldr	r0, [sp, #88]	; 0x58
 8005652:	9917      	ldr	r1, [sp, #92]	; 0x5c
 8005654:	9176      	str	r1, [sp, #472]	; 0x1d8
 8005656:	f8cd 0794 	str.w	r0, [sp, #1940]	; 0x794
 800565a:	f8cd 079c 	str.w	r0, [sp, #1948]	; 0x79c
 800565e:	f8cd 07a0 	str.w	r0, [sp, #1952]	; 0x7a0
 8005662:	f001 fe8f 	bl	8007384 <_ZN4core3ptr13read_volatile17h384c2f472b76a07aE>
 8005666:	f8cd 0798 	str.w	r0, [sp, #1944]	; 0x798
 800566a:	f8cd 078c 	str.w	r0, [sp, #1932]	; 0x78c
 800566e:	f8cd 0790 	str.w	r0, [sp, #1936]	; 0x790
 8005672:	f20d 708c 	addw	r0, sp, #1932	; 0x78c
 8005676:	f8cd 0784 	str.w	r0, [sp, #1924]	; 0x784
 800567a:	f50d 60f2 	add.w	r0, sp, #1936	; 0x790
 800567e:	f8cd 0788 	str.w	r0, [sp, #1928]	; 0x788
 8005682:	f8dd 0784 	ldr.w	r0, [sp, #1924]	; 0x784
 8005686:	f8dd 1788 	ldr.w	r1, [sp, #1928]	; 0x788
 800568a:	f7fc fe92 	bl	80023b2 <_ZN4mem310checkpoint14initialization28_$u7b$$u7b$closure$u7d$$u7d$17h0e3ccc06a9cc0236E>
 800568e:	4601      	mov	r1, r0
 8005690:	9816      	ldr	r0, [sp, #88]	; 0x58
 8005692:	6809      	ldr	r1, [r1, #0]
 8005694:	f8cd 07a4 	str.w	r0, [sp, #1956]	; 0x7a4
 8005698:	f8cd 17a8 	str.w	r1, [sp, #1960]	; 0x7a8
 800569c:	f8cd 07ac 	str.w	r0, [sp, #1964]	; 0x7ac
 80056a0:	f001 fea7 	bl	80073f2 <_ZN4core3ptr14write_volatile17h46a673fe162f1e59E>
 80056a4:	9917      	ldr	r1, [sp, #92]	; 0x5c
 80056a6:	9818      	ldr	r0, [sp, #96]	; 0x60
 80056a8:	9175      	str	r1, [sp, #468]	; 0x1d4
 80056aa:	f8cd 0c38 	str.w	r0, [sp, #3128]	; 0xc38
 80056ae:	f8cd 0c40 	str.w	r0, [sp, #3136]	; 0xc40
 80056b2:	f8cd 0c44 	str.w	r0, [sp, #3140]	; 0xc44
 80056b6:	f001 fe65 	bl	8007384 <_ZN4core3ptr13read_volatile17h384c2f472b76a07aE>
 80056ba:	f8cd 0c3c 	str.w	r0, [sp, #3132]	; 0xc3c
 80056be:	f8cd 0c30 	str.w	r0, [sp, #3120]	; 0xc30
 80056c2:	f8cd 0c34 	str.w	r0, [sp, #3124]	; 0xc34
 80056c6:	f50d 6043 	add.w	r0, sp, #3120	; 0xc30
 80056ca:	f8cd 0c28 	str.w	r0, [sp, #3112]	; 0xc28
 80056ce:	f60d 4034 	addw	r0, sp, #3124	; 0xc34
 80056d2:	f8cd 0c2c 	str.w	r0, [sp, #3116]	; 0xc2c
 80056d6:	f8dd 0c28 	ldr.w	r0, [sp, #3112]	; 0xc28
 80056da:	f8dd 1c2c 	ldr.w	r1, [sp, #3116]	; 0xc2c
 80056de:	f7fc fe8f 	bl	8002400 <_ZN4mem310checkpoint14initialization28_$u7b$$u7b$closure$u7d$$u7d$17h905285af514a152bE>
 80056e2:	4601      	mov	r1, r0
 80056e4:	9818      	ldr	r0, [sp, #96]	; 0x60
 80056e6:	6809      	ldr	r1, [r1, #0]
 80056e8:	f8cd 0c48 	str.w	r0, [sp, #3144]	; 0xc48
 80056ec:	f8cd 1c4c 	str.w	r1, [sp, #3148]	; 0xc4c
 80056f0:	f8cd 0c50 	str.w	r0, [sp, #3152]	; 0xc50
 80056f4:	f001 fe7d 	bl	80073f2 <_ZN4core3ptr14write_volatile17h46a673fe162f1e59E>
 80056f8:	981a      	ldr	r0, [sp, #104]	; 0x68
 80056fa:	9a1c      	ldr	r2, [sp, #112]	; 0x70
 80056fc:	992a      	ldr	r1, [sp, #168]	; 0xa8
 80056fe:	9268      	str	r2, [sp, #416]	; 0x1a0
 8005700:	f8c1 0554 	str.w	r0, [r1, #1364]	; 0x554
 8005704:	f8c1 055c 	str.w	r0, [r1, #1372]	; 0x55c
 8005708:	f8c1 0560 	str.w	r0, [r1, #1376]	; 0x560
 800570c:	f001 fe3a 	bl	8007384 <_ZN4core3ptr13read_volatile17h384c2f472b76a07aE>
 8005710:	992a      	ldr	r1, [sp, #168]	; 0xa8
 8005712:	f8c1 0558 	str.w	r0, [r1, #1368]	; 0x558
 8005716:	f8c1 054c 	str.w	r0, [r1, #1356]	; 0x54c
 800571a:	f8c1 0550 	str.w	r0, [r1, #1360]	; 0x550
 800571e:	f10d 0e18 	add.w	lr, sp, #24
 8005722:	f50e 50ab 	add.w	r0, lr, #5472	; 0x1560
 8005726:	f8c1 0544 	str.w	r0, [r1, #1348]	; 0x544
 800572a:	f10d 0e1c 	add.w	lr, sp, #28
 800572e:	f50e 50ab 	add.w	r0, lr, #5472	; 0x1560
 8005732:	f8c1 0548 	str.w	r0, [r1, #1352]	; 0x548
 8005736:	f8d1 0544 	ldr.w	r0, [r1, #1348]	; 0x544
 800573a:	f8d1 1548 	ldr.w	r1, [r1, #1352]	; 0x548
 800573e:	f7fc fe86 	bl	800244e <_ZN4mem310checkpoint14initialization28_$u7b$$u7b$closure$u7d$$u7d$17h7b350c61edb017afE>
 8005742:	9a2a      	ldr	r2, [sp, #168]	; 0xa8
 8005744:	4601      	mov	r1, r0
 8005746:	981a      	ldr	r0, [sp, #104]	; 0x68
 8005748:	6809      	ldr	r1, [r1, #0]
 800574a:	f8c2 0564 	str.w	r0, [r2, #1380]	; 0x564
 800574e:	f8c2 1568 	str.w	r1, [r2, #1384]	; 0x568
 8005752:	f8c2 056c 	str.w	r0, [r2, #1388]	; 0x56c
 8005756:	f001 fe4c 	bl	80073f2 <_ZN4core3ptr14write_volatile17h46a673fe162f1e59E>
 800575a:	9819      	ldr	r0, [sp, #100]	; 0x64
 800575c:	991c      	ldr	r1, [sp, #112]	; 0x70
 800575e:	9167      	str	r1, [sp, #412]	; 0x19c
 8005760:	f8cd 052c 	str.w	r0, [sp, #1324]	; 0x52c
 8005764:	f8cd 0534 	str.w	r0, [sp, #1332]	; 0x534
 8005768:	f8cd 0538 	str.w	r0, [sp, #1336]	; 0x538
 800576c:	f001 fe0a 	bl	8007384 <_ZN4core3ptr13read_volatile17h384c2f472b76a07aE>
 8005770:	f8cd 0530 	str.w	r0, [sp, #1328]	; 0x530
 8005774:	f8cd 0524 	str.w	r0, [sp, #1316]	; 0x524
 8005778:	f8cd 0528 	str.w	r0, [sp, #1320]	; 0x528
 800577c:	f20d 5024 	addw	r0, sp, #1316	; 0x524
 8005780:	f8cd 051c 	str.w	r0, [sp, #1308]	; 0x51c
 8005784:	f50d 60a5 	add.w	r0, sp, #1320	; 0x528
 8005788:	f8cd 0520 	str.w	r0, [sp, #1312]	; 0x520
 800578c:	f8dd 051c 	ldr.w	r0, [sp, #1308]	; 0x51c
 8005790:	f8dd 1520 	ldr.w	r1, [sp, #1312]	; 0x520
 8005794:	f7fc fe84 	bl	80024a0 <_ZN4mem310checkpoint14initialization28_$u7b$$u7b$closure$u7d$$u7d$17h6a7a071b8252c718E>
 8005798:	4601      	mov	r1, r0
 800579a:	9819      	ldr	r0, [sp, #100]	; 0x64
 800579c:	6809      	ldr	r1, [r1, #0]
 800579e:	f8cd 053c 	str.w	r0, [sp, #1340]	; 0x53c
 80057a2:	f8cd 1540 	str.w	r1, [sp, #1344]	; 0x540
 80057a6:	f8cd 0544 	str.w	r0, [sp, #1348]	; 0x544
 80057aa:	f001 fe22 	bl	80073f2 <_ZN4core3ptr14write_volatile17h46a673fe162f1e59E>
 80057ae:	9a1c      	ldr	r2, [sp, #112]	; 0x70
 80057b0:	981d      	ldr	r0, [sp, #116]	; 0x74
 80057b2:	992a      	ldr	r1, [sp, #168]	; 0xa8
 80057b4:	9266      	str	r2, [sp, #408]	; 0x198
 80057b6:	f8c1 0688 	str.w	r0, [r1, #1672]	; 0x688
 80057ba:	f8c1 0690 	str.w	r0, [r1, #1680]	; 0x690
 80057be:	f8c1 0694 	str.w	r0, [r1, #1684]	; 0x694
 80057c2:	f001 fddf 	bl	8007384 <_ZN4core3ptr13read_volatile17h384c2f472b76a07aE>
 80057c6:	992a      	ldr	r1, [sp, #168]	; 0xa8
 80057c8:	f8c1 068c 	str.w	r0, [r1, #1676]	; 0x68c
 80057cc:	f8c1 0680 	str.w	r0, [r1, #1664]	; 0x680
 80057d0:	f8c1 0684 	str.w	r0, [r1, #1668]	; 0x684
 80057d4:	f10d 0e0c 	add.w	lr, sp, #12
 80057d8:	f50e 50b5 	add.w	r0, lr, #5792	; 0x16a0
 80057dc:	f8c1 0678 	str.w	r0, [r1, #1656]	; 0x678
 80057e0:	f10d 0e10 	add.w	lr, sp, #16
 80057e4:	f50e 50b5 	add.w	r0, lr, #5792	; 0x16a0
 80057e8:	f8c1 067c 	str.w	r0, [r1, #1660]	; 0x67c
 80057ec:	f8d1 0678 	ldr.w	r0, [r1, #1656]	; 0x678
 80057f0:	f8d1 167c 	ldr.w	r1, [r1, #1660]	; 0x67c
 80057f4:	f7fc fe79 	bl	80024ea <_ZN4mem310checkpoint14initialization28_$u7b$$u7b$closure$u7d$$u7d$17hda2407c87ecdc79eE>
 80057f8:	9a2a      	ldr	r2, [sp, #168]	; 0xa8
 80057fa:	4601      	mov	r1, r0
 80057fc:	981d      	ldr	r0, [sp, #116]	; 0x74
 80057fe:	6809      	ldr	r1, [r1, #0]
 8005800:	f8c2 0698 	str.w	r0, [r2, #1688]	; 0x698
 8005804:	f8c2 169c 	str.w	r1, [r2, #1692]	; 0x69c
 8005808:	f8c2 06a0 	str.w	r0, [r2, #1696]	; 0x6a0
 800580c:	f001 fdf1 	bl	80073f2 <_ZN4core3ptr14write_volatile17h46a673fe162f1e59E>
 8005810:	981a      	ldr	r0, [sp, #104]	; 0x68
 8005812:	991c      	ldr	r1, [sp, #112]	; 0x70
 8005814:	9165      	str	r1, [sp, #404]	; 0x194
 8005816:	f8cd 0b88 	str.w	r0, [sp, #2952]	; 0xb88
 800581a:	f8cd 0b90 	str.w	r0, [sp, #2960]	; 0xb90
 800581e:	f8cd 0b94 	str.w	r0, [sp, #2964]	; 0xb94
 8005822:	f001 fdaf 	bl	8007384 <_ZN4core3ptr13read_volatile17h384c2f472b76a07aE>
 8005826:	f8cd 0b8c 	str.w	r0, [sp, #2956]	; 0xb8c
 800582a:	f8cd 0b80 	str.w	r0, [sp, #2944]	; 0xb80
 800582e:	f8cd 0b84 	str.w	r0, [sp, #2948]	; 0xb84
 8005832:	f50d 6038 	add.w	r0, sp, #2944	; 0xb80
 8005836:	f8cd 0b78 	str.w	r0, [sp, #2936]	; 0xb78
 800583a:	f60d 3084 	addw	r0, sp, #2948	; 0xb84
 800583e:	f8cd 0b7c 	str.w	r0, [sp, #2940]	; 0xb7c
 8005842:	f8dd 0b78 	ldr.w	r0, [sp, #2936]	; 0xb78
 8005846:	f8dd 1b7c 	ldr.w	r1, [sp, #2940]	; 0xb7c
 800584a:	f7fc fe77 	bl	800253c <_ZN4mem310checkpoint14initialization28_$u7b$$u7b$closure$u7d$$u7d$17hf05a53c2d0268b51E>
 800584e:	4601      	mov	r1, r0
 8005850:	981a      	ldr	r0, [sp, #104]	; 0x68
 8005852:	6809      	ldr	r1, [r1, #0]
 8005854:	f8cd 0b98 	str.w	r0, [sp, #2968]	; 0xb98
 8005858:	f8cd 1b9c 	str.w	r1, [sp, #2972]	; 0xb9c
 800585c:	f8cd 0ba0 	str.w	r0, [sp, #2976]	; 0xba0
 8005860:	f001 fdc7 	bl	80073f2 <_ZN4core3ptr14write_volatile17h46a673fe162f1e59E>
 8005864:	9819      	ldr	r0, [sp, #100]	; 0x64
 8005866:	9a1c      	ldr	r2, [sp, #112]	; 0x70
 8005868:	992a      	ldr	r1, [sp, #168]	; 0xa8
 800586a:	9264      	str	r2, [sp, #400]	; 0x190
 800586c:	f8c1 06b4 	str.w	r0, [r1, #1716]	; 0x6b4
 8005870:	f8c1 06bc 	str.w	r0, [r1, #1724]	; 0x6bc
 8005874:	f8c1 06c0 	str.w	r0, [r1, #1728]	; 0x6c0
 8005878:	f001 fd84 	bl	8007384 <_ZN4core3ptr13read_volatile17h384c2f472b76a07aE>
 800587c:	992a      	ldr	r1, [sp, #168]	; 0xa8
 800587e:	f8c1 06b8 	str.w	r0, [r1, #1720]	; 0x6b8
 8005882:	f8c1 06ac 	str.w	r0, [r1, #1708]	; 0x6ac
 8005886:	f8c1 06b0 	str.w	r0, [r1, #1712]	; 0x6b0
 800588a:	f10d 0e18 	add.w	lr, sp, #24
 800588e:	f50e 50b6 	add.w	r0, lr, #5824	; 0x16c0
 8005892:	f8c1 06a4 	str.w	r0, [r1, #1700]	; 0x6a4
 8005896:	f10d 0e1c 	add.w	lr, sp, #28
 800589a:	f50e 50b6 	add.w	r0, lr, #5824	; 0x16c0
 800589e:	f8c1 06a8 	str.w	r0, [r1, #1704]	; 0x6a8
 80058a2:	f8d1 06a4 	ldr.w	r0, [r1, #1700]	; 0x6a4
 80058a6:	f8d1 16a8 	ldr.w	r1, [r1, #1704]	; 0x6a8
 80058aa:	f7fc fe70 	bl	800258e <_ZN4mem310checkpoint14initialization28_$u7b$$u7b$closure$u7d$$u7d$17h3c20c09523877994E>
 80058ae:	9a2a      	ldr	r2, [sp, #168]	; 0xa8
 80058b0:	4601      	mov	r1, r0
 80058b2:	9819      	ldr	r0, [sp, #100]	; 0x64
 80058b4:	6809      	ldr	r1, [r1, #0]
 80058b6:	f8c2 06c4 	str.w	r0, [r2, #1732]	; 0x6c4
 80058ba:	f8c2 16c8 	str.w	r1, [r2, #1736]	; 0x6c8
 80058be:	f8c2 06cc 	str.w	r0, [r2, #1740]	; 0x6cc
 80058c2:	f001 fd96 	bl	80073f2 <_ZN4core3ptr14write_volatile17h46a673fe162f1e59E>
 80058c6:	991c      	ldr	r1, [sp, #112]	; 0x70
 80058c8:	981d      	ldr	r0, [sp, #116]	; 0x74
 80058ca:	9163      	str	r1, [sp, #396]	; 0x18c
 80058cc:	f8cd 0f7c 	str.w	r0, [sp, #3964]	; 0xf7c
 80058d0:	f8cd 0f84 	str.w	r0, [sp, #3972]	; 0xf84
 80058d4:	f8cd 0f88 	str.w	r0, [sp, #3976]	; 0xf88
 80058d8:	f001 fd54 	bl	8007384 <_ZN4core3ptr13read_volatile17h384c2f472b76a07aE>
 80058dc:	f8cd 0f80 	str.w	r0, [sp, #3968]	; 0xf80
 80058e0:	f8cd 0f74 	str.w	r0, [sp, #3956]	; 0xf74
 80058e4:	f8cd 0f78 	str.w	r0, [sp, #3960]	; 0xf78
 80058e8:	f60d 7074 	addw	r0, sp, #3956	; 0xf74
 80058ec:	f8cd 0f6c 	str.w	r0, [sp, #3948]	; 0xf6c
 80058f0:	f60d 7078 	addw	r0, sp, #3960	; 0xf78
 80058f4:	f8cd 0f70 	str.w	r0, [sp, #3952]	; 0xf70
 80058f8:	f8dd 0f6c 	ldr.w	r0, [sp, #3948]	; 0xf6c
 80058fc:	f8dd 1f70 	ldr.w	r1, [sp, #3952]	; 0xf70
 8005900:	f7fc fe6e 	bl	80025e0 <_ZN4mem310checkpoint14initialization28_$u7b$$u7b$closure$u7d$$u7d$17hb8c9ee77fc8b3b66E>
 8005904:	4601      	mov	r1, r0
 8005906:	981d      	ldr	r0, [sp, #116]	; 0x74
 8005908:	6809      	ldr	r1, [r1, #0]
 800590a:	f8cd 0f8c 	str.w	r0, [sp, #3980]	; 0xf8c
 800590e:	f8cd 1f90 	str.w	r1, [sp, #3984]	; 0xf90
 8005912:	f8cd 0f94 	str.w	r0, [sp, #3988]	; 0xf94
 8005916:	f001 fd6c 	bl	80073f2 <_ZN4core3ptr14write_volatile17h46a673fe162f1e59E>
 800591a:	981a      	ldr	r0, [sp, #104]	; 0x68
 800591c:	9a1c      	ldr	r2, [sp, #112]	; 0x70
 800591e:	992a      	ldr	r1, [sp, #168]	; 0xa8
 8005920:	9262      	str	r2, [sp, #392]	; 0x188
 8005922:	f8c1 044c 	str.w	r0, [r1, #1100]	; 0x44c
 8005926:	f8c1 0454 	str.w	r0, [r1, #1108]	; 0x454
 800592a:	f8c1 0458 	str.w	r0, [r1, #1112]	; 0x458
 800592e:	f001 fd29 	bl	8007384 <_ZN4core3ptr13read_volatile17h384c2f472b76a07aE>
 8005932:	992a      	ldr	r1, [sp, #168]	; 0xa8
 8005934:	f8c1 0450 	str.w	r0, [r1, #1104]	; 0x450
 8005938:	f8c1 0444 	str.w	r0, [r1, #1092]	; 0x444
 800593c:	f8c1 0448 	str.w	r0, [r1, #1096]	; 0x448
 8005940:	f10d 0e10 	add.w	lr, sp, #16
 8005944:	f50e 50a3 	add.w	r0, lr, #5216	; 0x1460
 8005948:	f8c1 043c 	str.w	r0, [r1, #1084]	; 0x43c
 800594c:	f10d 0e14 	add.w	lr, sp, #20
 8005950:	f50e 50a3 	add.w	r0, lr, #5216	; 0x1460
 8005954:	f8c1 0440 	str.w	r0, [r1, #1088]	; 0x440
 8005958:	f8d1 043c 	ldr.w	r0, [r1, #1084]	; 0x43c
 800595c:	f8d1 1440 	ldr.w	r1, [r1, #1088]	; 0x440
 8005960:	f7fc fe67 	bl	8002632 <_ZN4mem310checkpoint14initialization28_$u7b$$u7b$closure$u7d$$u7d$17h8648f24e85d6b8fcE>
 8005964:	9a2a      	ldr	r2, [sp, #168]	; 0xa8
 8005966:	4601      	mov	r1, r0
 8005968:	981a      	ldr	r0, [sp, #104]	; 0x68
 800596a:	6809      	ldr	r1, [r1, #0]
 800596c:	f8c2 045c 	str.w	r0, [r2, #1116]	; 0x45c
 8005970:	f8c2 1460 	str.w	r1, [r2, #1120]	; 0x460
 8005974:	f8c2 0464 	str.w	r0, [r2, #1124]	; 0x464
 8005978:	f001 fd3b 	bl	80073f2 <_ZN4core3ptr14write_volatile17h46a673fe162f1e59E>
 800597c:	9819      	ldr	r0, [sp, #100]	; 0x64
 800597e:	9a1c      	ldr	r2, [sp, #112]	; 0x70
 8005980:	992a      	ldr	r1, [sp, #168]	; 0xa8
 8005982:	9261      	str	r2, [sp, #388]	; 0x184
 8005984:	f8c1 0294 	str.w	r0, [r1, #660]	; 0x294
 8005988:	f8c1 029c 	str.w	r0, [r1, #668]	; 0x29c
 800598c:	f8c1 02a0 	str.w	r0, [r1, #672]	; 0x2a0
 8005990:	f001 fcf8 	bl	8007384 <_ZN4core3ptr13read_volatile17h384c2f472b76a07aE>
 8005994:	992a      	ldr	r1, [sp, #168]	; 0xa8
 8005996:	f8c1 0298 	str.w	r0, [r1, #664]	; 0x298
 800599a:	f8c1 028c 	str.w	r0, [r1, #652]	; 0x28c
 800599e:	f8c1 0290 	str.w	r0, [r1, #656]	; 0x290
 80059a2:	f10d 0e18 	add.w	lr, sp, #24
 80059a6:	f50e 5095 	add.w	r0, lr, #4768	; 0x12a0
 80059aa:	f8c1 0284 	str.w	r0, [r1, #644]	; 0x284
 80059ae:	f10d 0e1c 	add.w	lr, sp, #28
 80059b2:	f50e 5095 	add.w	r0, lr, #4768	; 0x12a0
 80059b6:	f8c1 0288 	str.w	r0, [r1, #648]	; 0x288
 80059ba:	f8d1 0284 	ldr.w	r0, [r1, #644]	; 0x284
 80059be:	f8d1 1288 	ldr.w	r1, [r1, #648]	; 0x288
 80059c2:	f7fc fe5f 	bl	8002684 <_ZN4mem310checkpoint14initialization28_$u7b$$u7b$closure$u7d$$u7d$17hf02cc16302011b8fE>
 80059c6:	9a2a      	ldr	r2, [sp, #168]	; 0xa8
 80059c8:	4601      	mov	r1, r0
 80059ca:	9819      	ldr	r0, [sp, #100]	; 0x64
 80059cc:	6809      	ldr	r1, [r1, #0]
 80059ce:	f8c2 02a4 	str.w	r0, [r2, #676]	; 0x2a4
 80059d2:	f8c2 12a8 	str.w	r1, [r2, #680]	; 0x2a8
 80059d6:	f8c2 02ac 	str.w	r0, [r2, #684]	; 0x2ac
 80059da:	f001 fd0a 	bl	80073f2 <_ZN4core3ptr14write_volatile17h46a673fe162f1e59E>
 80059de:	991c      	ldr	r1, [sp, #112]	; 0x70
 80059e0:	981d      	ldr	r0, [sp, #116]	; 0x74
 80059e2:	9160      	str	r1, [sp, #384]	; 0x180
 80059e4:	f8cd 0b30 	str.w	r0, [sp, #2864]	; 0xb30
 80059e8:	f8cd 0b38 	str.w	r0, [sp, #2872]	; 0xb38
 80059ec:	f8cd 0b3c 	str.w	r0, [sp, #2876]	; 0xb3c
 80059f0:	f001 fcc8 	bl	8007384 <_ZN4core3ptr13read_volatile17h384c2f472b76a07aE>
 80059f4:	f8cd 0b34 	str.w	r0, [sp, #2868]	; 0xb34
 80059f8:	f8cd 0b28 	str.w	r0, [sp, #2856]	; 0xb28
 80059fc:	f8cd 0b2c 	str.w	r0, [sp, #2860]	; 0xb2c
 8005a00:	f60d 3028 	addw	r0, sp, #2856	; 0xb28
 8005a04:	f8cd 0b20 	str.w	r0, [sp, #2848]	; 0xb20
 8005a08:	f60d 302c 	addw	r0, sp, #2860	; 0xb2c
 8005a0c:	f8cd 0b24 	str.w	r0, [sp, #2852]	; 0xb24
 8005a10:	f8dd 0b20 	ldr.w	r0, [sp, #2848]	; 0xb20
 8005a14:	f8dd 1b24 	ldr.w	r1, [sp, #2852]	; 0xb24
 8005a18:	f7fc fe5d 	bl	80026d6 <_ZN4mem310checkpoint14initialization28_$u7b$$u7b$closure$u7d$$u7d$17he21f9074289f3466E>
 8005a1c:	4601      	mov	r1, r0
 8005a1e:	981d      	ldr	r0, [sp, #116]	; 0x74
 8005a20:	6809      	ldr	r1, [r1, #0]
 8005a22:	f8cd 0b40 	str.w	r0, [sp, #2880]	; 0xb40
 8005a26:	f8cd 1b44 	str.w	r1, [sp, #2884]	; 0xb44
 8005a2a:	f8cd 0b48 	str.w	r0, [sp, #2888]	; 0xb48
 8005a2e:	f001 fce0 	bl	80073f2 <_ZN4core3ptr14write_volatile17h46a673fe162f1e59E>
 8005a32:	981a      	ldr	r0, [sp, #104]	; 0x68
 8005a34:	991c      	ldr	r1, [sp, #112]	; 0x70
 8005a36:	915f      	str	r1, [sp, #380]	; 0x17c
 8005a38:	f847 0c4c 	str.w	r0, [r7, #-76]
 8005a3c:	f847 0c44 	str.w	r0, [r7, #-68]
 8005a40:	f847 0c40 	str.w	r0, [r7, #-64]
 8005a44:	f001 fc9e 	bl	8007384 <_ZN4core3ptr13read_volatile17h384c2f472b76a07aE>
 8005a48:	f847 0c48 	str.w	r0, [r7, #-72]
 8005a4c:	f847 0c54 	str.w	r0, [r7, #-84]
 8005a50:	f847 0c50 	str.w	r0, [r7, #-80]
 8005a54:	f1a7 0054 	sub.w	r0, r7, #84	; 0x54
 8005a58:	f847 0c5c 	str.w	r0, [r7, #-92]
 8005a5c:	f1a7 0050 	sub.w	r0, r7, #80	; 0x50
 8005a60:	f847 0c58 	str.w	r0, [r7, #-88]
 8005a64:	f857 0c5c 	ldr.w	r0, [r7, #-92]
 8005a68:	f857 1c58 	ldr.w	r1, [r7, #-88]
 8005a6c:	f7fc fe5c 	bl	8002728 <_ZN4mem310checkpoint14initialization28_$u7b$$u7b$closure$u7d$$u7d$17h44ab9af3abf8bb56E>
 8005a70:	4601      	mov	r1, r0
 8005a72:	981a      	ldr	r0, [sp, #104]	; 0x68
 8005a74:	6809      	ldr	r1, [r1, #0]
 8005a76:	f847 0c3c 	str.w	r0, [r7, #-60]
 8005a7a:	f847 1c38 	str.w	r1, [r7, #-56]
 8005a7e:	f847 0c34 	str.w	r0, [r7, #-52]
 8005a82:	f001 fcb6 	bl	80073f2 <_ZN4core3ptr14write_volatile17h46a673fe162f1e59E>
 8005a86:	981b      	ldr	r0, [sp, #108]	; 0x6c
 8005a88:	9a1c      	ldr	r2, [sp, #112]	; 0x70
 8005a8a:	992a      	ldr	r1, [sp, #168]	; 0xa8
 8005a8c:	925e      	str	r2, [sp, #376]	; 0x178
 8005a8e:	f8c1 0528 	str.w	r0, [r1, #1320]	; 0x528
 8005a92:	f8c1 0530 	str.w	r0, [r1, #1328]	; 0x530
 8005a96:	f8c1 0534 	str.w	r0, [r1, #1332]	; 0x534
 8005a9a:	f001 fc73 	bl	8007384 <_ZN4core3ptr13read_volatile17h384c2f472b76a07aE>
 8005a9e:	992a      	ldr	r1, [sp, #168]	; 0xa8
 8005aa0:	f8c1 052c 	str.w	r0, [r1, #1324]	; 0x52c
 8005aa4:	f8c1 0520 	str.w	r0, [r1, #1312]	; 0x520
 8005aa8:	f8c1 0524 	str.w	r0, [r1, #1316]	; 0x524
 8005aac:	f10d 0e0c 	add.w	lr, sp, #12
 8005ab0:	f50e 50aa 	add.w	r0, lr, #5440	; 0x1540
 8005ab4:	f8c1 0518 	str.w	r0, [r1, #1304]	; 0x518
 8005ab8:	f10d 0e10 	add.w	lr, sp, #16
 8005abc:	f50e 50aa 	add.w	r0, lr, #5440	; 0x1540
 8005ac0:	f8c1 051c 	str.w	r0, [r1, #1308]	; 0x51c
 8005ac4:	f8d1 0518 	ldr.w	r0, [r1, #1304]	; 0x518
 8005ac8:	f8d1 151c 	ldr.w	r1, [r1, #1308]	; 0x51c
 8005acc:	f7fc fe55 	bl	800277a <_ZN4mem310checkpoint14initialization28_$u7b$$u7b$closure$u7d$$u7d$17h12d82e622c2f7334E>
 8005ad0:	9a2a      	ldr	r2, [sp, #168]	; 0xa8
 8005ad2:	4601      	mov	r1, r0
 8005ad4:	981b      	ldr	r0, [sp, #108]	; 0x6c
 8005ad6:	6809      	ldr	r1, [r1, #0]
 8005ad8:	f8c2 0538 	str.w	r0, [r2, #1336]	; 0x538
 8005adc:	f8c2 153c 	str.w	r1, [r2, #1340]	; 0x53c
 8005ae0:	f8c2 0540 	str.w	r0, [r2, #1344]	; 0x540
 8005ae4:	f001 fc85 	bl	80073f2 <_ZN4core3ptr14write_volatile17h46a673fe162f1e59E>
 8005ae8:	9a1c      	ldr	r2, [sp, #112]	; 0x70
 8005aea:	981d      	ldr	r0, [sp, #116]	; 0x74
 8005aec:	992a      	ldr	r1, [sp, #168]	; 0xa8
 8005aee:	925d      	str	r2, [sp, #372]	; 0x174
 8005af0:	f8c1 02ec 	str.w	r0, [r1, #748]	; 0x2ec
 8005af4:	f8c1 02f4 	str.w	r0, [r1, #756]	; 0x2f4
 8005af8:	f8c1 02f8 	str.w	r0, [r1, #760]	; 0x2f8
 8005afc:	f001 fc42 	bl	8007384 <_ZN4core3ptr13read_volatile17h384c2f472b76a07aE>
 8005b00:	992a      	ldr	r1, [sp, #168]	; 0xa8
 8005b02:	f8c1 02f0 	str.w	r0, [r1, #752]	; 0x2f0
 8005b06:	f8c1 02e4 	str.w	r0, [r1, #740]	; 0x2e4
 8005b0a:	f8c1 02e8 	str.w	r0, [r1, #744]	; 0x2e8
 8005b0e:	f10d 0e10 	add.w	lr, sp, #16
 8005b12:	f50e 5098 	add.w	r0, lr, #4864	; 0x1300
 8005b16:	f8c1 02dc 	str.w	r0, [r1, #732]	; 0x2dc
 8005b1a:	f10d 0e14 	add.w	lr, sp, #20
 8005b1e:	f50e 5098 	add.w	r0, lr, #4864	; 0x1300
 8005b22:	f8c1 02e0 	str.w	r0, [r1, #736]	; 0x2e0
 8005b26:	f8d1 02dc 	ldr.w	r0, [r1, #732]	; 0x2dc
 8005b2a:	f8d1 12e0 	ldr.w	r1, [r1, #736]	; 0x2e0
 8005b2e:	f7fc fe4b 	bl	80027c8 <_ZN4mem310checkpoint14initialization28_$u7b$$u7b$closure$u7d$$u7d$17h73118fbcfe29b49fE>
 8005b32:	9a2a      	ldr	r2, [sp, #168]	; 0xa8
 8005b34:	4601      	mov	r1, r0
 8005b36:	981d      	ldr	r0, [sp, #116]	; 0x74
 8005b38:	6809      	ldr	r1, [r1, #0]
 8005b3a:	f8c2 02fc 	str.w	r0, [r2, #764]	; 0x2fc
 8005b3e:	f8c2 1300 	str.w	r1, [r2, #768]	; 0x300
 8005b42:	f8c2 0304 	str.w	r0, [r2, #772]	; 0x304
 8005b46:	f001 fc54 	bl	80073f2 <_ZN4core3ptr14write_volatile17h46a673fe162f1e59E>
 8005b4a:	981a      	ldr	r0, [sp, #104]	; 0x68
 8005b4c:	991c      	ldr	r1, [sp, #112]	; 0x70
 8005b4e:	915c      	str	r1, [sp, #368]	; 0x170
 8005b50:	f8cd 0608 	str.w	r0, [sp, #1544]	; 0x608
 8005b54:	f8cd 0610 	str.w	r0, [sp, #1552]	; 0x610
 8005b58:	f8cd 0614 	str.w	r0, [sp, #1556]	; 0x614
 8005b5c:	f001 fc12 	bl	8007384 <_ZN4core3ptr13read_volatile17h384c2f472b76a07aE>
 8005b60:	f8cd 060c 	str.w	r0, [sp, #1548]	; 0x60c
 8005b64:	f8cd 0600 	str.w	r0, [sp, #1536]	; 0x600
 8005b68:	f8cd 0604 	str.w	r0, [sp, #1540]	; 0x604
 8005b6c:	f50d 60c0 	add.w	r0, sp, #1536	; 0x600
 8005b70:	f8cd 05f8 	str.w	r0, [sp, #1528]	; 0x5f8
 8005b74:	f20d 6004 	addw	r0, sp, #1540	; 0x604
 8005b78:	f8cd 05fc 	str.w	r0, [sp, #1532]	; 0x5fc
 8005b7c:	f8dd 05f8 	ldr.w	r0, [sp, #1528]	; 0x5f8
 8005b80:	f8dd 15fc 	ldr.w	r1, [sp, #1532]	; 0x5fc
 8005b84:	f7fc fe49 	bl	800281a <_ZN4mem310checkpoint14initialization28_$u7b$$u7b$closure$u7d$$u7d$17haf2e151fcd400ae3E>
 8005b88:	4601      	mov	r1, r0
 8005b8a:	981a      	ldr	r0, [sp, #104]	; 0x68
 8005b8c:	6809      	ldr	r1, [r1, #0]
 8005b8e:	f8cd 0618 	str.w	r0, [sp, #1560]	; 0x618
 8005b92:	f8cd 161c 	str.w	r1, [sp, #1564]	; 0x61c
 8005b96:	f8cd 0620 	str.w	r0, [sp, #1568]	; 0x620
 8005b9a:	f001 fc2a 	bl	80073f2 <_ZN4core3ptr14write_volatile17h46a673fe162f1e59E>
 8005b9e:	981b      	ldr	r0, [sp, #108]	; 0x6c
 8005ba0:	991c      	ldr	r1, [sp, #112]	; 0x70
 8005ba2:	915b      	str	r1, [sp, #364]	; 0x16c
 8005ba4:	f8cd 0e1c 	str.w	r0, [sp, #3612]	; 0xe1c
 8005ba8:	f8cd 0e24 	str.w	r0, [sp, #3620]	; 0xe24
 8005bac:	f8cd 0e28 	str.w	r0, [sp, #3624]	; 0xe28
 8005bb0:	f001 fbe8 	bl	8007384 <_ZN4core3ptr13read_volatile17h384c2f472b76a07aE>
 8005bb4:	f8cd 0e20 	str.w	r0, [sp, #3616]	; 0xe20
 8005bb8:	f8cd 0e14 	str.w	r0, [sp, #3604]	; 0xe14
 8005bbc:	f8cd 0e18 	str.w	r0, [sp, #3608]	; 0xe18
 8005bc0:	f60d 6014 	addw	r0, sp, #3604	; 0xe14
 8005bc4:	f8cd 0e0c 	str.w	r0, [sp, #3596]	; 0xe0c
 8005bc8:	f60d 6018 	addw	r0, sp, #3608	; 0xe18
 8005bcc:	f8cd 0e10 	str.w	r0, [sp, #3600]	; 0xe10
 8005bd0:	f8dd 0e0c 	ldr.w	r0, [sp, #3596]	; 0xe0c
 8005bd4:	f8dd 1e10 	ldr.w	r1, [sp, #3600]	; 0xe10
 8005bd8:	f7fc fe48 	bl	800286c <_ZN4mem310checkpoint14initialization28_$u7b$$u7b$closure$u7d$$u7d$17h686aa5e5b45c9371E>
 8005bdc:	4601      	mov	r1, r0
 8005bde:	981b      	ldr	r0, [sp, #108]	; 0x6c
 8005be0:	6809      	ldr	r1, [r1, #0]
 8005be2:	f8cd 0e2c 	str.w	r0, [sp, #3628]	; 0xe2c
 8005be6:	f8cd 1e30 	str.w	r1, [sp, #3632]	; 0xe30
 8005bea:	f8cd 0e34 	str.w	r0, [sp, #3636]	; 0xe34
 8005bee:	f001 fc00 	bl	80073f2 <_ZN4core3ptr14write_volatile17h46a673fe162f1e59E>
 8005bf2:	9a1c      	ldr	r2, [sp, #112]	; 0x70
 8005bf4:	981d      	ldr	r0, [sp, #116]	; 0x74
 8005bf6:	992a      	ldr	r1, [sp, #168]	; 0xa8
 8005bf8:	925a      	str	r2, [sp, #360]	; 0x168
 8005bfa:	f8c1 0604 	str.w	r0, [r1, #1540]	; 0x604
 8005bfe:	f8c1 060c 	str.w	r0, [r1, #1548]	; 0x60c
 8005c02:	f8c1 0610 	str.w	r0, [r1, #1552]	; 0x610
 8005c06:	f001 fbbd 	bl	8007384 <_ZN4core3ptr13read_volatile17h384c2f472b76a07aE>
 8005c0a:	992a      	ldr	r1, [sp, #168]	; 0xa8
 8005c0c:	f8c1 0608 	str.w	r0, [r1, #1544]	; 0x608
 8005c10:	f8c1 05fc 	str.w	r0, [r1, #1532]	; 0x5fc
 8005c14:	f8c1 0600 	str.w	r0, [r1, #1536]	; 0x600
 8005c18:	f10d 0e08 	add.w	lr, sp, #8
 8005c1c:	f50e 50b1 	add.w	r0, lr, #5664	; 0x1620
 8005c20:	f8c1 05f4 	str.w	r0, [r1, #1524]	; 0x5f4
 8005c24:	f10d 0e0c 	add.w	lr, sp, #12
 8005c28:	f50e 50b1 	add.w	r0, lr, #5664	; 0x1620
 8005c2c:	f8c1 05f8 	str.w	r0, [r1, #1528]	; 0x5f8
 8005c30:	f8d1 05f4 	ldr.w	r0, [r1, #1524]	; 0x5f4
 8005c34:	f8d1 15f8 	ldr.w	r1, [r1, #1528]	; 0x5f8
 8005c38:	f7fc fe41 	bl	80028be <_ZN4mem310checkpoint14initialization28_$u7b$$u7b$closure$u7d$$u7d$17h856c22368f6e0758E>
 8005c3c:	9a2a      	ldr	r2, [sp, #168]	; 0xa8
 8005c3e:	4601      	mov	r1, r0
 8005c40:	981d      	ldr	r0, [sp, #116]	; 0x74
 8005c42:	6809      	ldr	r1, [r1, #0]
 8005c44:	f8c2 0614 	str.w	r0, [r2, #1556]	; 0x614
 8005c48:	f8c2 1618 	str.w	r1, [r2, #1560]	; 0x618
 8005c4c:	f8c2 061c 	str.w	r0, [r2, #1564]	; 0x61c
 8005c50:	f001 fbcf 	bl	80073f2 <_ZN4core3ptr14write_volatile17h46a673fe162f1e59E>
 8005c54:	981a      	ldr	r0, [sp, #104]	; 0x68
 8005c56:	991c      	ldr	r1, [sp, #112]	; 0x70
 8005c58:	9159      	str	r1, [sp, #356]	; 0x164
 8005c5a:	90fe      	str	r0, [sp, #1016]	; 0x3f8
 8005c5c:	f8cd 0400 	str.w	r0, [sp, #1024]	; 0x400
 8005c60:	f8cd 0404 	str.w	r0, [sp, #1028]	; 0x404
 8005c64:	f001 fb8e 	bl	8007384 <_ZN4core3ptr13read_volatile17h384c2f472b76a07aE>
 8005c68:	90ff      	str	r0, [sp, #1020]	; 0x3fc
 8005c6a:	90fc      	str	r0, [sp, #1008]	; 0x3f0
 8005c6c:	90fd      	str	r0, [sp, #1012]	; 0x3f4
 8005c6e:	a8fc      	add	r0, sp, #1008	; 0x3f0
 8005c70:	90fa      	str	r0, [sp, #1000]	; 0x3e8
 8005c72:	a8fd      	add	r0, sp, #1012	; 0x3f4
 8005c74:	90fb      	str	r0, [sp, #1004]	; 0x3ec
 8005c76:	98fa      	ldr	r0, [sp, #1000]	; 0x3e8
 8005c78:	99fb      	ldr	r1, [sp, #1004]	; 0x3ec
 8005c7a:	f7fc fe49 	bl	8002910 <_ZN4mem310checkpoint14initialization28_$u7b$$u7b$closure$u7d$$u7d$17h8109e2c7166077f9E>
 8005c7e:	4601      	mov	r1, r0
 8005c80:	981a      	ldr	r0, [sp, #104]	; 0x68
 8005c82:	6809      	ldr	r1, [r1, #0]
 8005c84:	f8cd 0408 	str.w	r0, [sp, #1032]	; 0x408
 8005c88:	f8cd 140c 	str.w	r1, [sp, #1036]	; 0x40c
 8005c8c:	f8cd 0410 	str.w	r0, [sp, #1040]	; 0x410
 8005c90:	f001 fbaf 	bl	80073f2 <_ZN4core3ptr14write_volatile17h46a673fe162f1e59E>
 8005c94:	981b      	ldr	r0, [sp, #108]	; 0x6c
 8005c96:	991c      	ldr	r1, [sp, #112]	; 0x70
 8005c98:	9158      	str	r1, [sp, #352]	; 0x160
 8005c9a:	f8cd 0ce8 	str.w	r0, [sp, #3304]	; 0xce8
 8005c9e:	f8cd 0cf0 	str.w	r0, [sp, #3312]	; 0xcf0
 8005ca2:	f8cd 0cf4 	str.w	r0, [sp, #3316]	; 0xcf4
 8005ca6:	f001 fb6d 	bl	8007384 <_ZN4core3ptr13read_volatile17h384c2f472b76a07aE>
 8005caa:	f8cd 0cec 	str.w	r0, [sp, #3308]	; 0xcec
 8005cae:	f8cd 0ce0 	str.w	r0, [sp, #3296]	; 0xce0
 8005cb2:	f8cd 0ce4 	str.w	r0, [sp, #3300]	; 0xce4
 8005cb6:	f50d 604e 	add.w	r0, sp, #3296	; 0xce0
 8005cba:	f8cd 0cd8 	str.w	r0, [sp, #3288]	; 0xcd8
 8005cbe:	f60d 40e4 	addw	r0, sp, #3300	; 0xce4
 8005cc2:	f8cd 0cdc 	str.w	r0, [sp, #3292]	; 0xcdc
 8005cc6:	f8dd 0cd8 	ldr.w	r0, [sp, #3288]	; 0xcd8
 8005cca:	f8dd 1cdc 	ldr.w	r1, [sp, #3292]	; 0xcdc
 8005cce:	f7fc fe48 	bl	8002962 <_ZN4mem310checkpoint14initialization28_$u7b$$u7b$closure$u7d$$u7d$17hd8262cab9d1cedc7E>
 8005cd2:	4601      	mov	r1, r0
 8005cd4:	981b      	ldr	r0, [sp, #108]	; 0x6c
 8005cd6:	6809      	ldr	r1, [r1, #0]
 8005cd8:	f8cd 0cf8 	str.w	r0, [sp, #3320]	; 0xcf8
 8005cdc:	f8cd 1cfc 	str.w	r1, [sp, #3324]	; 0xcfc
 8005ce0:	f8cd 0d00 	str.w	r0, [sp, #3328]	; 0xd00
 8005ce4:	f001 fb85 	bl	80073f2 <_ZN4core3ptr14write_volatile17h46a673fe162f1e59E>
 8005ce8:	991c      	ldr	r1, [sp, #112]	; 0x70
 8005cea:	981d      	ldr	r0, [sp, #116]	; 0x74
 8005cec:	9157      	str	r1, [sp, #348]	; 0x15c
 8005cee:	f8cd 0500 	str.w	r0, [sp, #1280]	; 0x500
 8005cf2:	f8cd 0508 	str.w	r0, [sp, #1288]	; 0x508
 8005cf6:	f8cd 050c 	str.w	r0, [sp, #1292]	; 0x50c
 8005cfa:	f001 fb43 	bl	8007384 <_ZN4core3ptr13read_volatile17h384c2f472b76a07aE>
 8005cfe:	f8cd 0504 	str.w	r0, [sp, #1284]	; 0x504
 8005d02:	f8cd 04f8 	str.w	r0, [sp, #1272]	; 0x4f8
 8005d06:	f8cd 04fc 	str.w	r0, [sp, #1276]	; 0x4fc
 8005d0a:	f50d 609f 	add.w	r0, sp, #1272	; 0x4f8
 8005d0e:	f8cd 04f0 	str.w	r0, [sp, #1264]	; 0x4f0
 8005d12:	f20d 40fc 	addw	r0, sp, #1276	; 0x4fc
 8005d16:	f8cd 04f4 	str.w	r0, [sp, #1268]	; 0x4f4
 8005d1a:	f8dd 04f0 	ldr.w	r0, [sp, #1264]	; 0x4f0
 8005d1e:	f8dd 14f4 	ldr.w	r1, [sp, #1268]	; 0x4f4
 8005d22:	f7fc fe47 	bl	80029b4 <_ZN4mem310checkpoint14initialization28_$u7b$$u7b$closure$u7d$$u7d$17h8fcaa71546cba81cE>
 8005d26:	4601      	mov	r1, r0
 8005d28:	981d      	ldr	r0, [sp, #116]	; 0x74
 8005d2a:	6809      	ldr	r1, [r1, #0]
 8005d2c:	f8cd 0510 	str.w	r0, [sp, #1296]	; 0x510
 8005d30:	f8cd 1514 	str.w	r1, [sp, #1300]	; 0x514
 8005d34:	f8cd 0518 	str.w	r0, [sp, #1304]	; 0x518
 8005d38:	f001 fb5b 	bl	80073f2 <_ZN4core3ptr14write_volatile17h46a673fe162f1e59E>
 8005d3c:	981f      	ldr	r0, [sp, #124]	; 0x7c
 8005d3e:	9039      	str	r0, [sp, #228]	; 0xe4
 8005d40:	f240 4000 	movw	r0, #1024	; 0x400
 8005d44:	f2ca 0000 	movt	r0, #40960	; 0xa000
 8005d48:	901e      	str	r0, [sp, #120]	; 0x78
 8005d4a:	f8cd 08f4 	str.w	r0, [sp, #2292]	; 0x8f4
 8005d4e:	f8cd 08fc 	str.w	r0, [sp, #2300]	; 0x8fc
 8005d52:	f8cd 0900 	str.w	r0, [sp, #2304]	; 0x900
 8005d56:	f001 fb15 	bl	8007384 <_ZN4core3ptr13read_volatile17h384c2f472b76a07aE>
 8005d5a:	f8cd 08f8 	str.w	r0, [sp, #2296]	; 0x8f8
 8005d5e:	f8cd 08ec 	str.w	r0, [sp, #2284]	; 0x8ec
 8005d62:	f8cd 08f0 	str.w	r0, [sp, #2288]	; 0x8f0
 8005d66:	f60d 00ec 	addw	r0, sp, #2284	; 0x8ec
 8005d6a:	f8cd 08e4 	str.w	r0, [sp, #2276]	; 0x8e4
 8005d6e:	f50d 600f 	add.w	r0, sp, #2288	; 0x8f0
 8005d72:	f8cd 08e8 	str.w	r0, [sp, #2280]	; 0x8e8
 8005d76:	f8dd 08e4 	ldr.w	r0, [sp, #2276]	; 0x8e4
 8005d7a:	f8dd 18e8 	ldr.w	r1, [sp, #2280]	; 0x8e8
 8005d7e:	f7fc fe42 	bl	8002a06 <_ZN4mem310checkpoint14initialization28_$u7b$$u7b$closure$u7d$$u7d$17hc4a0e4a861557224E>
 8005d82:	4601      	mov	r1, r0
 8005d84:	981e      	ldr	r0, [sp, #120]	; 0x78
 8005d86:	6809      	ldr	r1, [r1, #0]
 8005d88:	f8cd 0904 	str.w	r0, [sp, #2308]	; 0x904
 8005d8c:	f8cd 1908 	str.w	r1, [sp, #2312]	; 0x908
 8005d90:	f8cd 090c 	str.w	r0, [sp, #2316]	; 0x90c
 8005d94:	f001 fb2d 	bl	80073f2 <_ZN4core3ptr14write_volatile17h46a673fe162f1e59E>
 8005d98:	981f      	ldr	r0, [sp, #124]	; 0x7c
 8005d9a:	992a      	ldr	r1, [sp, #168]	; 0xa8
 8005d9c:	9038      	str	r0, [sp, #224]	; 0xe0
 8005d9e:	f240 4004 	movw	r0, #1028	; 0x404
 8005da2:	f2ca 0000 	movt	r0, #40960	; 0xa000
 8005da6:	9020      	str	r0, [sp, #128]	; 0x80
 8005da8:	f8c1 05ac 	str.w	r0, [r1, #1452]	; 0x5ac
 8005dac:	f8c1 05b4 	str.w	r0, [r1, #1460]	; 0x5b4
 8005db0:	f8c1 05b8 	str.w	r0, [r1, #1464]	; 0x5b8
 8005db4:	f001 fae6 	bl	8007384 <_ZN4core3ptr13read_volatile17h384c2f472b76a07aE>
 8005db8:	992a      	ldr	r1, [sp, #168]	; 0xa8
 8005dba:	f8c1 05b0 	str.w	r0, [r1, #1456]	; 0x5b0
 8005dbe:	f8c1 05a4 	str.w	r0, [r1, #1444]	; 0x5a4
 8005dc2:	f8c1 05a8 	str.w	r0, [r1, #1448]	; 0x5a8
 8005dc6:	f10d 0e10 	add.w	lr, sp, #16
 8005dca:	f50e 50ae 	add.w	r0, lr, #5568	; 0x15c0
 8005dce:	f8c1 059c 	str.w	r0, [r1, #1436]	; 0x59c
 8005dd2:	f10d 0e14 	add.w	lr, sp, #20
 8005dd6:	f50e 50ae 	add.w	r0, lr, #5568	; 0x15c0
 8005dda:	f8c1 05a0 	str.w	r0, [r1, #1440]	; 0x5a0
 8005dde:	f8d1 059c 	ldr.w	r0, [r1, #1436]	; 0x59c
 8005de2:	f8d1 15a0 	ldr.w	r1, [r1, #1440]	; 0x5a0
 8005de6:	f7fc fe77 	bl	8002ad8 <_ZN4mem310checkpoint14initialization28_$u7b$$u7b$closure$u7d$$u7d$17h6307b018d29c5e02E>
 8005dea:	9a2a      	ldr	r2, [sp, #168]	; 0xa8
 8005dec:	4601      	mov	r1, r0
 8005dee:	9820      	ldr	r0, [sp, #128]	; 0x80
 8005df0:	6809      	ldr	r1, [r1, #0]
 8005df2:	f8c2 05bc 	str.w	r0, [r2, #1468]	; 0x5bc
 8005df6:	f8c2 15c0 	str.w	r1, [r2, #1472]	; 0x5c0
 8005dfa:	f8c2 05c4 	str.w	r0, [r2, #1476]	; 0x5c4
 8005dfe:	f001 faf8 	bl	80073f2 <_ZN4core3ptr14write_volatile17h46a673fe162f1e59E>
 8005e02:	f50d 5dcd 	add.w	sp, sp, #6560	; 0x19a0
 8005e06:	b006      	add	sp, #24
 8005e08:	bdb0      	pop	{r4, r5, r7, pc}

08005e0a <_ZN4mem310checkpoint12start_atomic17h17e593e1ea7f4a45E>:
 8005e0a:	f240 0108 	movw	r1, #8
 8005e0e:	f2c2 0100 	movt	r1, #8192	; 0x2000
 8005e12:	2000      	movs	r0, #0
 8005e14:	7008      	strb	r0, [r1, #0]
 8005e16:	4770      	bx	lr

08005e18 <_ZN4mem310checkpoint10end_atomic17h1df8a22faa6b19a4E>:
 8005e18:	f240 0100 	movw	r1, #0
 8005e1c:	f2c2 0100 	movt	r1, #8192	; 0x2000
 8005e20:	f244 0000 	movw	r0, #16384	; 0x4000
 8005e24:	f2c6 0000 	movt	r0, #24576	; 0x6000
 8005e28:	6008      	str	r0, [r1, #0]
 8005e2a:	f240 0108 	movw	r1, #8
 8005e2e:	f2c2 0100 	movt	r1, #8192	; 0x2000
 8005e32:	2001      	movs	r0, #1
 8005e34:	7008      	strb	r0, [r1, #0]
 8005e36:	4770      	bx	lr

08005e38 <checkpoint>:
 8005e38:	b580      	push	{r7, lr}
 8005e3a:	466f      	mov	r7, sp
 8005e3c:	b0c0      	sub	sp, #256	; 0x100
 8005e3e:	4601      	mov	r1, r0
 8005e40:	9125      	str	r1, [sp, #148]	; 0x94
 8005e42:	f807 0c0d 	strb.w	r0, [r7, #-13]
 8005e46:	b042      	add	sp, #264	; 0x108
 8005e48:	bc80      	pop	{r7}
 8005e4a:	b480      	push	{r7}
 8005e4c:	b0c2      	sub	sp, #264	; 0x108
 8005e4e:	4600      	mov	r0, r0
 8005e50:	9028      	str	r0, [sp, #160]	; 0xa0
 8005e52:	4608      	mov	r0, r1
 8005e54:	9029      	str	r0, [sp, #164]	; 0xa4
 8005e56:	4610      	mov	r0, r2
 8005e58:	902a      	str	r0, [sp, #168]	; 0xa8
 8005e5a:	4618      	mov	r0, r3
 8005e5c:	902b      	str	r0, [sp, #172]	; 0xac
 8005e5e:	4620      	mov	r0, r4
 8005e60:	902c      	str	r0, [sp, #176]	; 0xb0
 8005e62:	4628      	mov	r0, r5
 8005e64:	902d      	str	r0, [sp, #180]	; 0xb4
 8005e66:	4630      	mov	r0, r6
 8005e68:	902e      	str	r0, [sp, #184]	; 0xb8
 8005e6a:	4638      	mov	r0, r7
 8005e6c:	902f      	str	r0, [sp, #188]	; 0xbc
 8005e6e:	4640      	mov	r0, r8
 8005e70:	9030      	str	r0, [sp, #192]	; 0xc0
 8005e72:	4648      	mov	r0, r9
 8005e74:	9031      	str	r0, [sp, #196]	; 0xc4
 8005e76:	4650      	mov	r0, sl
 8005e78:	9032      	str	r0, [sp, #200]	; 0xc8
 8005e7a:	4658      	mov	r0, fp
 8005e7c:	9033      	str	r0, [sp, #204]	; 0xcc
 8005e7e:	4660      	mov	r0, ip
 8005e80:	9034      	str	r0, [sp, #208]	; 0xd0
 8005e82:	4670      	mov	r0, lr
 8005e84:	9036      	str	r0, [sp, #216]	; 0xd8
 8005e86:	4678      	mov	r0, pc
 8005e88:	9037      	str	r0, [sp, #220]	; 0xdc
 8005e8a:	4668      	mov	r0, sp
 8005e8c:	f500 7090 	add.w	r0, r0, #288	; 0x120
 8005e90:	4600      	mov	r0, r0
 8005e92:	9035      	str	r0, [sp, #212]	; 0xd4
 8005e94:	9935      	ldr	r1, [sp, #212]	; 0xd4
 8005e96:	9126      	str	r1, [sp, #152]	; 0x98
 8005e98:	913d      	str	r1, [sp, #244]	; 0xf4
 8005e9a:	f64f 70f8 	movw	r0, #65528	; 0xfff8
 8005e9e:	f2c2 0000 	movt	r0, #8192	; 0x2000
 8005ea2:	4600      	mov	r0, r0
 8005ea4:	9038      	str	r0, [sp, #224]	; 0xe0
 8005ea6:	9838      	ldr	r0, [sp, #224]	; 0xe0
 8005ea8:	1a42      	subs	r2, r0, r1
 8005eaa:	9227      	str	r2, [sp, #156]	; 0x9c
 8005eac:	4288      	cmp	r0, r1
 8005eae:	d307      	bcc.n	8005ec0 <checkpoint+0x88>
 8005eb0:	e7ff      	b.n	8005eb2 <checkpoint+0x7a>
 8005eb2:	9927      	ldr	r1, [sp, #156]	; 0x9c
 8005eb4:	1d08      	adds	r0, r1, #4
 8005eb6:	4602      	mov	r2, r0
 8005eb8:	9224      	str	r2, [sp, #144]	; 0x90
 8005eba:	4288      	cmp	r0, r1
 8005ebc:	d323      	bcc.n	8005f06 <checkpoint+0xce>
 8005ebe:	e005      	b.n	8005ecc <checkpoint+0x94>
 8005ec0:	f249 3088 	movw	r0, #37768	; 0x9388
 8005ec4:	f6c0 0000 	movt	r0, #2048	; 0x800
 8005ec8:	f002 fb04 	bl	80084d4 <_ZN4core9panicking11panic_const24panic_const_sub_overflow17h13f5d7dd344e7336E>
 8005ecc:	9824      	ldr	r0, [sp, #144]	; 0x90
 8005ece:	903e      	str	r0, [sp, #248]	; 0xf8
 8005ed0:	f247 0000 	movw	r0, #28672	; 0x7000
 8005ed4:	f2c6 0000 	movt	r0, #24576	; 0x6000
 8005ed8:	f000 fa46 	bl	8006368 <_ZN8volatile17Volatile$LT$T$GT$3new17h525d0235d55b9507E>
 8005edc:	9039      	str	r0, [sp, #228]	; 0xe4
 8005ede:	f64f 70ff 	movw	r0, #65535	; 0xffff
 8005ee2:	f2c6 0000 	movt	r0, #24576	; 0x6000
 8005ee6:	f000 fa3f 	bl	8006368 <_ZN8volatile17Volatile$LT$T$GT$3new17h525d0235d55b9507E>
 8005eea:	903f      	str	r0, [sp, #252]	; 0xfc
 8005eec:	2000      	movs	r0, #0
 8005eee:	f000 fa35 	bl	800635c <_ZN8volatile17Volatile$LT$T$GT$3new17h0e8ef703af20417fE>
 8005ef2:	903a      	str	r0, [sp, #232]	; 0xe8
 8005ef4:	f7fc ff60 	bl	8002db8 <_ZN8cortex_m3asm3dmb17hf938bdd58518968fE>
 8005ef8:	9924      	ldr	r1, [sp, #144]	; 0x90
 8005efa:	1d08      	adds	r0, r1, #4
 8005efc:	4602      	mov	r2, r0
 8005efe:	9223      	str	r2, [sp, #140]	; 0x8c
 8005f00:	4288      	cmp	r0, r1
 8005f02:	d30b      	bcc.n	8005f1c <checkpoint+0xe4>
 8005f04:	e005      	b.n	8005f12 <checkpoint+0xda>
 8005f06:	f249 3088 	movw	r0, #37768	; 0x9388
 8005f0a:	f6c0 0000 	movt	r0, #2048	; 0x800
 8005f0e:	f002 face 	bl	80084ae <_ZN4core9panicking11panic_const24panic_const_add_overflow17hc13b23ef9a01f37bE>
 8005f12:	2040      	movs	r0, #64	; 0x40
 8005f14:	9022      	str	r0, [sp, #136]	; 0x88
 8005f16:	2000      	movs	r0, #0
 8005f18:	b970      	cbnz	r0, 8005f38 <checkpoint+0x100>
 8005f1a:	e005      	b.n	8005f28 <checkpoint+0xf0>
 8005f1c:	f249 3098 	movw	r0, #37784	; 0x9398
 8005f20:	f6c0 0000 	movt	r0, #2048	; 0x800
 8005f24:	f002 fac3 	bl	80084ae <_ZN4core9panicking11panic_const24panic_const_add_overflow17hc13b23ef9a01f37bE>
 8005f28:	9923      	ldr	r1, [sp, #140]	; 0x8c
 8005f2a:	9822      	ldr	r0, [sp, #136]	; 0x88
 8005f2c:	4408      	add	r0, r1
 8005f2e:	4602      	mov	r2, r0
 8005f30:	9221      	str	r2, [sp, #132]	; 0x84
 8005f32:	4288      	cmp	r0, r1
 8005f34:	d30d      	bcc.n	8005f52 <checkpoint+0x11a>
 8005f36:	e005      	b.n	8005f44 <checkpoint+0x10c>
 8005f38:	f249 30a8 	movw	r0, #37800	; 0x93a8
 8005f3c:	f6c0 0000 	movt	r0, #2048	; 0x800
 8005f40:	f002 fadb 	bl	80084fa <_ZN4core9panicking11panic_const24panic_const_mul_overflow17h14685f7275025b88E>
 8005f44:	9921      	ldr	r1, [sp, #132]	; 0x84
 8005f46:	1d08      	adds	r0, r1, #4
 8005f48:	4602      	mov	r2, r0
 8005f4a:	9220      	str	r2, [sp, #128]	; 0x80
 8005f4c:	4288      	cmp	r0, r1
 8005f4e:	d30d      	bcc.n	8005f6c <checkpoint+0x134>
 8005f50:	e005      	b.n	8005f5e <checkpoint+0x126>
 8005f52:	f249 3098 	movw	r0, #37784	; 0x9398
 8005f56:	f6c0 0000 	movt	r0, #2048	; 0x800
 8005f5a:	f002 faa8 	bl	80084ae <_ZN4core9panicking11panic_const24panic_const_add_overflow17hc13b23ef9a01f37bE>
 8005f5e:	9920      	ldr	r1, [sp, #128]	; 0x80
 8005f60:	1d08      	adds	r0, r1, #4
 8005f62:	4602      	mov	r2, r0
 8005f64:	921f      	str	r2, [sp, #124]	; 0x7c
 8005f66:	4288      	cmp	r0, r1
 8005f68:	d322      	bcc.n	8005fb0 <checkpoint+0x178>
 8005f6a:	e005      	b.n	8005f78 <checkpoint+0x140>
 8005f6c:	f249 3098 	movw	r0, #37784	; 0x9398
 8005f70:	f6c0 0000 	movt	r0, #2048	; 0x800
 8005f74:	f002 fa9b 	bl	80084ae <_ZN4core9panicking11panic_const24panic_const_add_overflow17hc13b23ef9a01f37bE>
 8005f78:	991f      	ldr	r1, [sp, #124]	; 0x7c
 8005f7a:	a83a      	add	r0, sp, #232	; 0xe8
 8005f7c:	901b      	str	r0, [sp, #108]	; 0x6c
 8005f7e:	f000 fa12 	bl	80063a6 <_ZN8volatile17Volatile$LT$T$GT$5write17hfb3fb339574c6d86E>
 8005f82:	a839      	add	r0, sp, #228	; 0xe4
 8005f84:	901d      	str	r0, [sp, #116]	; 0x74
 8005f86:	f000 f9f5 	bl	8006374 <_ZN8volatile17Volatile$LT$T$GT$4read17h4c265ca568cfb1cbE>
 8005f8a:	4601      	mov	r1, r0
 8005f8c:	981b      	ldr	r0, [sp, #108]	; 0x6c
 8005f8e:	911c      	str	r1, [sp, #112]	; 0x70
 8005f90:	f000 f9f8 	bl	8006384 <_ZN8volatile17Volatile$LT$T$GT$4read17ha2b72c7a56aab572E>
 8005f94:	4601      	mov	r1, r0
 8005f96:	981c      	ldr	r0, [sp, #112]	; 0x70
 8005f98:	f001 fa2b 	bl	80073f2 <_ZN4core3ptr14write_volatile17h46a673fe162f1e59E>
 8005f9c:	981d      	ldr	r0, [sp, #116]	; 0x74
 8005f9e:	f000 f9e9 	bl	8006374 <_ZN8volatile17Volatile$LT$T$GT$4read17h4c265ca568cfb1cbE>
 8005fa2:	4601      	mov	r1, r0
 8005fa4:	1d08      	adds	r0, r1, #4
 8005fa6:	4602      	mov	r2, r0
 8005fa8:	921e      	str	r2, [sp, #120]	; 0x78
 8005faa:	4288      	cmp	r0, r1
 8005fac:	d60e      	bvs.n	8005fcc <checkpoint+0x194>
 8005fae:	e005      	b.n	8005fbc <checkpoint+0x184>
 8005fb0:	f249 3098 	movw	r0, #37784	; 0x9398
 8005fb4:	f6c0 0000 	movt	r0, #2048	; 0x800
 8005fb8:	f002 fa79 	bl	80084ae <_ZN4core9panicking11panic_const24panic_const_add_overflow17hc13b23ef9a01f37bE>
 8005fbc:	991e      	ldr	r1, [sp, #120]	; 0x78
 8005fbe:	a839      	add	r0, sp, #228	; 0xe4
 8005fc0:	f000 f9e8 	bl	8006394 <_ZN8volatile17Volatile$LT$T$GT$5write17h516f9b532afa2ba4E>
 8005fc4:	9825      	ldr	r0, [sp, #148]	; 0x94
 8005fc6:	07c0      	lsls	r0, r0, #31
 8005fc8:	b968      	cbnz	r0, 8005fe6 <checkpoint+0x1ae>
 8005fca:	e005      	b.n	8005fd8 <checkpoint+0x1a0>
 8005fcc:	f249 30b8 	movw	r0, #37816	; 0x93b8
 8005fd0:	f6c0 0000 	movt	r0, #2048	; 0x800
 8005fd4:	f002 fa6b 	bl	80084ae <_ZN4core9panicking11panic_const24panic_const_add_overflow17hc13b23ef9a01f37bE>
 8005fd8:	a839      	add	r0, sp, #228	; 0xe4
 8005fda:	f000 f9cb 	bl	8006374 <_ZN8volatile17Volatile$LT$T$GT$4read17h4c265ca568cfb1cbE>
 8005fde:	2101      	movs	r1, #1
 8005fe0:	f001 fa07 	bl	80073f2 <_ZN4core3ptr14write_volatile17h46a673fe162f1e59E>
 8005fe4:	e009      	b.n	8005ffa <checkpoint+0x1c2>
 8005fe6:	a839      	add	r0, sp, #228	; 0xe4
 8005fe8:	f000 f9c4 	bl	8006374 <_ZN8volatile17Volatile$LT$T$GT$4read17h4c265ca568cfb1cbE>
 8005fec:	f64b 61ef 	movw	r1, #48879	; 0xbeef
 8005ff0:	f6cd 61ad 	movt	r1, #57005	; 0xdead
 8005ff4:	f001 f9fd 	bl	80073f2 <_ZN4core3ptr14write_volatile17h46a673fe162f1e59E>
 8005ff8:	e7ff      	b.n	8005ffa <checkpoint+0x1c2>
 8005ffa:	9926      	ldr	r1, [sp, #152]	; 0x98
 8005ffc:	9838      	ldr	r0, [sp, #224]	; 0xe0
 8005ffe:	4288      	cmp	r0, r1
 8006000:	d212      	bcs.n	8006028 <checkpoint+0x1f0>
 8006002:	e7ff      	b.n	8006004 <checkpoint+0x1cc>
 8006004:	a839      	add	r0, sp, #228	; 0xe4
 8006006:	9019      	str	r0, [sp, #100]	; 0x64
 8006008:	f000 f9b4 	bl	8006374 <_ZN8volatile17Volatile$LT$T$GT$4read17h4c265ca568cfb1cbE>
 800600c:	f04f 31f1 	mov.w	r1, #4059165169	; 0xf1f1f1f1
 8006010:	f001 f9ef 	bl	80073f2 <_ZN4core3ptr14write_volatile17h46a673fe162f1e59E>
 8006014:	9819      	ldr	r0, [sp, #100]	; 0x64
 8006016:	f000 f9ad 	bl	8006374 <_ZN8volatile17Volatile$LT$T$GT$4read17h4c265ca568cfb1cbE>
 800601a:	4601      	mov	r1, r0
 800601c:	1d08      	adds	r0, r1, #4
 800601e:	4602      	mov	r2, r0
 8006020:	921a      	str	r2, [sp, #104]	; 0x68
 8006022:	4288      	cmp	r0, r1
 8006024:	d63b      	bvs.n	800609e <checkpoint+0x266>
 8006026:	e025      	b.n	8006074 <checkpoint+0x23c>
 8006028:	2000      	movs	r0, #0
 800602a:	9016      	str	r0, [sp, #88]	; 0x58
 800602c:	f000 f996 	bl	800635c <_ZN8volatile17Volatile$LT$T$GT$3new17h0e8ef703af20417fE>
 8006030:	903b      	str	r0, [sp, #236]	; 0xec
 8006032:	9838      	ldr	r0, [sp, #224]	; 0xe0
 8006034:	f001 f9a6 	bl	8007384 <_ZN4core3ptr13read_volatile17h384c2f472b76a07aE>
 8006038:	4601      	mov	r1, r0
 800603a:	a83b      	add	r0, sp, #236	; 0xec
 800603c:	9013      	str	r0, [sp, #76]	; 0x4c
 800603e:	f000 f9b2 	bl	80063a6 <_ZN8volatile17Volatile$LT$T$GT$5write17hfb3fb339574c6d86E>
 8006042:	a839      	add	r0, sp, #228	; 0xe4
 8006044:	9015      	str	r0, [sp, #84]	; 0x54
 8006046:	f000 f995 	bl	8006374 <_ZN8volatile17Volatile$LT$T$GT$4read17h4c265ca568cfb1cbE>
 800604a:	4601      	mov	r1, r0
 800604c:	9813      	ldr	r0, [sp, #76]	; 0x4c
 800604e:	9114      	str	r1, [sp, #80]	; 0x50
 8006050:	f000 f998 	bl	8006384 <_ZN8volatile17Volatile$LT$T$GT$4read17ha2b72c7a56aab572E>
 8006054:	4601      	mov	r1, r0
 8006056:	9814      	ldr	r0, [sp, #80]	; 0x50
 8006058:	f001 f9cb 	bl	80073f2 <_ZN4core3ptr14write_volatile17h46a673fe162f1e59E>
 800605c:	9815      	ldr	r0, [sp, #84]	; 0x54
 800605e:	f000 f989 	bl	8006374 <_ZN8volatile17Volatile$LT$T$GT$4read17h4c265ca568cfb1cbE>
 8006062:	4601      	mov	r1, r0
 8006064:	9816      	ldr	r0, [sp, #88]	; 0x58
 8006066:	9117      	str	r1, [sp, #92]	; 0x5c
 8006068:	2104      	movs	r1, #4
 800606a:	9118      	str	r1, [sp, #96]	; 0x60
 800606c:	2800      	cmp	r0, #0
 800606e:	f040 8156 	bne.w	800631e <checkpoint+0x4e6>
 8006072:	e14c      	b.n	800630e <checkpoint+0x4d6>
 8006074:	991a      	ldr	r1, [sp, #104]	; 0x68
 8006076:	a839      	add	r0, sp, #228	; 0xe4
 8006078:	9011      	str	r0, [sp, #68]	; 0x44
 800607a:	f000 f98b 	bl	8006394 <_ZN8volatile17Volatile$LT$T$GT$5write17h516f9b532afa2ba4E>
 800607e:	9811      	ldr	r0, [sp, #68]	; 0x44
 8006080:	f000 f978 	bl	8006374 <_ZN8volatile17Volatile$LT$T$GT$4read17h4c265ca568cfb1cbE>
 8006084:	9928      	ldr	r1, [sp, #160]	; 0xa0
 8006086:	f001 f9b4 	bl	80073f2 <_ZN4core3ptr14write_volatile17h46a673fe162f1e59E>
 800608a:	9811      	ldr	r0, [sp, #68]	; 0x44
 800608c:	f000 f972 	bl	8006374 <_ZN8volatile17Volatile$LT$T$GT$4read17h4c265ca568cfb1cbE>
 8006090:	4601      	mov	r1, r0
 8006092:	1d08      	adds	r0, r1, #4
 8006094:	4602      	mov	r2, r0
 8006096:	9212      	str	r2, [sp, #72]	; 0x48
 8006098:	4288      	cmp	r0, r1
 800609a:	d615      	bvs.n	80060c8 <checkpoint+0x290>
 800609c:	e005      	b.n	80060aa <checkpoint+0x272>
 800609e:	f249 30c8 	movw	r0, #37832	; 0x93c8
 80060a2:	f6c0 0000 	movt	r0, #2048	; 0x800
 80060a6:	f002 fa02 	bl	80084ae <_ZN4core9panicking11panic_const24panic_const_add_overflow17hc13b23ef9a01f37bE>
 80060aa:	9812      	ldr	r0, [sp, #72]	; 0x48
 80060ac:	9929      	ldr	r1, [sp, #164]	; 0xa4
 80060ae:	f001 f9a0 	bl	80073f2 <_ZN4core3ptr14write_volatile17h46a673fe162f1e59E>
 80060b2:	a839      	add	r0, sp, #228	; 0xe4
 80060b4:	f000 f95e 	bl	8006374 <_ZN8volatile17Volatile$LT$T$GT$4read17h4c265ca568cfb1cbE>
 80060b8:	4601      	mov	r1, r0
 80060ba:	f101 0008 	add.w	r0, r1, #8
 80060be:	4602      	mov	r2, r0
 80060c0:	9210      	str	r2, [sp, #64]	; 0x40
 80060c2:	4288      	cmp	r0, r1
 80060c4:	d615      	bvs.n	80060f2 <checkpoint+0x2ba>
 80060c6:	e005      	b.n	80060d4 <checkpoint+0x29c>
 80060c8:	f249 30d8 	movw	r0, #37848	; 0x93d8
 80060cc:	f6c0 0000 	movt	r0, #2048	; 0x800
 80060d0:	f002 f9ed 	bl	80084ae <_ZN4core9panicking11panic_const24panic_const_add_overflow17hc13b23ef9a01f37bE>
 80060d4:	9810      	ldr	r0, [sp, #64]	; 0x40
 80060d6:	992a      	ldr	r1, [sp, #168]	; 0xa8
 80060d8:	f001 f98b 	bl	80073f2 <_ZN4core3ptr14write_volatile17h46a673fe162f1e59E>
 80060dc:	a839      	add	r0, sp, #228	; 0xe4
 80060de:	f000 f949 	bl	8006374 <_ZN8volatile17Volatile$LT$T$GT$4read17h4c265ca568cfb1cbE>
 80060e2:	4601      	mov	r1, r0
 80060e4:	f101 000c 	add.w	r0, r1, #12
 80060e8:	4602      	mov	r2, r0
 80060ea:	920f      	str	r2, [sp, #60]	; 0x3c
 80060ec:	4288      	cmp	r0, r1
 80060ee:	d615      	bvs.n	800611c <checkpoint+0x2e4>
 80060f0:	e005      	b.n	80060fe <checkpoint+0x2c6>
 80060f2:	f249 30e8 	movw	r0, #37864	; 0x93e8
 80060f6:	f6c0 0000 	movt	r0, #2048	; 0x800
 80060fa:	f002 f9d8 	bl	80084ae <_ZN4core9panicking11panic_const24panic_const_add_overflow17hc13b23ef9a01f37bE>
 80060fe:	980f      	ldr	r0, [sp, #60]	; 0x3c
 8006100:	992b      	ldr	r1, [sp, #172]	; 0xac
 8006102:	f001 f976 	bl	80073f2 <_ZN4core3ptr14write_volatile17h46a673fe162f1e59E>
 8006106:	a839      	add	r0, sp, #228	; 0xe4
 8006108:	f000 f934 	bl	8006374 <_ZN8volatile17Volatile$LT$T$GT$4read17h4c265ca568cfb1cbE>
 800610c:	4601      	mov	r1, r0
 800610e:	f101 0010 	add.w	r0, r1, #16
 8006112:	4602      	mov	r2, r0
 8006114:	920e      	str	r2, [sp, #56]	; 0x38
 8006116:	4288      	cmp	r0, r1
 8006118:	d615      	bvs.n	8006146 <checkpoint+0x30e>
 800611a:	e005      	b.n	8006128 <checkpoint+0x2f0>
 800611c:	f249 30f8 	movw	r0, #37880	; 0x93f8
 8006120:	f6c0 0000 	movt	r0, #2048	; 0x800
 8006124:	f002 f9c3 	bl	80084ae <_ZN4core9panicking11panic_const24panic_const_add_overflow17hc13b23ef9a01f37bE>
 8006128:	980e      	ldr	r0, [sp, #56]	; 0x38
 800612a:	992c      	ldr	r1, [sp, #176]	; 0xb0
 800612c:	f001 f961 	bl	80073f2 <_ZN4core3ptr14write_volatile17h46a673fe162f1e59E>
 8006130:	a839      	add	r0, sp, #228	; 0xe4
 8006132:	f000 f91f 	bl	8006374 <_ZN8volatile17Volatile$LT$T$GT$4read17h4c265ca568cfb1cbE>
 8006136:	4601      	mov	r1, r0
 8006138:	f101 0014 	add.w	r0, r1, #20
 800613c:	4602      	mov	r2, r0
 800613e:	920d      	str	r2, [sp, #52]	; 0x34
 8006140:	4288      	cmp	r0, r1
 8006142:	d615      	bvs.n	8006170 <checkpoint+0x338>
 8006144:	e005      	b.n	8006152 <checkpoint+0x31a>
 8006146:	f249 4008 	movw	r0, #37896	; 0x9408
 800614a:	f6c0 0000 	movt	r0, #2048	; 0x800
 800614e:	f002 f9ae 	bl	80084ae <_ZN4core9panicking11panic_const24panic_const_add_overflow17hc13b23ef9a01f37bE>
 8006152:	980d      	ldr	r0, [sp, #52]	; 0x34
 8006154:	992d      	ldr	r1, [sp, #180]	; 0xb4
 8006156:	f001 f94c 	bl	80073f2 <_ZN4core3ptr14write_volatile17h46a673fe162f1e59E>
 800615a:	a839      	add	r0, sp, #228	; 0xe4
 800615c:	f000 f90a 	bl	8006374 <_ZN8volatile17Volatile$LT$T$GT$4read17h4c265ca568cfb1cbE>
 8006160:	4601      	mov	r1, r0
 8006162:	f101 0018 	add.w	r0, r1, #24
 8006166:	4602      	mov	r2, r0
 8006168:	920c      	str	r2, [sp, #48]	; 0x30
 800616a:	4288      	cmp	r0, r1
 800616c:	d615      	bvs.n	800619a <checkpoint+0x362>
 800616e:	e005      	b.n	800617c <checkpoint+0x344>
 8006170:	f249 4018 	movw	r0, #37912	; 0x9418
 8006174:	f6c0 0000 	movt	r0, #2048	; 0x800
 8006178:	f002 f999 	bl	80084ae <_ZN4core9panicking11panic_const24panic_const_add_overflow17hc13b23ef9a01f37bE>
 800617c:	980c      	ldr	r0, [sp, #48]	; 0x30
 800617e:	992e      	ldr	r1, [sp, #184]	; 0xb8
 8006180:	f001 f937 	bl	80073f2 <_ZN4core3ptr14write_volatile17h46a673fe162f1e59E>
 8006184:	a839      	add	r0, sp, #228	; 0xe4
 8006186:	f000 f8f5 	bl	8006374 <_ZN8volatile17Volatile$LT$T$GT$4read17h4c265ca568cfb1cbE>
 800618a:	4601      	mov	r1, r0
 800618c:	f101 001c 	add.w	r0, r1, #28
 8006190:	4602      	mov	r2, r0
 8006192:	920b      	str	r2, [sp, #44]	; 0x2c
 8006194:	4288      	cmp	r0, r1
 8006196:	d615      	bvs.n	80061c4 <checkpoint+0x38c>
 8006198:	e005      	b.n	80061a6 <checkpoint+0x36e>
 800619a:	f249 4028 	movw	r0, #37928	; 0x9428
 800619e:	f6c0 0000 	movt	r0, #2048	; 0x800
 80061a2:	f002 f984 	bl	80084ae <_ZN4core9panicking11panic_const24panic_const_add_overflow17hc13b23ef9a01f37bE>
 80061a6:	980b      	ldr	r0, [sp, #44]	; 0x2c
 80061a8:	992f      	ldr	r1, [sp, #188]	; 0xbc
 80061aa:	f001 f922 	bl	80073f2 <_ZN4core3ptr14write_volatile17h46a673fe162f1e59E>
 80061ae:	a839      	add	r0, sp, #228	; 0xe4
 80061b0:	f000 f8e0 	bl	8006374 <_ZN8volatile17Volatile$LT$T$GT$4read17h4c265ca568cfb1cbE>
 80061b4:	4601      	mov	r1, r0
 80061b6:	f101 0020 	add.w	r0, r1, #32
 80061ba:	4602      	mov	r2, r0
 80061bc:	920a      	str	r2, [sp, #40]	; 0x28
 80061be:	4288      	cmp	r0, r1
 80061c0:	d615      	bvs.n	80061ee <checkpoint+0x3b6>
 80061c2:	e005      	b.n	80061d0 <checkpoint+0x398>
 80061c4:	f249 4038 	movw	r0, #37944	; 0x9438
 80061c8:	f6c0 0000 	movt	r0, #2048	; 0x800
 80061cc:	f002 f96f 	bl	80084ae <_ZN4core9panicking11panic_const24panic_const_add_overflow17hc13b23ef9a01f37bE>
 80061d0:	980a      	ldr	r0, [sp, #40]	; 0x28
 80061d2:	9930      	ldr	r1, [sp, #192]	; 0xc0
 80061d4:	f001 f90d 	bl	80073f2 <_ZN4core3ptr14write_volatile17h46a673fe162f1e59E>
 80061d8:	a839      	add	r0, sp, #228	; 0xe4
 80061da:	f000 f8cb 	bl	8006374 <_ZN8volatile17Volatile$LT$T$GT$4read17h4c265ca568cfb1cbE>
 80061de:	4601      	mov	r1, r0
 80061e0:	f101 0024 	add.w	r0, r1, #36	; 0x24
 80061e4:	4602      	mov	r2, r0
 80061e6:	9209      	str	r2, [sp, #36]	; 0x24
 80061e8:	4288      	cmp	r0, r1
 80061ea:	d615      	bvs.n	8006218 <checkpoint+0x3e0>
 80061ec:	e005      	b.n	80061fa <checkpoint+0x3c2>
 80061ee:	f249 4048 	movw	r0, #37960	; 0x9448
 80061f2:	f6c0 0000 	movt	r0, #2048	; 0x800
 80061f6:	f002 f95a 	bl	80084ae <_ZN4core9panicking11panic_const24panic_const_add_overflow17hc13b23ef9a01f37bE>
 80061fa:	9809      	ldr	r0, [sp, #36]	; 0x24
 80061fc:	9931      	ldr	r1, [sp, #196]	; 0xc4
 80061fe:	f001 f8f8 	bl	80073f2 <_ZN4core3ptr14write_volatile17h46a673fe162f1e59E>
 8006202:	a839      	add	r0, sp, #228	; 0xe4
 8006204:	f000 f8b6 	bl	8006374 <_ZN8volatile17Volatile$LT$T$GT$4read17h4c265ca568cfb1cbE>
 8006208:	4601      	mov	r1, r0
 800620a:	f101 0028 	add.w	r0, r1, #40	; 0x28
 800620e:	4602      	mov	r2, r0
 8006210:	9208      	str	r2, [sp, #32]
 8006212:	4288      	cmp	r0, r1
 8006214:	d615      	bvs.n	8006242 <checkpoint+0x40a>
 8006216:	e005      	b.n	8006224 <checkpoint+0x3ec>
 8006218:	f249 4058 	movw	r0, #37976	; 0x9458
 800621c:	f6c0 0000 	movt	r0, #2048	; 0x800
 8006220:	f002 f945 	bl	80084ae <_ZN4core9panicking11panic_const24panic_const_add_overflow17hc13b23ef9a01f37bE>
 8006224:	9808      	ldr	r0, [sp, #32]
 8006226:	9932      	ldr	r1, [sp, #200]	; 0xc8
 8006228:	f001 f8e3 	bl	80073f2 <_ZN4core3ptr14write_volatile17h46a673fe162f1e59E>
 800622c:	a839      	add	r0, sp, #228	; 0xe4
 800622e:	f000 f8a1 	bl	8006374 <_ZN8volatile17Volatile$LT$T$GT$4read17h4c265ca568cfb1cbE>
 8006232:	4601      	mov	r1, r0
 8006234:	f101 002c 	add.w	r0, r1, #44	; 0x2c
 8006238:	4602      	mov	r2, r0
 800623a:	9207      	str	r2, [sp, #28]
 800623c:	4288      	cmp	r0, r1
 800623e:	d615      	bvs.n	800626c <checkpoint+0x434>
 8006240:	e005      	b.n	800624e <checkpoint+0x416>
 8006242:	f249 4068 	movw	r0, #37992	; 0x9468
 8006246:	f6c0 0000 	movt	r0, #2048	; 0x800
 800624a:	f002 f930 	bl	80084ae <_ZN4core9panicking11panic_const24panic_const_add_overflow17hc13b23ef9a01f37bE>
 800624e:	9807      	ldr	r0, [sp, #28]
 8006250:	9933      	ldr	r1, [sp, #204]	; 0xcc
 8006252:	f001 f8ce 	bl	80073f2 <_ZN4core3ptr14write_volatile17h46a673fe162f1e59E>
 8006256:	a839      	add	r0, sp, #228	; 0xe4
 8006258:	f000 f88c 	bl	8006374 <_ZN8volatile17Volatile$LT$T$GT$4read17h4c265ca568cfb1cbE>
 800625c:	4601      	mov	r1, r0
 800625e:	f101 0030 	add.w	r0, r1, #48	; 0x30
 8006262:	4602      	mov	r2, r0
 8006264:	9206      	str	r2, [sp, #24]
 8006266:	4288      	cmp	r0, r1
 8006268:	d615      	bvs.n	8006296 <checkpoint+0x45e>
 800626a:	e005      	b.n	8006278 <checkpoint+0x440>
 800626c:	f249 4078 	movw	r0, #38008	; 0x9478
 8006270:	f6c0 0000 	movt	r0, #2048	; 0x800
 8006274:	f002 f91b 	bl	80084ae <_ZN4core9panicking11panic_const24panic_const_add_overflow17hc13b23ef9a01f37bE>
 8006278:	9806      	ldr	r0, [sp, #24]
 800627a:	9934      	ldr	r1, [sp, #208]	; 0xd0
 800627c:	f001 f8b9 	bl	80073f2 <_ZN4core3ptr14write_volatile17h46a673fe162f1e59E>
 8006280:	a839      	add	r0, sp, #228	; 0xe4
 8006282:	f000 f877 	bl	8006374 <_ZN8volatile17Volatile$LT$T$GT$4read17h4c265ca568cfb1cbE>
 8006286:	4601      	mov	r1, r0
 8006288:	f101 0034 	add.w	r0, r1, #52	; 0x34
 800628c:	4602      	mov	r2, r0
 800628e:	9205      	str	r2, [sp, #20]
 8006290:	4288      	cmp	r0, r1
 8006292:	d615      	bvs.n	80062c0 <checkpoint+0x488>
 8006294:	e005      	b.n	80062a2 <checkpoint+0x46a>
 8006296:	f249 4088 	movw	r0, #38024	; 0x9488
 800629a:	f6c0 0000 	movt	r0, #2048	; 0x800
 800629e:	f002 f906 	bl	80084ae <_ZN4core9panicking11panic_const24panic_const_add_overflow17hc13b23ef9a01f37bE>
 80062a2:	9805      	ldr	r0, [sp, #20]
 80062a4:	9935      	ldr	r1, [sp, #212]	; 0xd4
 80062a6:	f001 f8a4 	bl	80073f2 <_ZN4core3ptr14write_volatile17h46a673fe162f1e59E>
 80062aa:	a839      	add	r0, sp, #228	; 0xe4
 80062ac:	f000 f862 	bl	8006374 <_ZN8volatile17Volatile$LT$T$GT$4read17h4c265ca568cfb1cbE>
 80062b0:	4601      	mov	r1, r0
 80062b2:	f101 0038 	add.w	r0, r1, #56	; 0x38
 80062b6:	4602      	mov	r2, r0
 80062b8:	9204      	str	r2, [sp, #16]
 80062ba:	4288      	cmp	r0, r1
 80062bc:	d615      	bvs.n	80062ea <checkpoint+0x4b2>
 80062be:	e005      	b.n	80062cc <checkpoint+0x494>
 80062c0:	f249 4098 	movw	r0, #38040	; 0x9498
 80062c4:	f6c0 0000 	movt	r0, #2048	; 0x800
 80062c8:	f002 f8f1 	bl	80084ae <_ZN4core9panicking11panic_const24panic_const_add_overflow17hc13b23ef9a01f37bE>
 80062cc:	9804      	ldr	r0, [sp, #16]
 80062ce:	9936      	ldr	r1, [sp, #216]	; 0xd8
 80062d0:	f001 f88f 	bl	80073f2 <_ZN4core3ptr14write_volatile17h46a673fe162f1e59E>
 80062d4:	a839      	add	r0, sp, #228	; 0xe4
 80062d6:	f000 f84d 	bl	8006374 <_ZN8volatile17Volatile$LT$T$GT$4read17h4c265ca568cfb1cbE>
 80062da:	4601      	mov	r1, r0
 80062dc:	f101 003c 	add.w	r0, r1, #60	; 0x3c
 80062e0:	4602      	mov	r2, r0
 80062e2:	9203      	str	r2, [sp, #12]
 80062e4:	4288      	cmp	r0, r1
 80062e6:	d60c      	bvs.n	8006302 <checkpoint+0x4ca>
 80062e8:	e005      	b.n	80062f6 <checkpoint+0x4be>
 80062ea:	f249 40a8 	movw	r0, #38056	; 0x94a8
 80062ee:	f6c0 0000 	movt	r0, #2048	; 0x800
 80062f2:	f002 f8dc 	bl	80084ae <_ZN4core9panicking11panic_const24panic_const_add_overflow17hc13b23ef9a01f37bE>
 80062f6:	9803      	ldr	r0, [sp, #12]
 80062f8:	9937      	ldr	r1, [sp, #220]	; 0xdc
 80062fa:	f001 f87a 	bl	80073f2 <_ZN4core3ptr14write_volatile17h46a673fe162f1e59E>
 80062fe:	b040      	add	sp, #256	; 0x100
 8006300:	bd80      	pop	{r7, pc}
 8006302:	f249 40b8 	movw	r0, #38072	; 0x94b8
 8006306:	f6c0 0000 	movt	r0, #2048	; 0x800
 800630a:	f002 f8d0 	bl	80084ae <_ZN4core9panicking11panic_const24panic_const_add_overflow17hc13b23ef9a01f37bE>
 800630e:	9917      	ldr	r1, [sp, #92]	; 0x5c
 8006310:	9818      	ldr	r0, [sp, #96]	; 0x60
 8006312:	4408      	add	r0, r1
 8006314:	4602      	mov	r2, r0
 8006316:	9202      	str	r2, [sp, #8]
 8006318:	4288      	cmp	r0, r1
 800631a:	d610      	bvs.n	800633e <checkpoint+0x506>
 800631c:	e005      	b.n	800632a <checkpoint+0x4f2>
 800631e:	f249 40c8 	movw	r0, #38088	; 0x94c8
 8006322:	f6c0 0000 	movt	r0, #2048	; 0x800
 8006326:	f002 f8e8 	bl	80084fa <_ZN4core9panicking11panic_const24panic_const_mul_overflow17h14685f7275025b88E>
 800632a:	9902      	ldr	r1, [sp, #8]
 800632c:	a839      	add	r0, sp, #228	; 0xe4
 800632e:	f000 f831 	bl	8006394 <_ZN8volatile17Volatile$LT$T$GT$5write17h516f9b532afa2ba4E>
 8006332:	9838      	ldr	r0, [sp, #224]	; 0xe0
 8006334:	1f01      	subs	r1, r0, #4
 8006336:	9101      	str	r1, [sp, #4]
 8006338:	2804      	cmp	r0, #4
 800633a:	d309      	bcc.n	8006350 <checkpoint+0x518>
 800633c:	e005      	b.n	800634a <checkpoint+0x512>
 800633e:	f249 40d8 	movw	r0, #38104	; 0x94d8
 8006342:	f6c0 0000 	movt	r0, #2048	; 0x800
 8006346:	f002 f8b2 	bl	80084ae <_ZN4core9panicking11panic_const24panic_const_add_overflow17hc13b23ef9a01f37bE>
 800634a:	9801      	ldr	r0, [sp, #4]
 800634c:	9038      	str	r0, [sp, #224]	; 0xe0
 800634e:	e654      	b.n	8005ffa <checkpoint+0x1c2>
 8006350:	f249 40e8 	movw	r0, #38120	; 0x94e8
 8006354:	f6c0 0000 	movt	r0, #2048	; 0x800
 8006358:	f002 f8bc 	bl	80084d4 <_ZN4core9panicking11panic_const24panic_const_sub_overflow17h13f5d7dd344e7336E>

0800635c <_ZN8volatile17Volatile$LT$T$GT$3new17h0e8ef703af20417fE>:
 800635c:	b082      	sub	sp, #8
 800635e:	9001      	str	r0, [sp, #4]
 8006360:	9000      	str	r0, [sp, #0]
 8006362:	9800      	ldr	r0, [sp, #0]
 8006364:	b002      	add	sp, #8
 8006366:	4770      	bx	lr

08006368 <_ZN8volatile17Volatile$LT$T$GT$3new17h525d0235d55b9507E>:
 8006368:	b082      	sub	sp, #8
 800636a:	9001      	str	r0, [sp, #4]
 800636c:	9000      	str	r0, [sp, #0]
 800636e:	9800      	ldr	r0, [sp, #0]
 8006370:	b002      	add	sp, #8
 8006372:	4770      	bx	lr

08006374 <_ZN8volatile17Volatile$LT$T$GT$4read17h4c265ca568cfb1cbE>:
 8006374:	b580      	push	{r7, lr}
 8006376:	466f      	mov	r7, sp
 8006378:	b082      	sub	sp, #8
 800637a:	9001      	str	r0, [sp, #4]
 800637c:	f000 f81c 	bl	80063b8 <_ZN4core3ptr13read_volatile17ha3378ca9b41e8facE>
 8006380:	b002      	add	sp, #8
 8006382:	bd80      	pop	{r7, pc}

08006384 <_ZN8volatile17Volatile$LT$T$GT$4read17ha2b72c7a56aab572E>:
 8006384:	b580      	push	{r7, lr}
 8006386:	466f      	mov	r7, sp
 8006388:	b082      	sub	sp, #8
 800638a:	9001      	str	r0, [sp, #4]
 800638c:	f000 fffa 	bl	8007384 <_ZN4core3ptr13read_volatile17h384c2f472b76a07aE>
 8006390:	b002      	add	sp, #8
 8006392:	bd80      	pop	{r7, pc}

08006394 <_ZN8volatile17Volatile$LT$T$GT$5write17h516f9b532afa2ba4E>:
 8006394:	b580      	push	{r7, lr}
 8006396:	466f      	mov	r7, sp
 8006398:	b082      	sub	sp, #8
 800639a:	9000      	str	r0, [sp, #0]
 800639c:	9101      	str	r1, [sp, #4]
 800639e:	f000 f81c 	bl	80063da <_ZN4core3ptr14write_volatile17hc3a9a11ebe93fe7cE>
 80063a2:	b002      	add	sp, #8
 80063a4:	bd80      	pop	{r7, pc}

080063a6 <_ZN8volatile17Volatile$LT$T$GT$5write17hfb3fb339574c6d86E>:
 80063a6:	b580      	push	{r7, lr}
 80063a8:	466f      	mov	r7, sp
 80063aa:	b082      	sub	sp, #8
 80063ac:	9000      	str	r0, [sp, #0]
 80063ae:	9101      	str	r1, [sp, #4]
 80063b0:	f001 f81f 	bl	80073f2 <_ZN4core3ptr14write_volatile17h46a673fe162f1e59E>
 80063b4:	b002      	add	sp, #8
 80063b6:	bd80      	pop	{r7, pc}

080063b8 <_ZN4core3ptr13read_volatile17ha3378ca9b41e8facE>:
 80063b8:	b580      	push	{r7, lr}
 80063ba:	466f      	mov	r7, sp
 80063bc:	b084      	sub	sp, #16
 80063be:	9001      	str	r0, [sp, #4]
 80063c0:	9002      	str	r0, [sp, #8]
 80063c2:	e7ff      	b.n	80063c4 <_ZN4core3ptr13read_volatile17ha3378ca9b41e8facE+0xc>
 80063c4:	9801      	ldr	r0, [sp, #4]
 80063c6:	2104      	movs	r1, #4
 80063c8:	f7fc fca4 	bl	8002d14 <_ZN4core3ptr13read_volatile18precondition_check17hf365944657173a0aE>
 80063cc:	e7ff      	b.n	80063ce <_ZN4core3ptr13read_volatile17ha3378ca9b41e8facE+0x16>
 80063ce:	9801      	ldr	r0, [sp, #4]
 80063d0:	6800      	ldr	r0, [r0, #0]
 80063d2:	9003      	str	r0, [sp, #12]
 80063d4:	9803      	ldr	r0, [sp, #12]
 80063d6:	b004      	add	sp, #16
 80063d8:	bd80      	pop	{r7, pc}

080063da <_ZN4core3ptr14write_volatile17hc3a9a11ebe93fe7cE>:
 80063da:	b580      	push	{r7, lr}
 80063dc:	466f      	mov	r7, sp
 80063de:	b084      	sub	sp, #16
 80063e0:	9100      	str	r1, [sp, #0]
 80063e2:	9001      	str	r0, [sp, #4]
 80063e4:	9002      	str	r0, [sp, #8]
 80063e6:	9103      	str	r1, [sp, #12]
 80063e8:	e7ff      	b.n	80063ea <_ZN4core3ptr14write_volatile17hc3a9a11ebe93fe7cE+0x10>
 80063ea:	9801      	ldr	r0, [sp, #4]
 80063ec:	2104      	movs	r1, #4
 80063ee:	f7fc fca3 	bl	8002d38 <_ZN4core3ptr14write_volatile18precondition_check17h71796cbeb0e4a0c6E>
 80063f2:	e7ff      	b.n	80063f4 <_ZN4core3ptr14write_volatile17hc3a9a11ebe93fe7cE+0x1a>
 80063f4:	9800      	ldr	r0, [sp, #0]
 80063f6:	9901      	ldr	r1, [sp, #4]
 80063f8:	6008      	str	r0, [r1, #0]
 80063fa:	b004      	add	sp, #16
 80063fc:	bd80      	pop	{r7, pc}

080063fe <_ZN4core3ptr5write17he804029afa2783ffE>:
 80063fe:	b082      	sub	sp, #8
 8006400:	9000      	str	r0, [sp, #0]
 8006402:	f8ad 1006 	strh.w	r1, [sp, #6]
 8006406:	8001      	strh	r1, [r0, #0]
 8006408:	b002      	add	sp, #8
 800640a:	4770      	bx	lr

0800640c <_ZN50_$LT$T$u20$as$u20$core..convert..Into$LT$U$GT$$GT$4into17hd0fa2a7d0802ab5aE>:
 800640c:	b081      	sub	sp, #4
 800640e:	f88d 0002 	strb.w	r0, [sp, #2]
 8006412:	f88d 0003 	strb.w	r0, [sp, #3]
 8006416:	f89d 0003 	ldrb.w	r0, [sp, #3]
 800641a:	b001      	add	sp, #4
 800641c:	4770      	bx	lr

0800641e <_ZN77_$LT$cortex_m..register..primask..Primask$u20$as$u20$core..cmp..PartialEq$GT$2eq17h654ac50b6d199cdaE>:
 800641e:	b084      	sub	sp, #16
 8006420:	9000      	str	r0, [sp, #0]
 8006422:	9101      	str	r1, [sp, #4]
 8006424:	7800      	ldrb	r0, [r0, #0]
 8006426:	f000 0001 	and.w	r0, r0, #1
 800642a:	9002      	str	r0, [sp, #8]
 800642c:	7809      	ldrb	r1, [r1, #0]
 800642e:	f001 0101 	and.w	r1, r1, #1
 8006432:	9103      	str	r1, [sp, #12]
 8006434:	1a40      	subs	r0, r0, r1
 8006436:	fab0 f080 	clz	r0, r0
 800643a:	0940      	lsrs	r0, r0, #5
 800643c:	b004      	add	sp, #16
 800643e:	4770      	bx	lr

08006440 <_ZN8cortex_m8register7primask4read17h0c45b4b05362937eE>:
 8006440:	b580      	push	{r7, lr}
 8006442:	466f      	mov	r7, sp
 8006444:	b082      	sub	sp, #8
 8006446:	f001 f8a4 	bl	8007592 <__primask_r>
 800644a:	9001      	str	r0, [sp, #4]
 800644c:	07c0      	lsls	r0, r0, #31
 800644e:	b920      	cbnz	r0, 800645a <_ZN8cortex_m8register7primask4read17h0c45b4b05362937eE+0x1a>
 8006450:	e7ff      	b.n	8006452 <_ZN8cortex_m8register7primask4read17h0c45b4b05362937eE+0x12>
 8006452:	2000      	movs	r0, #0
 8006454:	f807 0c05 	strb.w	r0, [r7, #-5]
 8006458:	e003      	b.n	8006462 <_ZN8cortex_m8register7primask4read17h0c45b4b05362937eE+0x22>
 800645a:	2001      	movs	r0, #1
 800645c:	f807 0c05 	strb.w	r0, [r7, #-5]
 8006460:	e7ff      	b.n	8006462 <_ZN8cortex_m8register7primask4read17h0c45b4b05362937eE+0x22>
 8006462:	f817 0c05 	ldrb.w	r0, [r7, #-5]
 8006466:	f000 0001 	and.w	r0, r0, #1
 800646a:	b002      	add	sp, #8
 800646c:	bd80      	pop	{r7, pc}

0800646e <_ZN8cortex_m8register7primask7Primask9is_active17ha67525881a96d369E>:
 800646e:	b580      	push	{r7, lr}
 8006470:	466f      	mov	r7, sp
 8006472:	b082      	sub	sp, #8
 8006474:	f807 0c01 	strb.w	r0, [r7, #-1]
 8006478:	f249 41f8 	movw	r1, #38136	; 0x94f8
 800647c:	f6c0 0100 	movt	r1, #2048	; 0x800
 8006480:	1e78      	subs	r0, r7, #1
 8006482:	f7ff ffcc 	bl	800641e <_ZN77_$LT$cortex_m..register..primask..Primask$u20$as$u20$core..cmp..PartialEq$GT$2eq17h654ac50b6d199cdaE>
 8006486:	b002      	add	sp, #8
 8006488:	bd80      	pop	{r7, pc}

0800648a <main>:
 800648a:	b580      	push	{r7, lr}
 800648c:	466f      	mov	r7, sp
 800648e:	b092      	sub	sp, #72	; 0x48
 8006490:	f7fc fcf9 	bl	8002e86 <_ZN4mem310checkpoint14initialization17ha814dc6fc78fdf63E>
 8006494:	f000 f854 	bl	8006540 <_ZN4mem36update17h4248c5713ac632eaE>
 8006498:	f249 5034 	movw	r0, #38196	; 0x9534
 800649c:	f6c0 0000 	movt	r0, #2048	; 0x800
 80064a0:	2116      	movs	r1, #22
 80064a2:	f000 fc86 	bl	8006db2 <_ZN20cortex_m_semihosting6export11hstdout_str17hd719d35de9bc1d18E>
 80064a6:	2000      	movs	r0, #0
 80064a8:	f7ff fcc6 	bl	8005e38 <checkpoint>
 80064ac:	2010      	movs	r0, #16
 80064ae:	f2c6 0000 	movt	r0, #24576	; 0x6000
 80064b2:	f64a 31cd 	movw	r1, #43981	; 0xabcd
 80064b6:	f000 ff88 	bl	80073ca <_ZN4core3ptr14write_volatile17h1107804f5d0d1450E>
 80064ba:	f04f 40c0 	mov.w	r0, #1610612736	; 0x60000000
 80064be:	f000 f8bd 	bl	800663c <_ZN4core3ptr13read_volatile17h1dff1005a19170c5E>
 80064c2:	f827 0c3e 	strh.w	r0, [r7, #-62]
 80064c6:	f1a7 013e 	sub.w	r1, r7, #62	; 0x3e
 80064ca:	910f      	str	r1, [sp, #60]	; 0x3c
 80064cc:	f642 505d 	movw	r0, #11613	; 0x2d5d
 80064d0:	f6c0 0000 	movt	r0, #2048	; 0x800
 80064d4:	9010      	str	r0, [sp, #64]	; 0x40
 80064d6:	910d      	str	r1, [sp, #52]	; 0x34
 80064d8:	900e      	str	r0, [sp, #56]	; 0x38
 80064da:	980d      	ldr	r0, [sp, #52]	; 0x34
 80064dc:	990e      	ldr	r1, [sp, #56]	; 0x38
 80064de:	910c      	str	r1, [sp, #48]	; 0x30
 80064e0:	900b      	str	r0, [sp, #44]	; 0x2c
 80064e2:	980b      	ldr	r0, [sp, #44]	; 0x2c
 80064e4:	990c      	ldr	r1, [sp, #48]	; 0x30
 80064e6:	910a      	str	r1, [sp, #40]	; 0x28
 80064e8:	9009      	str	r0, [sp, #36]	; 0x24
 80064ea:	4669      	mov	r1, sp
 80064ec:	2001      	movs	r0, #1
 80064ee:	6008      	str	r0, [r1, #0]
 80064f0:	f249 515c 	movw	r1, #38236	; 0x955c
 80064f4:	f6c0 0100 	movt	r1, #2048	; 0x800
 80064f8:	a803      	add	r0, sp, #12
 80064fa:	9001      	str	r0, [sp, #4]
 80064fc:	2202      	movs	r2, #2
 80064fe:	ab09      	add	r3, sp, #36	; 0x24
 8006500:	f7f9 feaf 	bl	8000262 <_ZN4core3fmt9Arguments6new_v117h3eb9fef7a16c6557E>
 8006504:	9801      	ldr	r0, [sp, #4]
 8006506:	f000 fcaf 	bl	8006e68 <_ZN20cortex_m_semihosting6export11hstdout_fmt17he820bff8a460a29eE>
 800650a:	f807 0c02 	strb.w	r0, [r7, #-2]
 800650e:	f817 0c02 	ldrb.w	r0, [r7, #-2]
 8006512:	07c0      	lsls	r0, r0, #31
 8006514:	b190      	cbz	r0, 800653c <main+0xb2>
 8006516:	e7ff      	b.n	8006518 <main+0x8e>
 8006518:	f249 5078 	movw	r0, #38264	; 0x9578
 800651c:	f6c0 0000 	movt	r0, #2048	; 0x800
 8006520:	4669      	mov	r1, sp
 8006522:	6008      	str	r0, [r1, #0]
 8006524:	f249 40f9 	movw	r0, #38137	; 0x94f9
 8006528:	f6c0 0000 	movt	r0, #2048	; 0x800
 800652c:	f249 5324 	movw	r3, #38180	; 0x9524
 8006530:	f6c0 0300 	movt	r3, #2048	; 0x800
 8006534:	212b      	movs	r1, #43	; 0x2b
 8006536:	1e7a      	subs	r2, r7, #1
 8006538:	f001 f8d4 	bl	80076e4 <_ZN4core6result13unwrap_failed17h1cc36b5a5c181ee4E>
 800653c:	e7ff      	b.n	800653e <main+0xb4>
 800653e:	e7fe      	b.n	800653e <main+0xb4>

08006540 <_ZN4mem36update17h4248c5713ac632eaE>:
 8006540:	b580      	push	{r7, lr}
 8006542:	466f      	mov	r7, sp
 8006544:	b084      	sub	sp, #16
 8006546:	2009      	movs	r0, #9
 8006548:	f827 0c02 	strh.w	r0, [r7, #-2]
 800654c:	f7ff fc5d 	bl	8005e0a <_ZN4mem310checkpoint12start_atomic17h17e593e1ea7f4a45E>
 8006550:	f240 0000 	movw	r0, #0
 8006554:	f2c6 0000 	movt	r0, #24576	; 0x6000
 8006558:	9000      	str	r0, [sp, #0]
 800655a:	f7f9 ff07 	bl	800036c <_ZN4core3mem11size_of_val17hfc21bfe817b3317aE>
 800655e:	4601      	mov	r1, r0
 8006560:	9800      	ldr	r0, [sp, #0]
 8006562:	f7fc fb10 	bl	8002b86 <_ZN4mem310checkpoint14save_variables17h9cace5e5938efc33E>
 8006566:	9900      	ldr	r1, [sp, #0]
 8006568:	2005      	movs	r0, #5
 800656a:	8008      	strh	r0, [r1, #0]
 800656c:	1eb8      	subs	r0, r7, #2
 800656e:	9001      	str	r0, [sp, #4]
 8006570:	f7f9 fefc 	bl	800036c <_ZN4core3mem11size_of_val17hfc21bfe817b3317aE>
 8006574:	4601      	mov	r1, r0
 8006576:	9801      	ldr	r0, [sp, #4]
 8006578:	f7fc fb05 	bl	8002b86 <_ZN4mem310checkpoint14save_variables17h9cace5e5938efc33E>
 800657c:	f837 0c02 	ldrh.w	r0, [r7, #-2]
 8006580:	1c81      	adds	r1, r0, #2
 8006582:	b288      	uxth	r0, r1
 8006584:	460a      	mov	r2, r1
 8006586:	9202      	str	r2, [sp, #8]
 8006588:	4288      	cmp	r0, r1
 800658a:	d107      	bne.n	800659c <_ZN4mem36update17h4248c5713ac632eaE+0x5c>
 800658c:	e7ff      	b.n	800658e <_ZN4mem36update17h4248c5713ac632eaE+0x4e>
 800658e:	9802      	ldr	r0, [sp, #8]
 8006590:	f827 0c02 	strh.w	r0, [r7, #-2]
 8006594:	f7ff fc40 	bl	8005e18 <_ZN4mem310checkpoint10end_atomic17h1df8a22faa6b19a4E>
 8006598:	b004      	add	sp, #16
 800659a:	bd80      	pop	{r7, pc}
 800659c:	f249 5088 	movw	r0, #38280	; 0x9588
 80065a0:	f6c0 0000 	movt	r0, #2048	; 0x800
 80065a4:	f001 ff83 	bl	80084ae <_ZN4core9panicking11panic_const24panic_const_add_overflow17hc13b23ef9a01f37bE>

080065a8 <_ZN50_$LT$T$u20$as$u20$core..convert..Into$LT$U$GT$$GT$4into17h65e6c423661941dfE>:
 80065a8:	b081      	sub	sp, #4
 80065aa:	f88d 0002 	strb.w	r0, [sp, #2]
 80065ae:	f88d 0003 	strb.w	r0, [sp, #3]
 80065b2:	f89d 0003 	ldrb.w	r0, [sp, #3]
 80065b6:	b001      	add	sp, #4
 80065b8:	4770      	bx	lr

080065ba <_ZN50_$LT$T$u20$as$u20$core..convert..Into$LT$U$GT$$GT$4into17h7f13e95ada7b88cdE>:
 80065ba:	b081      	sub	sp, #4
 80065bc:	f88d 0002 	strb.w	r0, [sp, #2]
 80065c0:	f88d 0003 	strb.w	r0, [sp, #3]
 80065c4:	f89d 0003 	ldrb.w	r0, [sp, #3]
 80065c8:	b001      	add	sp, #4
 80065ca:	4770      	bx	lr

080065cc <_ZN50_$LT$T$u20$as$u20$core..convert..Into$LT$U$GT$$GT$4into17hc364aac07f615d4fE>:
 80065cc:	b081      	sub	sp, #4
 80065ce:	f88d 0002 	strb.w	r0, [sp, #2]
 80065d2:	f88d 0003 	strb.w	r0, [sp, #3]
 80065d6:	f89d 0003 	ldrb.w	r0, [sp, #3]
 80065da:	b001      	add	sp, #4
 80065dc:	4770      	bx	lr

080065de <_ZN50_$LT$T$u20$as$u20$core..convert..Into$LT$U$GT$$GT$4into17hddf3750a964ed257E>:
 80065de:	b081      	sub	sp, #4
 80065e0:	f88d 0002 	strb.w	r0, [sp, #2]
 80065e4:	f88d 0003 	strb.w	r0, [sp, #3]
 80065e8:	f89d 0003 	ldrb.w	r0, [sp, #3]
 80065ec:	b001      	add	sp, #4
 80065ee:	4770      	bx	lr

080065f0 <_ZN50_$LT$T$u20$as$u20$core..convert..Into$LT$U$GT$$GT$4into17he22c4200a7a01755E>:
 80065f0:	b081      	sub	sp, #4
 80065f2:	f88d 0002 	strb.w	r0, [sp, #2]
 80065f6:	f88d 0003 	strb.w	r0, [sp, #3]
 80065fa:	f89d 0003 	ldrb.w	r0, [sp, #3]
 80065fe:	b001      	add	sp, #4
 8006600:	4770      	bx	lr

08006602 <_ZN50_$LT$T$u20$as$u20$core..convert..Into$LT$U$GT$$GT$4into17h59963b0761766895E>:
 8006602:	b081      	sub	sp, #4
 8006604:	f88d 0002 	strb.w	r0, [sp, #2]
 8006608:	f88d 0003 	strb.w	r0, [sp, #3]
 800660c:	f89d 0003 	ldrb.w	r0, [sp, #3]
 8006610:	b001      	add	sp, #4
 8006612:	4770      	bx	lr

08006614 <_ZN50_$LT$T$u20$as$u20$core..convert..Into$LT$U$GT$$GT$4into17h88312d17502d1b80E>:
 8006614:	b081      	sub	sp, #4
 8006616:	f88d 0002 	strb.w	r0, [sp, #2]
 800661a:	f88d 0003 	strb.w	r0, [sp, #3]
 800661e:	f89d 0003 	ldrb.w	r0, [sp, #3]
 8006622:	f000 0001 	and.w	r0, r0, #1
 8006626:	b001      	add	sp, #4
 8006628:	4770      	bx	lr

0800662a <_ZN50_$LT$T$u20$as$u20$core..convert..Into$LT$U$GT$$GT$4into17h5662f8df8ef25272E>:
 800662a:	b081      	sub	sp, #4
 800662c:	f88d 0002 	strb.w	r0, [sp, #2]
 8006630:	f88d 0003 	strb.w	r0, [sp, #3]
 8006634:	f89d 0003 	ldrb.w	r0, [sp, #3]
 8006638:	b001      	add	sp, #4
 800663a:	4770      	bx	lr

0800663c <_ZN4core3ptr13read_volatile17h1dff1005a19170c5E>:
 800663c:	b580      	push	{r7, lr}
 800663e:	466f      	mov	r7, sp
 8006640:	b084      	sub	sp, #16
 8006642:	9001      	str	r0, [sp, #4]
 8006644:	9002      	str	r0, [sp, #8]
 8006646:	e7ff      	b.n	8006648 <_ZN4core3ptr13read_volatile17h1dff1005a19170c5E+0xc>
 8006648:	9801      	ldr	r0, [sp, #4]
 800664a:	2102      	movs	r1, #2
 800664c:	f000 f809 	bl	8006662 <_ZN4core3ptr13read_volatile18precondition_check17hf739e19475752c85E>
 8006650:	e7ff      	b.n	8006652 <_ZN4core3ptr13read_volatile17h1dff1005a19170c5E+0x16>
 8006652:	9801      	ldr	r0, [sp, #4]
 8006654:	8800      	ldrh	r0, [r0, #0]
 8006656:	f827 0c02 	strh.w	r0, [r7, #-2]
 800665a:	f837 0c02 	ldrh.w	r0, [r7, #-2]
 800665e:	b004      	add	sp, #16
 8006660:	bd80      	pop	{r7, pc}

08006662 <_ZN4core3ptr13read_volatile18precondition_check17hf739e19475752c85E>:
 8006662:	b580      	push	{r7, lr}
 8006664:	466f      	mov	r7, sp
 8006666:	b082      	sub	sp, #8
 8006668:	9000      	str	r0, [sp, #0]
 800666a:	9101      	str	r1, [sp, #4]
 800666c:	f000 f80b 	bl	8006686 <_ZN4core9ub_checks23is_aligned_and_not_null17hc24ea9bb4e8306caE>
 8006670:	b938      	cbnz	r0, 8006682 <_ZN4core3ptr13read_volatile18precondition_check17hf739e19475752c85E+0x20>
 8006672:	e7ff      	b.n	8006674 <_ZN4core3ptr13read_volatile18precondition_check17hf739e19475752c85E+0x12>
 8006674:	f249 5098 	movw	r0, #38296	; 0x9598
 8006678:	f6c0 0000 	movt	r0, #2048	; 0x800
 800667c:	216e      	movs	r1, #110	; 0x6e
 800667e:	f000 ffe7 	bl	8007650 <_ZN4core9panicking14panic_nounwind17h012daec3df9df239E>
 8006682:	b002      	add	sp, #8
 8006684:	bd80      	pop	{r7, pc}

08006686 <_ZN4core9ub_checks23is_aligned_and_not_null17hc24ea9bb4e8306caE>:
 8006686:	b580      	push	{r7, lr}
 8006688:	466f      	mov	r7, sp
 800668a:	b090      	sub	sp, #64	; 0x40
 800668c:	9101      	str	r1, [sp, #4]
 800668e:	900a      	str	r0, [sp, #40]	; 0x28
 8006690:	910b      	str	r1, [sp, #44]	; 0x2c
 8006692:	900c      	str	r0, [sp, #48]	; 0x30
 8006694:	4601      	mov	r1, r0
 8006696:	9102      	str	r1, [sp, #8]
 8006698:	b920      	cbnz	r0, 80066a4 <_ZN4core9ub_checks23is_aligned_and_not_null17hc24ea9bb4e8306caE+0x1e>
 800669a:	e7ff      	b.n	800669c <_ZN4core9ub_checks23is_aligned_and_not_null17hc24ea9bb4e8306caE+0x16>
 800669c:	2000      	movs	r0, #0
 800669e:	f807 0c31 	strb.w	r0, [r7, #-49]
 80066a2:	e019      	b.n	80066d8 <_ZN4core9ub_checks23is_aligned_and_not_null17hc24ea9bb4e8306caE+0x52>
 80066a4:	9801      	ldr	r0, [sp, #4]
 80066a6:	f04f 3155 	mov.w	r1, #1431655765	; 0x55555555
 80066aa:	ea01 0150 	and.w	r1, r1, r0, lsr #1
 80066ae:	1a40      	subs	r0, r0, r1
 80066b0:	f04f 3133 	mov.w	r1, #858993459	; 0x33333333
 80066b4:	ea01 0190 	and.w	r1, r1, r0, lsr #2
 80066b8:	f020 30cc 	bic.w	r0, r0, #3435973836	; 0xcccccccc
 80066bc:	4408      	add	r0, r1
 80066be:	eb00 1010 	add.w	r0, r0, r0, lsr #4
 80066c2:	f020 30f0 	bic.w	r0, r0, #4042322160	; 0xf0f0f0f0
 80066c6:	f04f 3101 	mov.w	r1, #16843009	; 0x1010101
 80066ca:	4348      	muls	r0, r1
 80066cc:	0e00      	lsrs	r0, r0, #24
 80066ce:	900d      	str	r0, [sp, #52]	; 0x34
 80066d0:	980d      	ldr	r0, [sp, #52]	; 0x34
 80066d2:	2801      	cmp	r0, #1
 80066d4:	d006      	beq.n	80066e4 <_ZN4core9ub_checks23is_aligned_and_not_null17hc24ea9bb4e8306caE+0x5e>
 80066d6:	e00f      	b.n	80066f8 <_ZN4core9ub_checks23is_aligned_and_not_null17hc24ea9bb4e8306caE+0x72>
 80066d8:	f817 0c31 	ldrb.w	r0, [r7, #-49]
 80066dc:	f000 0001 	and.w	r0, r0, #1
 80066e0:	b010      	add	sp, #64	; 0x40
 80066e2:	bd80      	pop	{r7, pc}
 80066e4:	9802      	ldr	r0, [sp, #8]
 80066e6:	9901      	ldr	r1, [sp, #4]
 80066e8:	3901      	subs	r1, #1
 80066ea:	4008      	ands	r0, r1
 80066ec:	fab0 f080 	clz	r0, r0
 80066f0:	0940      	lsrs	r0, r0, #5
 80066f2:	f807 0c31 	strb.w	r0, [r7, #-49]
 80066f6:	e7ef      	b.n	80066d8 <_ZN4core9ub_checks23is_aligned_and_not_null17hc24ea9bb4e8306caE+0x52>
 80066f8:	f249 6130 	movw	r1, #38448	; 0x9630
 80066fc:	f6c0 0100 	movt	r1, #2048	; 0x800
 8006700:	910e      	str	r1, [sp, #56]	; 0x38
 8006702:	2001      	movs	r0, #1
 8006704:	900f      	str	r0, [sp, #60]	; 0x3c
 8006706:	9104      	str	r1, [sp, #16]
 8006708:	9005      	str	r0, [sp, #20]
 800670a:	f648 2028 	movw	r0, #35368	; 0x8a28
 800670e:	f6c0 0000 	movt	r0, #2048	; 0x800
 8006712:	6801      	ldr	r1, [r0, #0]
 8006714:	6840      	ldr	r0, [r0, #4]
 8006716:	9108      	str	r1, [sp, #32]
 8006718:	9009      	str	r0, [sp, #36]	; 0x24
 800671a:	2004      	movs	r0, #4
 800671c:	9006      	str	r0, [sp, #24]
 800671e:	2000      	movs	r0, #0
 8006720:	9007      	str	r0, [sp, #28]
 8006722:	f249 618c 	movw	r1, #38540	; 0x968c
 8006726:	f6c0 0100 	movt	r1, #2048	; 0x800
 800672a:	a804      	add	r0, sp, #16
 800672c:	f000 ff51 	bl	80075d2 <_ZN4core9panicking9panic_fmt17hfc78cf87d9b52ef4E>

08006730 <_ZN106_$LT$core..ops..range..Range$LT$usize$GT$$u20$as$u20$core..slice..index..SliceIndex$LT$$u5b$T$u5d$$GT$$GT$17get_unchecked_mut17hd5c1adae187e8681E>:
 8006730:	b580      	push	{r7, lr}
 8006732:	466f      	mov	r7, sp
 8006734:	b092      	sub	sp, #72	; 0x48
 8006736:	9301      	str	r3, [sp, #4]
 8006738:	9202      	str	r2, [sp, #8]
 800673a:	9103      	str	r1, [sp, #12]
 800673c:	9004      	str	r0, [sp, #16]
 800673e:	9007      	str	r0, [sp, #28]
 8006740:	9108      	str	r1, [sp, #32]
 8006742:	9209      	str	r2, [sp, #36]	; 0x24
 8006744:	930a      	str	r3, [sp, #40]	; 0x28
 8006746:	e7ff      	b.n	8006748 <_ZN106_$LT$core..ops..range..Range$LT$usize$GT$$u20$as$u20$core..slice..index..SliceIndex$LT$$u5b$T$u5d$$GT$$GT$17get_unchecked_mut17hd5c1adae187e8681E+0x18>
 8006748:	9903      	ldr	r1, [sp, #12]
 800674a:	9804      	ldr	r0, [sp, #16]
 800674c:	9a01      	ldr	r2, [sp, #4]
 800674e:	9b02      	ldr	r3, [sp, #8]
 8006750:	930b      	str	r3, [sp, #44]	; 0x2c
 8006752:	920c      	str	r2, [sp, #48]	; 0x30
 8006754:	9305      	str	r3, [sp, #20]
 8006756:	9206      	str	r2, [sp, #24]
 8006758:	9a06      	ldr	r2, [sp, #24]
 800675a:	f000 f80d 	bl	8006778 <_ZN106_$LT$core..ops..range..Range$LT$usize$GT$$u20$as$u20$core..slice..index..SliceIndex$LT$$u5b$T$u5d$$GT$$GT$17get_unchecked_mut18precondition_check17hebde1a9013f4d27aE>
 800675e:	e7ff      	b.n	8006760 <_ZN106_$LT$core..ops..range..Range$LT$usize$GT$$u20$as$u20$core..slice..index..SliceIndex$LT$$u5b$T$u5d$$GT$$GT$17get_unchecked_mut17hd5c1adae187e8681E+0x30>
 8006760:	9802      	ldr	r0, [sp, #8]
 8006762:	9a04      	ldr	r2, [sp, #16]
 8006764:	9903      	ldr	r1, [sp, #12]
 8006766:	920d      	str	r2, [sp, #52]	; 0x34
 8006768:	1a89      	subs	r1, r1, r2
 800676a:	910e      	str	r1, [sp, #56]	; 0x38
 800676c:	900f      	str	r0, [sp, #60]	; 0x3c
 800676e:	4410      	add	r0, r2
 8006770:	9010      	str	r0, [sp, #64]	; 0x40
 8006772:	9011      	str	r0, [sp, #68]	; 0x44
 8006774:	b012      	add	sp, #72	; 0x48
 8006776:	bd80      	pop	{r7, pc}

08006778 <_ZN106_$LT$core..ops..range..Range$LT$usize$GT$$u20$as$u20$core..slice..index..SliceIndex$LT$$u5b$T$u5d$$GT$$GT$17get_unchecked_mut18precondition_check17hebde1a9013f4d27aE>:
 8006778:	b580      	push	{r7, lr}
 800677a:	466f      	mov	r7, sp
 800677c:	b086      	sub	sp, #24
 800677e:	9201      	str	r2, [sp, #4]
 8006780:	9102      	str	r1, [sp, #8]
 8006782:	9003      	str	r0, [sp, #12]
 8006784:	9104      	str	r1, [sp, #16]
 8006786:	9205      	str	r2, [sp, #20]
 8006788:	4281      	cmp	r1, r0
 800678a:	d207      	bcs.n	800679c <_ZN106_$LT$core..ops..range..Range$LT$usize$GT$$u20$as$u20$core..slice..index..SliceIndex$LT$$u5b$T$u5d$$GT$$GT$17get_unchecked_mut18precondition_check17hebde1a9013f4d27aE+0x24>
 800678c:	e7ff      	b.n	800678e <_ZN106_$LT$core..ops..range..Range$LT$usize$GT$$u20$as$u20$core..slice..index..SliceIndex$LT$$u5b$T$u5d$$GT$$GT$17get_unchecked_mut18precondition_check17hebde1a9013f4d27aE+0x16>
 800678e:	f249 609c 	movw	r0, #38556	; 0x969c
 8006792:	f6c0 0000 	movt	r0, #2048	; 0x800
 8006796:	2165      	movs	r1, #101	; 0x65
 8006798:	f000 ff5a 	bl	8007650 <_ZN4core9panicking14panic_nounwind17h012daec3df9df239E>
 800679c:	9802      	ldr	r0, [sp, #8]
 800679e:	9901      	ldr	r1, [sp, #4]
 80067a0:	4288      	cmp	r0, r1
 80067a2:	d8f4      	bhi.n	800678e <_ZN106_$LT$core..ops..range..Range$LT$usize$GT$$u20$as$u20$core..slice..index..SliceIndex$LT$$u5b$T$u5d$$GT$$GT$17get_unchecked_mut18precondition_check17hebde1a9013f4d27aE+0x16>
 80067a4:	e7ff      	b.n	80067a6 <_ZN106_$LT$core..ops..range..Range$LT$usize$GT$$u20$as$u20$core..slice..index..SliceIndex$LT$$u5b$T$u5d$$GT$$GT$17get_unchecked_mut18precondition_check17hebde1a9013f4d27aE+0x2e>
 80067a6:	b006      	add	sp, #24
 80067a8:	bd80      	pop	{r7, pc}

080067aa <_ZN106_$LT$core..ops..range..Range$LT$usize$GT$$u20$as$u20$core..slice..index..SliceIndex$LT$$u5b$T$u5d$$GT$$GT$9index_mut17hd79877ef8bc463e2E>:
 80067aa:	b580      	push	{r7, lr}
 80067ac:	466f      	mov	r7, sp
 80067ae:	b08a      	sub	sp, #40	; 0x28
 80067b0:	9301      	str	r3, [sp, #4]
 80067b2:	9202      	str	r2, [sp, #8]
 80067b4:	9103      	str	r1, [sp, #12]
 80067b6:	9004      	str	r0, [sp, #16]
 80067b8:	f8d7 c008 	ldr.w	ip, [r7, #8]
 80067bc:	f8cd c014 	str.w	ip, [sp, #20]
 80067c0:	9006      	str	r0, [sp, #24]
 80067c2:	9107      	str	r1, [sp, #28]
 80067c4:	9208      	str	r2, [sp, #32]
 80067c6:	9309      	str	r3, [sp, #36]	; 0x24
 80067c8:	4288      	cmp	r0, r1
 80067ca:	d805      	bhi.n	80067d8 <_ZN106_$LT$core..ops..range..Range$LT$usize$GT$$u20$as$u20$core..slice..index..SliceIndex$LT$$u5b$T$u5d$$GT$$GT$9index_mut17hd79877ef8bc463e2E+0x2e>
 80067cc:	e7ff      	b.n	80067ce <_ZN106_$LT$core..ops..range..Range$LT$usize$GT$$u20$as$u20$core..slice..index..SliceIndex$LT$$u5b$T$u5d$$GT$$GT$9index_mut17hd79877ef8bc463e2E+0x24>
 80067ce:	9803      	ldr	r0, [sp, #12]
 80067d0:	9901      	ldr	r1, [sp, #4]
 80067d2:	4288      	cmp	r0, r1
 80067d4:	d80d      	bhi.n	80067f2 <_ZN106_$LT$core..ops..range..Range$LT$usize$GT$$u20$as$u20$core..slice..index..SliceIndex$LT$$u5b$T$u5d$$GT$$GT$9index_mut17hd79877ef8bc463e2E+0x48>
 80067d6:	e004      	b.n	80067e2 <_ZN106_$LT$core..ops..range..Range$LT$usize$GT$$u20$as$u20$core..slice..index..SliceIndex$LT$$u5b$T$u5d$$GT$$GT$9index_mut17hd79877ef8bc463e2E+0x38>
 80067d8:	9a05      	ldr	r2, [sp, #20]
 80067da:	9903      	ldr	r1, [sp, #12]
 80067dc:	9804      	ldr	r0, [sp, #16]
 80067de:	f001 fbd7 	bl	8007f90 <_ZN4core5slice5index22slice_index_order_fail17hfefde59e6785f7c7E>
 80067e2:	9b01      	ldr	r3, [sp, #4]
 80067e4:	9a02      	ldr	r2, [sp, #8]
 80067e6:	9903      	ldr	r1, [sp, #12]
 80067e8:	9804      	ldr	r0, [sp, #16]
 80067ea:	f7ff ffa1 	bl	8006730 <_ZN106_$LT$core..ops..range..Range$LT$usize$GT$$u20$as$u20$core..slice..index..SliceIndex$LT$$u5b$T$u5d$$GT$$GT$17get_unchecked_mut17hd5c1adae187e8681E>
 80067ee:	b00a      	add	sp, #40	; 0x28
 80067f0:	bd80      	pop	{r7, pc}
 80067f2:	9a05      	ldr	r2, [sp, #20]
 80067f4:	9901      	ldr	r1, [sp, #4]
 80067f6:	9803      	ldr	r0, [sp, #12]
 80067f8:	f001 fba7 	bl	8007f4a <_ZN4core5slice5index24slice_end_index_len_fail17hb6f0afad2237fa38E>

080067fc <_ZN153_$LT$core..result..Result$LT$T$C$F$GT$$u20$as$u20$core..ops..try_trait..FromResidual$LT$core..result..Result$LT$core..convert..Infallible$C$E$GT$$GT$$GT$13from_residual17h0130a83a5c10ce33E>:
 80067fc:	b081      	sub	sp, #4
 80067fe:	2001      	movs	r0, #1
 8006800:	f88d 0001 	strb.w	r0, [sp, #1]
 8006804:	f89d 0001 	ldrb.w	r0, [sp, #1]
 8006808:	f000 0001 	and.w	r0, r0, #1
 800680c:	b001      	add	sp, #4
 800680e:	4770      	bx	lr

08006810 <_ZN4core3fmt5Write10write_char17h9b17dd23b51e0e66E>:
 8006810:	b580      	push	{r7, lr}
 8006812:	466f      	mov	r7, sp
 8006814:	b08a      	sub	sp, #40	; 0x28
 8006816:	9100      	str	r1, [sp, #0]
 8006818:	4601      	mov	r1, r0
 800681a:	9800      	ldr	r0, [sp, #0]
 800681c:	9101      	str	r1, [sp, #4]
 800681e:	9104      	str	r1, [sp, #16]
 8006820:	9005      	str	r0, [sp, #20]
 8006822:	2100      	movs	r1, #0
 8006824:	9103      	str	r1, [sp, #12]
 8006826:	a903      	add	r1, sp, #12
 8006828:	9106      	str	r1, [sp, #24]
 800682a:	2204      	movs	r2, #4
 800682c:	9207      	str	r2, [sp, #28]
 800682e:	f000 f873 	bl	8006918 <_ZN4core4char7methods15encode_utf8_raw17h3b0a6d75e22360ddE>
 8006832:	4602      	mov	r2, r0
 8006834:	9801      	ldr	r0, [sp, #4]
 8006836:	9202      	str	r2, [sp, #8]
 8006838:	460a      	mov	r2, r1
 800683a:	9902      	ldr	r1, [sp, #8]
 800683c:	9108      	str	r1, [sp, #32]
 800683e:	9209      	str	r2, [sp, #36]	; 0x24
 8006840:	f000 fb7d 	bl	8006f3e <_ZN71_$LT$cortex_m_semihosting..hio..HStdout$u20$as$u20$core..fmt..Write$GT$9write_str17h9bfbd1a917144f66E>
 8006844:	b00a      	add	sp, #40	; 0x28
 8006846:	bd80      	pop	{r7, pc}

08006848 <_ZN4core3fmt5Write9write_fmt17hf59b7ebaac051679E>:
 8006848:	b580      	push	{r7, lr}
 800684a:	466f      	mov	r7, sp
 800684c:	b082      	sub	sp, #8
 800684e:	9001      	str	r0, [sp, #4]
 8006850:	f000 f9da 	bl	8006c08 <_ZN75_$LT$$RF$mut$u20$W$u20$as$u20$core..fmt..Write..write_fmt..SpecWriteFmt$GT$14spec_write_fmt17h015e5840c8c7f8e6E>
 8006854:	b002      	add	sp, #8
 8006856:	bd80      	pop	{r7, pc}

08006858 <_ZN4core3fmt9Arguments23as_statically_known_str17h7fce4e8f02c3f977E>:
 8006858:	b08c      	sub	sp, #48	; 0x30
 800685a:	4601      	mov	r1, r0
 800685c:	9108      	str	r1, [sp, #32]
 800685e:	6808      	ldr	r0, [r1, #0]
 8006860:	9000      	str	r0, [sp, #0]
 8006862:	6848      	ldr	r0, [r1, #4]
 8006864:	9001      	str	r0, [sp, #4]
 8006866:	68c9      	ldr	r1, [r1, #12]
 8006868:	9102      	str	r1, [sp, #8]
 800686a:	b918      	cbnz	r0, 8006874 <_ZN4core3fmt9Arguments23as_statically_known_str17h7fce4e8f02c3f977E+0x1c>
 800686c:	e7ff      	b.n	800686e <_ZN4core3fmt9Arguments23as_statically_known_str17h7fce4e8f02c3f977E+0x16>
 800686e:	9802      	ldr	r0, [sp, #8]
 8006870:	b120      	cbz	r0, 800687c <_ZN4core3fmt9Arguments23as_statically_known_str17h7fce4e8f02c3f977E+0x24>
 8006872:	e008      	b.n	8006886 <_ZN4core3fmt9Arguments23as_statically_known_str17h7fce4e8f02c3f977E+0x2e>
 8006874:	9801      	ldr	r0, [sp, #4]
 8006876:	2801      	cmp	r0, #1
 8006878:	d013      	beq.n	80068a2 <_ZN4core3fmt9Arguments23as_statically_known_str17h7fce4e8f02c3f977E+0x4a>
 800687a:	e004      	b.n	8006886 <_ZN4core3fmt9Arguments23as_statically_known_str17h7fce4e8f02c3f977E+0x2e>
 800687c:	2001      	movs	r0, #1
 800687e:	9005      	str	r0, [sp, #20]
 8006880:	2000      	movs	r0, #0
 8006882:	9006      	str	r0, [sp, #24]
 8006884:	e008      	b.n	8006898 <_ZN4core3fmt9Arguments23as_statically_known_str17h7fce4e8f02c3f977E+0x40>
 8006886:	f648 2028 	movw	r0, #35368	; 0x8a28
 800688a:	f6c0 0000 	movt	r0, #2048	; 0x800
 800688e:	6801      	ldr	r1, [r0, #0]
 8006890:	6840      	ldr	r0, [r0, #4]
 8006892:	9105      	str	r1, [sp, #20]
 8006894:	9006      	str	r0, [sp, #24]
 8006896:	e7ff      	b.n	8006898 <_ZN4core3fmt9Arguments23as_statically_known_str17h7fce4e8f02c3f977E+0x40>
 8006898:	a805      	add	r0, sp, #20
 800689a:	900a      	str	r0, [sp, #40]	; 0x28
 800689c:	9805      	ldr	r0, [sp, #20]
 800689e:	b958      	cbnz	r0, 80068b8 <_ZN4core3fmt9Arguments23as_statically_known_str17h7fce4e8f02c3f977E+0x60>
 80068a0:	e00e      	b.n	80068c0 <_ZN4core3fmt9Arguments23as_statically_known_str17h7fce4e8f02c3f977E+0x68>
 80068a2:	9802      	ldr	r0, [sp, #8]
 80068a4:	2800      	cmp	r0, #0
 80068a6:	d1ee      	bne.n	8006886 <_ZN4core3fmt9Arguments23as_statically_known_str17h7fce4e8f02c3f977E+0x2e>
 80068a8:	e7ff      	b.n	80068aa <_ZN4core3fmt9Arguments23as_statically_known_str17h7fce4e8f02c3f977E+0x52>
 80068aa:	9800      	ldr	r0, [sp, #0]
 80068ac:	9009      	str	r0, [sp, #36]	; 0x24
 80068ae:	6801      	ldr	r1, [r0, #0]
 80068b0:	6840      	ldr	r0, [r0, #4]
 80068b2:	9105      	str	r1, [sp, #20]
 80068b4:	9006      	str	r0, [sp, #24]
 80068b6:	e7ef      	b.n	8006898 <_ZN4core3fmt9Arguments23as_statically_known_str17h7fce4e8f02c3f977E+0x40>
 80068b8:	2001      	movs	r0, #1
 80068ba:	f88d 001f 	strb.w	r0, [sp, #31]
 80068be:	e003      	b.n	80068c8 <_ZN4core3fmt9Arguments23as_statically_known_str17h7fce4e8f02c3f977E+0x70>
 80068c0:	2000      	movs	r0, #0
 80068c2:	f88d 001f 	strb.w	r0, [sp, #31]
 80068c6:	e7ff      	b.n	80068c8 <_ZN4core3fmt9Arguments23as_statically_known_str17h7fce4e8f02c3f977E+0x70>
 80068c8:	2000      	movs	r0, #0
 80068ca:	f88d 002f 	strb.w	r0, [sp, #47]	; 0x2f
 80068ce:	f89d 002f 	ldrb.w	r0, [sp, #47]	; 0x2f
 80068d2:	07c0      	lsls	r0, r0, #31
 80068d4:	b948      	cbnz	r0, 80068ea <_ZN4core3fmt9Arguments23as_statically_known_str17h7fce4e8f02c3f977E+0x92>
 80068d6:	e7ff      	b.n	80068d8 <_ZN4core3fmt9Arguments23as_statically_known_str17h7fce4e8f02c3f977E+0x80>
 80068d8:	f648 2028 	movw	r0, #35368	; 0x8a28
 80068dc:	f6c0 0000 	movt	r0, #2048	; 0x800
 80068e0:	6801      	ldr	r1, [r0, #0]
 80068e2:	6840      	ldr	r0, [r0, #4]
 80068e4:	9103      	str	r1, [sp, #12]
 80068e6:	9004      	str	r0, [sp, #16]
 80068e8:	e004      	b.n	80068f4 <_ZN4core3fmt9Arguments23as_statically_known_str17h7fce4e8f02c3f977E+0x9c>
 80068ea:	9905      	ldr	r1, [sp, #20]
 80068ec:	9806      	ldr	r0, [sp, #24]
 80068ee:	9103      	str	r1, [sp, #12]
 80068f0:	9004      	str	r0, [sp, #16]
 80068f2:	e7ff      	b.n	80068f4 <_ZN4core3fmt9Arguments23as_statically_known_str17h7fce4e8f02c3f977E+0x9c>
 80068f4:	9803      	ldr	r0, [sp, #12]
 80068f6:	9904      	ldr	r1, [sp, #16]
 80068f8:	b00c      	add	sp, #48	; 0x30
 80068fa:	4770      	bx	lr

080068fc <_ZN4core3mem4drop17he3404362b56cc7bbE>:
 80068fc:	b081      	sub	sp, #4
 80068fe:	b001      	add	sp, #4
 8006900:	4770      	bx	lr

08006902 <_ZN4core3ops8function6FnOnce9call_once17hea03ded65983c393E>:
 8006902:	b580      	push	{r7, lr}
 8006904:	466f      	mov	r7, sp
 8006906:	b082      	sub	sp, #8
 8006908:	f7ff fff8 	bl	80068fc <_ZN4core3mem4drop17he3404362b56cc7bbE>
 800690c:	b002      	add	sp, #8
 800690e:	bd80      	pop	{r7, pc}

08006910 <_ZN4core3ptr55drop_in_place$LT$cortex_m_semihosting..hio..HStdout$GT$17hfdd53b9fdcd5ead5E>:
 8006910:	b081      	sub	sp, #4
 8006912:	9000      	str	r0, [sp, #0]
 8006914:	b001      	add	sp, #4
 8006916:	4770      	bx	lr

08006918 <_ZN4core4char7methods15encode_utf8_raw17h3b0a6d75e22360ddE>:
 8006918:	b580      	push	{r7, lr}
 800691a:	466f      	mov	r7, sp
 800691c:	b0c4      	sub	sp, #272	; 0x110
 800691e:	9203      	str	r2, [sp, #12]
 8006920:	9104      	str	r1, [sp, #16]
 8006922:	9007      	str	r0, [sp, #28]
 8006924:	912a      	str	r1, [sp, #168]	; 0xa8
 8006926:	922b      	str	r2, [sp, #172]	; 0xac
 8006928:	9807      	ldr	r0, [sp, #28]
 800692a:	9005      	str	r0, [sp, #20]
 800692c:	902c      	str	r0, [sp, #176]	; 0xb0
 800692e:	2880      	cmp	r0, #128	; 0x80
 8006930:	d305      	bcc.n	800693e <_ZN4core4char7methods15encode_utf8_raw17h3b0a6d75e22360ddE+0x26>
 8006932:	e7ff      	b.n	8006934 <_ZN4core4char7methods15encode_utf8_raw17h3b0a6d75e22360ddE+0x1c>
 8006934:	9805      	ldr	r0, [sp, #20]
 8006936:	f5b0 6f00 	cmp.w	r0, #2048	; 0x800
 800693a:	d308      	bcc.n	800694e <_ZN4core4char7methods15encode_utf8_raw17h3b0a6d75e22360ddE+0x36>
 800693c:	e002      	b.n	8006944 <_ZN4core4char7methods15encode_utf8_raw17h3b0a6d75e22360ddE+0x2c>
 800693e:	2001      	movs	r0, #1
 8006940:	9008      	str	r0, [sp, #32]
 8006942:	e00f      	b.n	8006964 <_ZN4core4char7methods15encode_utf8_raw17h3b0a6d75e22360ddE+0x4c>
 8006944:	9805      	ldr	r0, [sp, #20]
 8006946:	f5b0 3f80 	cmp.w	r0, #65536	; 0x10000
 800694a:	d306      	bcc.n	800695a <_ZN4core4char7methods15encode_utf8_raw17h3b0a6d75e22360ddE+0x42>
 800694c:	e002      	b.n	8006954 <_ZN4core4char7methods15encode_utf8_raw17h3b0a6d75e22360ddE+0x3c>
 800694e:	2002      	movs	r0, #2
 8006950:	9008      	str	r0, [sp, #32]
 8006952:	e006      	b.n	8006962 <_ZN4core4char7methods15encode_utf8_raw17h3b0a6d75e22360ddE+0x4a>
 8006954:	2004      	movs	r0, #4
 8006956:	9008      	str	r0, [sp, #32]
 8006958:	e002      	b.n	8006960 <_ZN4core4char7methods15encode_utf8_raw17h3b0a6d75e22360ddE+0x48>
 800695a:	2003      	movs	r0, #3
 800695c:	9008      	str	r0, [sp, #32]
 800695e:	e7ff      	b.n	8006960 <_ZN4core4char7methods15encode_utf8_raw17h3b0a6d75e22360ddE+0x48>
 8006960:	e7ff      	b.n	8006962 <_ZN4core4char7methods15encode_utf8_raw17h3b0a6d75e22360ddE+0x4a>
 8006962:	e7ff      	b.n	8006964 <_ZN4core4char7methods15encode_utf8_raw17h3b0a6d75e22360ddE+0x4c>
 8006964:	9808      	ldr	r0, [sp, #32]
 8006966:	3801      	subs	r0, #1
 8006968:	4601      	mov	r1, r0
 800696a:	9102      	str	r1, [sp, #8]
 800696c:	2803      	cmp	r0, #3
 800696e:	d804      	bhi.n	800697a <_ZN4core4char7methods15encode_utf8_raw17h3b0a6d75e22360ddE+0x62>
 8006970:	9902      	ldr	r1, [sp, #8]
 8006972:	e8df f001 	tbb	[pc, r1]
 8006976:	4845      	.short	0x4845
 8006978:	504c      	.short	0x504c
 800697a:	9a03      	ldr	r2, [sp, #12]
 800697c:	f249 70a0 	movw	r0, #38816	; 0x97a0
 8006980:	f6c0 0000 	movt	r0, #2048	; 0x800
 8006984:	9038      	str	r0, [sp, #224]	; 0xe0
 8006986:	2003      	movs	r0, #3
 8006988:	9039      	str	r0, [sp, #228]	; 0xe4
 800698a:	ab08      	add	r3, sp, #32
 800698c:	933a      	str	r3, [sp, #232]	; 0xe8
 800698e:	f648 01f5 	movw	r1, #35061	; 0x88f5
 8006992:	f6c0 0100 	movt	r1, #2048	; 0x800
 8006996:	913b      	str	r1, [sp, #236]	; 0xec
 8006998:	931c      	str	r3, [sp, #112]	; 0x70
 800699a:	911d      	str	r1, [sp, #116]	; 0x74
 800699c:	9b1c      	ldr	r3, [sp, #112]	; 0x70
 800699e:	f8dd c074 	ldr.w	ip, [sp, #116]	; 0x74
 80069a2:	f8cd c058 	str.w	ip, [sp, #88]	; 0x58
 80069a6:	9315      	str	r3, [sp, #84]	; 0x54
 80069a8:	f10d 0c1c 	add.w	ip, sp, #28
 80069ac:	f8cd c0f0 	str.w	ip, [sp, #240]	; 0xf0
 80069b0:	f248 7371 	movw	r3, #34673	; 0x8771
 80069b4:	f6c0 0300 	movt	r3, #2048	; 0x800
 80069b8:	933d      	str	r3, [sp, #244]	; 0xf4
 80069ba:	f8cd c078 	str.w	ip, [sp, #120]	; 0x78
 80069be:	931f      	str	r3, [sp, #124]	; 0x7c
 80069c0:	9b1e      	ldr	r3, [sp, #120]	; 0x78
 80069c2:	f8dd c07c 	ldr.w	ip, [sp, #124]	; 0x7c
 80069c6:	f8cd c060 	str.w	ip, [sp, #96]	; 0x60
 80069ca:	9317      	str	r3, [sp, #92]	; 0x5c
 80069cc:	921b      	str	r2, [sp, #108]	; 0x6c
 80069ce:	aa1b      	add	r2, sp, #108	; 0x6c
 80069d0:	923e      	str	r2, [sp, #248]	; 0xf8
 80069d2:	913f      	str	r1, [sp, #252]	; 0xfc
 80069d4:	9220      	str	r2, [sp, #128]	; 0x80
 80069d6:	9121      	str	r1, [sp, #132]	; 0x84
 80069d8:	9920      	ldr	r1, [sp, #128]	; 0x80
 80069da:	9a21      	ldr	r2, [sp, #132]	; 0x84
 80069dc:	921a      	str	r2, [sp, #104]	; 0x68
 80069de:	9119      	str	r1, [sp, #100]	; 0x64
 80069e0:	9915      	ldr	r1, [sp, #84]	; 0x54
 80069e2:	9a16      	ldr	r2, [sp, #88]	; 0x58
 80069e4:	9210      	str	r2, [sp, #64]	; 0x40
 80069e6:	910f      	str	r1, [sp, #60]	; 0x3c
 80069e8:	9917      	ldr	r1, [sp, #92]	; 0x5c
 80069ea:	9a18      	ldr	r2, [sp, #96]	; 0x60
 80069ec:	9212      	str	r2, [sp, #72]	; 0x48
 80069ee:	9111      	str	r1, [sp, #68]	; 0x44
 80069f0:	9919      	ldr	r1, [sp, #100]	; 0x64
 80069f2:	9a1a      	ldr	r2, [sp, #104]	; 0x68
 80069f4:	9214      	str	r2, [sp, #80]	; 0x50
 80069f6:	9113      	str	r1, [sp, #76]	; 0x4c
 80069f8:	a90f      	add	r1, sp, #60	; 0x3c
 80069fa:	9140      	str	r1, [sp, #256]	; 0x100
 80069fc:	9041      	str	r0, [sp, #260]	; 0x104
 80069fe:	e06f      	b.n	8006ae0 <_ZN4core4char7methods15encode_utf8_raw17h3b0a6d75e22360ddE+0x1c8>
 8006a00:	9803      	ldr	r0, [sp, #12]
 8006a02:	b960      	cbnz	r0, 8006a1e <_ZN4core4char7methods15encode_utf8_raw17h3b0a6d75e22360ddE+0x106>
 8006a04:	e7b9      	b.n	800697a <_ZN4core4char7methods15encode_utf8_raw17h3b0a6d75e22360ddE+0x62>
 8006a06:	9803      	ldr	r0, [sp, #12]
 8006a08:	2801      	cmp	r0, #1
 8006a0a:	d821      	bhi.n	8006a50 <_ZN4core4char7methods15encode_utf8_raw17h3b0a6d75e22360ddE+0x138>
 8006a0c:	e7b5      	b.n	800697a <_ZN4core4char7methods15encode_utf8_raw17h3b0a6d75e22360ddE+0x62>
 8006a0e:	9803      	ldr	r0, [sp, #12]
 8006a10:	2802      	cmp	r0, #2
 8006a12:	d82e      	bhi.n	8006a72 <_ZN4core4char7methods15encode_utf8_raw17h3b0a6d75e22360ddE+0x15a>
 8006a14:	e7b1      	b.n	800697a <_ZN4core4char7methods15encode_utf8_raw17h3b0a6d75e22360ddE+0x62>
 8006a16:	9803      	ldr	r0, [sp, #12]
 8006a18:	2803      	cmp	r0, #3
 8006a1a:	d842      	bhi.n	8006aa2 <_ZN4core4char7methods15encode_utf8_raw17h3b0a6d75e22360ddE+0x18a>
 8006a1c:	e7ad      	b.n	800697a <_ZN4core4char7methods15encode_utf8_raw17h3b0a6d75e22360ddE+0x62>
 8006a1e:	9904      	ldr	r1, [sp, #16]
 8006a20:	912d      	str	r1, [sp, #180]	; 0xb4
 8006a22:	9807      	ldr	r0, [sp, #28]
 8006a24:	7008      	strb	r0, [r1, #0]
 8006a26:	e7ff      	b.n	8006a28 <_ZN4core4char7methods15encode_utf8_raw17h3b0a6d75e22360ddE+0x110>
 8006a28:	9b03      	ldr	r3, [sp, #12]
 8006a2a:	9a04      	ldr	r2, [sp, #16]
 8006a2c:	9808      	ldr	r0, [sp, #32]
 8006a2e:	9037      	str	r0, [sp, #220]	; 0xdc
 8006a30:	2100      	movs	r1, #0
 8006a32:	9128      	str	r1, [sp, #160]	; 0xa0
 8006a34:	9029      	str	r0, [sp, #164]	; 0xa4
 8006a36:	9828      	ldr	r0, [sp, #160]	; 0xa0
 8006a38:	9929      	ldr	r1, [sp, #164]	; 0xa4
 8006a3a:	f249 7c54 	movw	ip, #38740	; 0x9754
 8006a3e:	f6c0 0c00 	movt	ip, #2048	; 0x800
 8006a42:	46ee      	mov	lr, sp
 8006a44:	f8ce c000 	str.w	ip, [lr]
 8006a48:	f7ff feaf 	bl	80067aa <_ZN106_$LT$core..ops..range..Range$LT$usize$GT$$u20$as$u20$core..slice..index..SliceIndex$LT$$u5b$T$u5d$$GT$$GT$9index_mut17hd79877ef8bc463e2E>
 8006a4c:	b044      	add	sp, #272	; 0x110
 8006a4e:	bd80      	pop	{r7, pc}
 8006a50:	9904      	ldr	r1, [sp, #16]
 8006a52:	912e      	str	r1, [sp, #184]	; 0xb8
 8006a54:	1c48      	adds	r0, r1, #1
 8006a56:	902f      	str	r0, [sp, #188]	; 0xbc
 8006a58:	9807      	ldr	r0, [sp, #28]
 8006a5a:	0980      	lsrs	r0, r0, #6
 8006a5c:	2206      	movs	r2, #6
 8006a5e:	f362 105f 	bfi	r0, r2, #5, #27
 8006a62:	7008      	strb	r0, [r1, #0]
 8006a64:	f89d 001c 	ldrb.w	r0, [sp, #28]
 8006a68:	2202      	movs	r2, #2
 8006a6a:	f362 109f 	bfi	r0, r2, #6, #26
 8006a6e:	7048      	strb	r0, [r1, #1]
 8006a70:	e7da      	b.n	8006a28 <_ZN4core4char7methods15encode_utf8_raw17h3b0a6d75e22360ddE+0x110>
 8006a72:	9904      	ldr	r1, [sp, #16]
 8006a74:	9130      	str	r1, [sp, #192]	; 0xc0
 8006a76:	1c48      	adds	r0, r1, #1
 8006a78:	9031      	str	r0, [sp, #196]	; 0xc4
 8006a7a:	1c88      	adds	r0, r1, #2
 8006a7c:	9032      	str	r0, [sp, #200]	; 0xc8
 8006a7e:	9807      	ldr	r0, [sp, #28]
 8006a80:	0b00      	lsrs	r0, r0, #12
 8006a82:	220e      	movs	r2, #14
 8006a84:	f362 101f 	bfi	r0, r2, #4, #28
 8006a88:	7008      	strb	r0, [r1, #0]
 8006a8a:	9807      	ldr	r0, [sp, #28]
 8006a8c:	0980      	lsrs	r0, r0, #6
 8006a8e:	2202      	movs	r2, #2
 8006a90:	f362 109f 	bfi	r0, r2, #6, #26
 8006a94:	7048      	strb	r0, [r1, #1]
 8006a96:	f89d 001c 	ldrb.w	r0, [sp, #28]
 8006a9a:	f362 109f 	bfi	r0, r2, #6, #26
 8006a9e:	7088      	strb	r0, [r1, #2]
 8006aa0:	e7c2      	b.n	8006a28 <_ZN4core4char7methods15encode_utf8_raw17h3b0a6d75e22360ddE+0x110>
 8006aa2:	9904      	ldr	r1, [sp, #16]
 8006aa4:	9133      	str	r1, [sp, #204]	; 0xcc
 8006aa6:	1c48      	adds	r0, r1, #1
 8006aa8:	9034      	str	r0, [sp, #208]	; 0xd0
 8006aaa:	1c88      	adds	r0, r1, #2
 8006aac:	9035      	str	r0, [sp, #212]	; 0xd4
 8006aae:	1cc8      	adds	r0, r1, #3
 8006ab0:	9036      	str	r0, [sp, #216]	; 0xd8
 8006ab2:	9807      	ldr	r0, [sp, #28]
 8006ab4:	0c80      	lsrs	r0, r0, #18
 8006ab6:	221e      	movs	r2, #30
 8006ab8:	f362 00df 	bfi	r0, r2, #3, #29
 8006abc:	7008      	strb	r0, [r1, #0]
 8006abe:	9807      	ldr	r0, [sp, #28]
 8006ac0:	0b00      	lsrs	r0, r0, #12
 8006ac2:	2202      	movs	r2, #2
 8006ac4:	f362 109f 	bfi	r0, r2, #6, #26
 8006ac8:	7048      	strb	r0, [r1, #1]
 8006aca:	9807      	ldr	r0, [sp, #28]
 8006acc:	0980      	lsrs	r0, r0, #6
 8006ace:	f362 109f 	bfi	r0, r2, #6, #26
 8006ad2:	7088      	strb	r0, [r1, #2]
 8006ad4:	f89d 001c 	ldrb.w	r0, [sp, #28]
 8006ad8:	f362 109f 	bfi	r0, r2, #6, #26
 8006adc:	70c8      	strb	r0, [r1, #3]
 8006ade:	e7a3      	b.n	8006a28 <_ZN4core4char7methods15encode_utf8_raw17h3b0a6d75e22360ddE+0x110>
 8006ae0:	e7ff      	b.n	8006ae2 <_ZN4core4char7methods15encode_utf8_raw17h3b0a6d75e22360ddE+0x1ca>
 8006ae2:	f249 70a0 	movw	r0, #38816	; 0x97a0
 8006ae6:	f6c0 0000 	movt	r0, #2048	; 0x800
 8006aea:	9009      	str	r0, [sp, #36]	; 0x24
 8006aec:	2003      	movs	r0, #3
 8006aee:	900a      	str	r0, [sp, #40]	; 0x28
 8006af0:	f648 2128 	movw	r1, #35368	; 0x8a28
 8006af4:	f6c0 0100 	movt	r1, #2048	; 0x800
 8006af8:	680a      	ldr	r2, [r1, #0]
 8006afa:	6849      	ldr	r1, [r1, #4]
 8006afc:	920d      	str	r2, [sp, #52]	; 0x34
 8006afe:	910e      	str	r1, [sp, #56]	; 0x38
 8006b00:	a90f      	add	r1, sp, #60	; 0x3c
 8006b02:	910b      	str	r1, [sp, #44]	; 0x2c
 8006b04:	900c      	str	r0, [sp, #48]	; 0x30
 8006b06:	f249 71b8 	movw	r1, #38840	; 0x97b8
 8006b0a:	f6c0 0100 	movt	r1, #2048	; 0x800
 8006b0e:	a809      	add	r0, sp, #36	; 0x24
 8006b10:	f000 fd5f 	bl	80075d2 <_ZN4core9panicking9panic_fmt17hfc78cf87d9b52ef4E>

08006b14 <_ZN4core5slice29_$LT$impl$u20$$u5b$T$u5d$$GT$8is_empty17he812826fb1a4b04fE>:
 8006b14:	b082      	sub	sp, #8
 8006b16:	9000      	str	r0, [sp, #0]
 8006b18:	9101      	str	r1, [sp, #4]
 8006b1a:	fab1 f081 	clz	r0, r1
 8006b1e:	0940      	lsrs	r0, r0, #5
 8006b20:	b002      	add	sp, #8
 8006b22:	4770      	bx	lr

08006b24 <_ZN4core6option15Option$LT$T$GT$6as_mut17hfa31f24de0787f99E>:
 8006b24:	b084      	sub	sp, #16
 8006b26:	9000      	str	r0, [sp, #0]
 8006b28:	9002      	str	r0, [sp, #8]
 8006b2a:	6800      	ldr	r0, [r0, #0]
 8006b2c:	b918      	cbnz	r0, 8006b36 <_ZN4core6option15Option$LT$T$GT$6as_mut17hfa31f24de0787f99E+0x12>
 8006b2e:	e7ff      	b.n	8006b30 <_ZN4core6option15Option$LT$T$GT$6as_mut17hfa31f24de0787f99E+0xc>
 8006b30:	2000      	movs	r0, #0
 8006b32:	9001      	str	r0, [sp, #4]
 8006b34:	e004      	b.n	8006b40 <_ZN4core6option15Option$LT$T$GT$6as_mut17hfa31f24de0787f99E+0x1c>
 8006b36:	9800      	ldr	r0, [sp, #0]
 8006b38:	3004      	adds	r0, #4
 8006b3a:	9003      	str	r0, [sp, #12]
 8006b3c:	9001      	str	r0, [sp, #4]
 8006b3e:	e7ff      	b.n	8006b40 <_ZN4core6option15Option$LT$T$GT$6as_mut17hfa31f24de0787f99E+0x1c>
 8006b40:	9801      	ldr	r0, [sp, #4]
 8006b42:	b004      	add	sp, #16
 8006b44:	4770      	bx	lr

08006b46 <_ZN4core6option15Option$LT$T$GT$7is_none17h8fa1f25473f04d55E>:
 8006b46:	b082      	sub	sp, #8
 8006b48:	9001      	str	r0, [sp, #4]
 8006b4a:	6800      	ldr	r0, [r0, #0]
 8006b4c:	2801      	cmp	r0, #1
 8006b4e:	d104      	bne.n	8006b5a <_ZN4core6option15Option$LT$T$GT$7is_none17h8fa1f25473f04d55E+0x14>
 8006b50:	e7ff      	b.n	8006b52 <_ZN4core6option15Option$LT$T$GT$7is_none17h8fa1f25473f04d55E+0xc>
 8006b52:	2001      	movs	r0, #1
 8006b54:	f88d 0003 	strb.w	r0, [sp, #3]
 8006b58:	e003      	b.n	8006b62 <_ZN4core6option15Option$LT$T$GT$7is_none17h8fa1f25473f04d55E+0x1c>
 8006b5a:	2000      	movs	r0, #0
 8006b5c:	f88d 0003 	strb.w	r0, [sp, #3]
 8006b60:	e7ff      	b.n	8006b62 <_ZN4core6option15Option$LT$T$GT$7is_none17h8fa1f25473f04d55E+0x1c>
 8006b62:	f89d 1003 	ldrb.w	r1, [sp, #3]
 8006b66:	2001      	movs	r0, #1
 8006b68:	4388      	bics	r0, r1
 8006b6a:	b002      	add	sp, #8
 8006b6c:	4770      	bx	lr

08006b6e <_ZN4core6result19Result$LT$T$C$E$GT$3map17ha81a7306912b2569E>:
 8006b6e:	b580      	push	{r7, lr}
 8006b70:	466f      	mov	r7, sp
 8006b72:	b088      	sub	sp, #32
 8006b74:	9001      	str	r0, [sp, #4]
 8006b76:	9102      	str	r1, [sp, #8]
 8006b78:	9801      	ldr	r0, [sp, #4]
 8006b7a:	b950      	cbnz	r0, 8006b92 <_ZN4core6result19Result$LT$T$C$E$GT$3map17ha81a7306912b2569E+0x24>
 8006b7c:	e7ff      	b.n	8006b7e <_ZN4core6result19Result$LT$T$C$E$GT$3map17ha81a7306912b2569E+0x10>
 8006b7e:	9802      	ldr	r0, [sp, #8]
 8006b80:	9007      	str	r0, [sp, #28]
 8006b82:	9005      	str	r0, [sp, #20]
 8006b84:	9805      	ldr	r0, [sp, #20]
 8006b86:	f000 f9f8 	bl	8006f7a <_ZN20cortex_m_semihosting3hio7hstdout28_$u7b$$u7b$closure$u7d$$u7d$17ha66e4b937c72ca50E>
 8006b8a:	9004      	str	r0, [sp, #16]
 8006b8c:	2000      	movs	r0, #0
 8006b8e:	9003      	str	r0, [sp, #12]
 8006b90:	e002      	b.n	8006b98 <_ZN4core6result19Result$LT$T$C$E$GT$3map17ha81a7306912b2569E+0x2a>
 8006b92:	2001      	movs	r0, #1
 8006b94:	9003      	str	r0, [sp, #12]
 8006b96:	e7ff      	b.n	8006b98 <_ZN4core6result19Result$LT$T$C$E$GT$3map17ha81a7306912b2569E+0x2a>
 8006b98:	9803      	ldr	r0, [sp, #12]
 8006b9a:	9904      	ldr	r1, [sp, #16]
 8006b9c:	b008      	add	sp, #32
 8006b9e:	bd80      	pop	{r7, pc}

08006ba0 <_ZN4core6result19Result$LT$T$C$E$GT$7map_err17h7f2eceba5d959b23E>:
 8006ba0:	b580      	push	{r7, lr}
 8006ba2:	466f      	mov	r7, sp
 8006ba4:	b082      	sub	sp, #8
 8006ba6:	f807 0c05 	strb.w	r0, [r7, #-5]
 8006baa:	f817 0c05 	ldrb.w	r0, [r7, #-5]
 8006bae:	07c0      	lsls	r0, r0, #31
 8006bb0:	b920      	cbnz	r0, 8006bbc <_ZN4core6result19Result$LT$T$C$E$GT$7map_err17h7f2eceba5d959b23E+0x1c>
 8006bb2:	e7ff      	b.n	8006bb4 <_ZN4core6result19Result$LT$T$C$E$GT$7map_err17h7f2eceba5d959b23E+0x14>
 8006bb4:	2000      	movs	r0, #0
 8006bb6:	f88d 0004 	strb.w	r0, [sp, #4]
 8006bba:	e005      	b.n	8006bc8 <_ZN4core6result19Result$LT$T$C$E$GT$7map_err17h7f2eceba5d959b23E+0x28>
 8006bbc:	f7ff fea1 	bl	8006902 <_ZN4core3ops8function6FnOnce9call_once17hea03ded65983c393E>
 8006bc0:	2001      	movs	r0, #1
 8006bc2:	f88d 0004 	strb.w	r0, [sp, #4]
 8006bc6:	e7ff      	b.n	8006bc8 <_ZN4core6result19Result$LT$T$C$E$GT$7map_err17h7f2eceba5d959b23E+0x28>
 8006bc8:	f89d 0004 	ldrb.w	r0, [sp, #4]
 8006bcc:	f000 0001 	and.w	r0, r0, #1
 8006bd0:	b002      	add	sp, #8
 8006bd2:	bd80      	pop	{r7, pc}

08006bd4 <_ZN4core6result19Result$LT$T$C$E$GT$7map_err17hd92d114f77edd51aE>:
 8006bd4:	b580      	push	{r7, lr}
 8006bd6:	466f      	mov	r7, sp
 8006bd8:	b082      	sub	sp, #8
 8006bda:	f807 0c05 	strb.w	r0, [r7, #-5]
 8006bde:	f817 0c05 	ldrb.w	r0, [r7, #-5]
 8006be2:	07c0      	lsls	r0, r0, #31
 8006be4:	b920      	cbnz	r0, 8006bf0 <_ZN4core6result19Result$LT$T$C$E$GT$7map_err17hd92d114f77edd51aE+0x1c>
 8006be6:	e7ff      	b.n	8006be8 <_ZN4core6result19Result$LT$T$C$E$GT$7map_err17hd92d114f77edd51aE+0x14>
 8006be8:	2000      	movs	r0, #0
 8006bea:	f88d 0004 	strb.w	r0, [sp, #4]
 8006bee:	e005      	b.n	8006bfc <_ZN4core6result19Result$LT$T$C$E$GT$7map_err17hd92d114f77edd51aE+0x28>
 8006bf0:	f000 f9b3 	bl	8006f5a <_ZN71_$LT$cortex_m_semihosting..hio..HStdout$u20$as$u20$core..fmt..Write$GT$9write_str28_$u7b$$u7b$closure$u7d$$u7d$17ha9df80612b95f617E>
 8006bf4:	2001      	movs	r0, #1
 8006bf6:	f88d 0004 	strb.w	r0, [sp, #4]
 8006bfa:	e7ff      	b.n	8006bfc <_ZN4core6result19Result$LT$T$C$E$GT$7map_err17hd92d114f77edd51aE+0x28>
 8006bfc:	f89d 0004 	ldrb.w	r0, [sp, #4]
 8006c00:	f000 0001 	and.w	r0, r0, #1
 8006c04:	b002      	add	sp, #8
 8006c06:	bd80      	pop	{r7, pc}

08006c08 <_ZN75_$LT$$RF$mut$u20$W$u20$as$u20$core..fmt..Write..write_fmt..SpecWriteFmt$GT$14spec_write_fmt17h015e5840c8c7f8e6E>:
 8006c08:	b5f0      	push	{r4, r5, r6, r7, lr}
 8006c0a:	af03      	add	r7, sp, #12
 8006c0c:	f84d 8d04 	str.w	r8, [sp, #-4]!
 8006c10:	b08e      	sub	sp, #56	; 0x38
 8006c12:	9100      	str	r1, [sp, #0]
 8006c14:	4601      	mov	r1, r0
 8006c16:	9800      	ldr	r0, [sp, #0]
 8006c18:	9101      	str	r1, [sp, #4]
 8006c1a:	910b      	str	r1, [sp, #44]	; 0x2c
 8006c1c:	f7ff fe1c 	bl	8006858 <_ZN4core3fmt9Arguments23as_statically_known_str17h7fce4e8f02c3f977E>
 8006c20:	9003      	str	r0, [sp, #12]
 8006c22:	9104      	str	r1, [sp, #16]
 8006c24:	9803      	ldr	r0, [sp, #12]
 8006c26:	b150      	cbz	r0, 8006c3e <_ZN75_$LT$$RF$mut$u20$W$u20$as$u20$core..fmt..Write..write_fmt..SpecWriteFmt$GT$14spec_write_fmt17h015e5840c8c7f8e6E+0x36>
 8006c28:	e7ff      	b.n	8006c2a <_ZN75_$LT$$RF$mut$u20$W$u20$as$u20$core..fmt..Write..write_fmt..SpecWriteFmt$GT$14spec_write_fmt17h015e5840c8c7f8e6E+0x22>
 8006c2a:	9801      	ldr	r0, [sp, #4]
 8006c2c:	9903      	ldr	r1, [sp, #12]
 8006c2e:	9a04      	ldr	r2, [sp, #16]
 8006c30:	910c      	str	r1, [sp, #48]	; 0x30
 8006c32:	920d      	str	r2, [sp, #52]	; 0x34
 8006c34:	f000 f983 	bl	8006f3e <_ZN71_$LT$cortex_m_semihosting..hio..HStdout$u20$as$u20$core..fmt..Write$GT$9write_str17h9bfbd1a917144f66E>
 8006c38:	f807 0c3d 	strb.w	r0, [r7, #-61]
 8006c3c:	e010      	b.n	8006c60 <_ZN75_$LT$$RF$mut$u20$W$u20$as$u20$core..fmt..Write..write_fmt..SpecWriteFmt$GT$14spec_write_fmt17h015e5840c8c7f8e6E+0x58>
 8006c3e:	9801      	ldr	r0, [sp, #4]
 8006c40:	9b00      	ldr	r3, [sp, #0]
 8006c42:	aa05      	add	r2, sp, #20
 8006c44:	4611      	mov	r1, r2
 8006c46:	e893 5170 	ldmia.w	r3, {r4, r5, r6, r8, ip, lr}
 8006c4a:	e881 5170 	stmia.w	r1, {r4, r5, r6, r8, ip, lr}
 8006c4e:	f249 71c8 	movw	r1, #38856	; 0x97c8
 8006c52:	f6c0 0100 	movt	r1, #2048	; 0x800
 8006c56:	f000 fd6a 	bl	800772e <_ZN4core3fmt5write17hf6ada4df3cff63c5E>
 8006c5a:	f807 0c3d 	strb.w	r0, [r7, #-61]
 8006c5e:	e7ff      	b.n	8006c60 <_ZN75_$LT$$RF$mut$u20$W$u20$as$u20$core..fmt..Write..write_fmt..SpecWriteFmt$GT$14spec_write_fmt17h015e5840c8c7f8e6E+0x58>
 8006c60:	f817 0c3d 	ldrb.w	r0, [r7, #-61]
 8006c64:	f000 0001 	and.w	r0, r0, #1
 8006c68:	b00e      	add	sp, #56	; 0x38
 8006c6a:	f85d 8b04 	ldr.w	r8, [sp], #4
 8006c6e:	bdf0      	pop	{r4, r5, r6, r7, pc}

08006c70 <_ZN77_$LT$cortex_m..register..primask..Primask$u20$as$u20$core..cmp..PartialEq$GT$2eq17h61e9690bb0dc3f33E>:
 8006c70:	b084      	sub	sp, #16
 8006c72:	9000      	str	r0, [sp, #0]
 8006c74:	9101      	str	r1, [sp, #4]
 8006c76:	7800      	ldrb	r0, [r0, #0]
 8006c78:	f000 0001 	and.w	r0, r0, #1
 8006c7c:	9002      	str	r0, [sp, #8]
 8006c7e:	7809      	ldrb	r1, [r1, #0]
 8006c80:	f001 0101 	and.w	r1, r1, #1
 8006c84:	9103      	str	r1, [sp, #12]
 8006c86:	1a40      	subs	r0, r0, r1
 8006c88:	fab0 f080 	clz	r0, r0
 8006c8c:	0940      	lsrs	r0, r0, #5
 8006c8e:	b004      	add	sp, #16
 8006c90:	4770      	bx	lr

08006c92 <_ZN79_$LT$core..result..Result$LT$T$C$E$GT$$u20$as$u20$core..ops..try_trait..Try$GT$6branch17h3dd37ca184df6bd1E>:
 8006c92:	b086      	sub	sp, #24
 8006c94:	9000      	str	r0, [sp, #0]
 8006c96:	9101      	str	r1, [sp, #4]
 8006c98:	9800      	ldr	r0, [sp, #0]
 8006c9a:	b930      	cbnz	r0, 8006caa <_ZN79_$LT$core..result..Result$LT$T$C$E$GT$$u20$as$u20$core..ops..try_trait..Try$GT$6branch17h3dd37ca184df6bd1E+0x18>
 8006c9c:	e7ff      	b.n	8006c9e <_ZN79_$LT$core..result..Result$LT$T$C$E$GT$$u20$as$u20$core..ops..try_trait..Try$GT$6branch17h3dd37ca184df6bd1E+0xc>
 8006c9e:	9801      	ldr	r0, [sp, #4]
 8006ca0:	9005      	str	r0, [sp, #20]
 8006ca2:	9003      	str	r0, [sp, #12]
 8006ca4:	2000      	movs	r0, #0
 8006ca6:	9002      	str	r0, [sp, #8]
 8006ca8:	e002      	b.n	8006cb0 <_ZN79_$LT$core..result..Result$LT$T$C$E$GT$$u20$as$u20$core..ops..try_trait..Try$GT$6branch17h3dd37ca184df6bd1E+0x1e>
 8006caa:	2001      	movs	r0, #1
 8006cac:	9002      	str	r0, [sp, #8]
 8006cae:	e7ff      	b.n	8006cb0 <_ZN79_$LT$core..result..Result$LT$T$C$E$GT$$u20$as$u20$core..ops..try_trait..Try$GT$6branch17h3dd37ca184df6bd1E+0x1e>
 8006cb0:	9802      	ldr	r0, [sp, #8]
 8006cb2:	9903      	ldr	r1, [sp, #12]
 8006cb4:	b006      	add	sp, #24
 8006cb6:	4770      	bx	lr

08006cb8 <_ZN8cortex_m8register7primask4read17hc00fa0c18ed9ea6dE>:
 8006cb8:	b580      	push	{r7, lr}
 8006cba:	466f      	mov	r7, sp
 8006cbc:	b082      	sub	sp, #8
 8006cbe:	f000 fc68 	bl	8007592 <__primask_r>
 8006cc2:	9001      	str	r0, [sp, #4]
 8006cc4:	07c0      	lsls	r0, r0, #31
 8006cc6:	b920      	cbnz	r0, 8006cd2 <_ZN8cortex_m8register7primask4read17hc00fa0c18ed9ea6dE+0x1a>
 8006cc8:	e7ff      	b.n	8006cca <_ZN8cortex_m8register7primask4read17hc00fa0c18ed9ea6dE+0x12>
 8006cca:	2000      	movs	r0, #0
 8006ccc:	f807 0c05 	strb.w	r0, [r7, #-5]
 8006cd0:	e003      	b.n	8006cda <_ZN8cortex_m8register7primask4read17hc00fa0c18ed9ea6dE+0x22>
 8006cd2:	2001      	movs	r0, #1
 8006cd4:	f807 0c05 	strb.w	r0, [r7, #-5]
 8006cd8:	e7ff      	b.n	8006cda <_ZN8cortex_m8register7primask4read17hc00fa0c18ed9ea6dE+0x22>
 8006cda:	f817 0c05 	ldrb.w	r0, [r7, #-5]
 8006cde:	f000 0001 	and.w	r0, r0, #1
 8006ce2:	b002      	add	sp, #8
 8006ce4:	bd80      	pop	{r7, pc}

08006ce6 <_ZN8cortex_m8register7primask7Primask9is_active17hd3b89f31fec90a3fE>:
 8006ce6:	b580      	push	{r7, lr}
 8006ce8:	466f      	mov	r7, sp
 8006cea:	b082      	sub	sp, #8
 8006cec:	f807 0c01 	strb.w	r0, [r7, #-1]
 8006cf0:	f249 71e0 	movw	r1, #38880	; 0x97e0
 8006cf4:	f6c0 0100 	movt	r1, #2048	; 0x800
 8006cf8:	1e78      	subs	r0, r7, #1
 8006cfa:	f7ff ffb9 	bl	8006c70 <_ZN77_$LT$cortex_m..register..primask..Primask$u20$as$u20$core..cmp..PartialEq$GT$2eq17h61e9690bb0dc3f33E>
 8006cfe:	b002      	add	sp, #8
 8006d00:	bd80      	pop	{r7, pc}

08006d02 <_ZN8cortex_m9interrupt4free17he8b3be88dc797045E>:
 8006d02:	b580      	push	{r7, lr}
 8006d04:	466f      	mov	r7, sp
 8006d06:	b088      	sub	sp, #32
 8006d08:	9001      	str	r0, [sp, #4]
 8006d0a:	9006      	str	r0, [sp, #24]
 8006d0c:	f7ff ffd4 	bl	8006cb8 <_ZN8cortex_m8register7primask4read17hc00fa0c18ed9ea6dE>
 8006d10:	9002      	str	r0, [sp, #8]
 8006d12:	f807 0c02 	strb.w	r0, [r7, #-2]
 8006d16:	f000 f847 	bl	8006da8 <_ZN8cortex_m9interrupt7disable17hb3ed8e2041e5fea2E>
 8006d1a:	f000 fc3d 	bl	8007598 <_ZN10bare_metal15CriticalSection3new17hf9bac75e47662832E>
 8006d1e:	9801      	ldr	r0, [sp, #4]
 8006d20:	f1a7 0109 	sub.w	r1, r7, #9
 8006d24:	9104      	str	r1, [sp, #16]
 8006d26:	9904      	ldr	r1, [sp, #16]
 8006d28:	f000 f8a7 	bl	8006e7a <_ZN20cortex_m_semihosting6export11hstdout_fmt28_$u7b$$u7b$closure$u7d$$u7d$17he15152ab37bf780bE>
 8006d2c:	4601      	mov	r1, r0
 8006d2e:	9802      	ldr	r0, [sp, #8]
 8006d30:	460a      	mov	r2, r1
 8006d32:	9203      	str	r2, [sp, #12]
 8006d34:	f807 1c01 	strb.w	r1, [r7, #-1]
 8006d38:	f7ff ffd5 	bl	8006ce6 <_ZN8cortex_m8register7primask7Primask9is_active17hd3b89f31fec90a3fE>
 8006d3c:	b928      	cbnz	r0, 8006d4a <_ZN8cortex_m9interrupt4free17he8b3be88dc797045E+0x48>
 8006d3e:	e7ff      	b.n	8006d40 <_ZN8cortex_m9interrupt4free17he8b3be88dc797045E+0x3e>
 8006d40:	9803      	ldr	r0, [sp, #12]
 8006d42:	f000 0001 	and.w	r0, r0, #1
 8006d46:	b008      	add	sp, #32
 8006d48:	bd80      	pop	{r7, pc}
 8006d4a:	f000 f828 	bl	8006d9e <_ZN8cortex_m9interrupt6enable17h779aa000a9490a14E>
 8006d4e:	e7f7      	b.n	8006d40 <_ZN8cortex_m9interrupt4free17he8b3be88dc797045E+0x3e>

08006d50 <_ZN8cortex_m9interrupt4free17hf403f6015869f05fE>:
 8006d50:	b580      	push	{r7, lr}
 8006d52:	466f      	mov	r7, sp
 8006d54:	b088      	sub	sp, #32
 8006d56:	9001      	str	r0, [sp, #4]
 8006d58:	9006      	str	r0, [sp, #24]
 8006d5a:	f7ff ffad 	bl	8006cb8 <_ZN8cortex_m8register7primask4read17hc00fa0c18ed9ea6dE>
 8006d5e:	9002      	str	r0, [sp, #8]
 8006d60:	f807 0c02 	strb.w	r0, [r7, #-2]
 8006d64:	f000 f820 	bl	8006da8 <_ZN8cortex_m9interrupt7disable17hb3ed8e2041e5fea2E>
 8006d68:	f000 fc16 	bl	8007598 <_ZN10bare_metal15CriticalSection3new17hf9bac75e47662832E>
 8006d6c:	9801      	ldr	r0, [sp, #4]
 8006d6e:	f1a7 0109 	sub.w	r1, r7, #9
 8006d72:	9104      	str	r1, [sp, #16]
 8006d74:	9904      	ldr	r1, [sp, #16]
 8006d76:	f000 f828 	bl	8006dca <_ZN20cortex_m_semihosting6export11hstdout_str28_$u7b$$u7b$closure$u7d$$u7d$17h67d3c33d3c849c2fE>
 8006d7a:	4601      	mov	r1, r0
 8006d7c:	9802      	ldr	r0, [sp, #8]
 8006d7e:	460a      	mov	r2, r1
 8006d80:	9203      	str	r2, [sp, #12]
 8006d82:	f807 1c01 	strb.w	r1, [r7, #-1]
 8006d86:	f7ff ffae 	bl	8006ce6 <_ZN8cortex_m8register7primask7Primask9is_active17hd3b89f31fec90a3fE>
 8006d8a:	b928      	cbnz	r0, 8006d98 <_ZN8cortex_m9interrupt4free17hf403f6015869f05fE+0x48>
 8006d8c:	e7ff      	b.n	8006d8e <_ZN8cortex_m9interrupt4free17hf403f6015869f05fE+0x3e>
 8006d8e:	9803      	ldr	r0, [sp, #12]
 8006d90:	f000 0001 	and.w	r0, r0, #1
 8006d94:	b008      	add	sp, #32
 8006d96:	bd80      	pop	{r7, pc}
 8006d98:	f000 f801 	bl	8006d9e <_ZN8cortex_m9interrupt6enable17h779aa000a9490a14E>
 8006d9c:	e7f7      	b.n	8006d8e <_ZN8cortex_m9interrupt4free17hf403f6015869f05fE+0x3e>

08006d9e <_ZN8cortex_m9interrupt6enable17h779aa000a9490a14E>:
 8006d9e:	b580      	push	{r7, lr}
 8006da0:	466f      	mov	r7, sp
 8006da2:	f000 fbf1 	bl	8007588 <__cpsie>
 8006da6:	bd80      	pop	{r7, pc}

08006da8 <_ZN8cortex_m9interrupt7disable17hb3ed8e2041e5fea2E>:
 8006da8:	b580      	push	{r7, lr}
 8006daa:	466f      	mov	r7, sp
 8006dac:	f000 fbea 	bl	8007584 <__cpsid>
 8006db0:	bd80      	pop	{r7, pc}

08006db2 <_ZN20cortex_m_semihosting6export11hstdout_str17hd719d35de9bc1d18E>:
 8006db2:	b580      	push	{r7, lr}
 8006db4:	466f      	mov	r7, sp
 8006db6:	b084      	sub	sp, #16
 8006db8:	9001      	str	r0, [sp, #4]
 8006dba:	9102      	str	r1, [sp, #8]
 8006dbc:	a801      	add	r0, sp, #4
 8006dbe:	9003      	str	r0, [sp, #12]
 8006dc0:	9803      	ldr	r0, [sp, #12]
 8006dc2:	f7ff ffc5 	bl	8006d50 <_ZN8cortex_m9interrupt4free17hf403f6015869f05fE>
 8006dc6:	b004      	add	sp, #16
 8006dc8:	bd80      	pop	{r7, pc}

08006dca <_ZN20cortex_m_semihosting6export11hstdout_str28_$u7b$$u7b$closure$u7d$$u7d$17h67d3c33d3c849c2fE>:
 8006dca:	b580      	push	{r7, lr}
 8006dcc:	466f      	mov	r7, sp
 8006dce:	b08c      	sub	sp, #48	; 0x30
 8006dd0:	9002      	str	r0, [sp, #8]
 8006dd2:	9108      	str	r1, [sp, #32]
 8006dd4:	f240 0014 	movw	r0, #20
 8006dd8:	f2c2 0000 	movt	r0, #8192	; 0x2000
 8006ddc:	f7ff feb3 	bl	8006b46 <_ZN4core6option15Option$LT$T$GT$7is_none17h8fa1f25473f04d55E>
 8006de0:	b9e0      	cbnz	r0, 8006e1c <_ZN20cortex_m_semihosting6export11hstdout_str28_$u7b$$u7b$closure$u7d$$u7d$17h67d3c33d3c849c2fE+0x52>
 8006de2:	e7ff      	b.n	8006de4 <_ZN20cortex_m_semihosting6export11hstdout_str28_$u7b$$u7b$closure$u7d$$u7d$17h67d3c33d3c849c2fE+0x1a>
 8006de4:	f240 0014 	movw	r0, #20
 8006de8:	f2c2 0000 	movt	r0, #8192	; 0x2000
 8006dec:	f7ff fe9a 	bl	8006b24 <_ZN4core6option15Option$LT$T$GT$6as_mut17hfa31f24de0787f99E>
 8006df0:	900a      	str	r0, [sp, #40]	; 0x28
 8006df2:	980a      	ldr	r0, [sp, #40]	; 0x28
 8006df4:	b930      	cbnz	r0, 8006e04 <_ZN20cortex_m_semihosting6export11hstdout_str28_$u7b$$u7b$closure$u7d$$u7d$17h67d3c33d3c849c2fE+0x3a>
 8006df6:	e7ff      	b.n	8006df8 <_ZN20cortex_m_semihosting6export11hstdout_str28_$u7b$$u7b$closure$u7d$$u7d$17h67d3c33d3c849c2fE+0x2e>
 8006df8:	f649 0048 	movw	r0, #38984	; 0x9848
 8006dfc:	f6c0 0000 	movt	r0, #2048	; 0x800
 8006e00:	f000 fbdd 	bl	80075be <_ZN4core6option13unwrap_failed17h7862ad8064d6fc0bE>
 8006e04:	980a      	ldr	r0, [sp, #40]	; 0x28
 8006e06:	900b      	str	r0, [sp, #44]	; 0x2c
 8006e08:	9a02      	ldr	r2, [sp, #8]
 8006e0a:	6811      	ldr	r1, [r2, #0]
 8006e0c:	6852      	ldr	r2, [r2, #4]
 8006e0e:	f000 f896 	bl	8006f3e <_ZN71_$LT$cortex_m_semihosting..hio..HStdout$u20$as$u20$core..fmt..Write$GT$9write_str17h9bfbd1a917144f66E>
 8006e12:	f7ff fec5 	bl	8006ba0 <_ZN4core6result19Result$LT$T$C$E$GT$7map_err17h7f2eceba5d959b23E>
 8006e16:	f807 0c21 	strb.w	r0, [r7, #-33]
 8006e1a:	e01f      	b.n	8006e5c <_ZN20cortex_m_semihosting6export11hstdout_str28_$u7b$$u7b$closure$u7d$$u7d$17h67d3c33d3c849c2fE+0x92>
 8006e1c:	f000 f8a0 	bl	8006f60 <_ZN20cortex_m_semihosting3hio7hstdout17he5d5cf6fda3ad5bdE>
 8006e20:	f7ff ff37 	bl	8006c92 <_ZN79_$LT$core..result..Result$LT$T$C$E$GT$$u20$as$u20$core..ops..try_trait..Try$GT$6branch17h3dd37ca184df6bd1E>
 8006e24:	9006      	str	r0, [sp, #24]
 8006e26:	9107      	str	r1, [sp, #28]
 8006e28:	9806      	ldr	r0, [sp, #24]
 8006e2a:	b970      	cbnz	r0, 8006e4a <_ZN20cortex_m_semihosting6export11hstdout_str28_$u7b$$u7b$closure$u7d$$u7d$17h67d3c33d3c849c2fE+0x80>
 8006e2c:	e7ff      	b.n	8006e2e <_ZN20cortex_m_semihosting6export11hstdout_str28_$u7b$$u7b$closure$u7d$$u7d$17h67d3c33d3c849c2fE+0x64>
 8006e2e:	9807      	ldr	r0, [sp, #28]
 8006e30:	9009      	str	r0, [sp, #36]	; 0x24
 8006e32:	9005      	str	r0, [sp, #20]
 8006e34:	2001      	movs	r0, #1
 8006e36:	9004      	str	r0, [sp, #16]
 8006e38:	9a04      	ldr	r2, [sp, #16]
 8006e3a:	9805      	ldr	r0, [sp, #20]
 8006e3c:	f240 0114 	movw	r1, #20
 8006e40:	f2c2 0100 	movt	r1, #8192	; 0x2000
 8006e44:	600a      	str	r2, [r1, #0]
 8006e46:	6048      	str	r0, [r1, #4]
 8006e48:	e7cc      	b.n	8006de4 <_ZN20cortex_m_semihosting6export11hstdout_str28_$u7b$$u7b$closure$u7d$$u7d$17h67d3c33d3c849c2fE+0x1a>
 8006e4a:	f649 0058 	movw	r0, #39000	; 0x9858
 8006e4e:	f6c0 0000 	movt	r0, #2048	; 0x800
 8006e52:	f7ff fcd3 	bl	80067fc <_ZN153_$LT$core..result..Result$LT$T$C$F$GT$$u20$as$u20$core..ops..try_trait..FromResidual$LT$core..result..Result$LT$core..convert..Infallible$C$E$GT$$GT$$GT$13from_residual17h0130a83a5c10ce33E>
 8006e56:	f807 0c21 	strb.w	r0, [r7, #-33]
 8006e5a:	e7ff      	b.n	8006e5c <_ZN20cortex_m_semihosting6export11hstdout_str28_$u7b$$u7b$closure$u7d$$u7d$17h67d3c33d3c849c2fE+0x92>
 8006e5c:	f817 0c21 	ldrb.w	r0, [r7, #-33]
 8006e60:	f000 0001 	and.w	r0, r0, #1
 8006e64:	b00c      	add	sp, #48	; 0x30
 8006e66:	bd80      	pop	{r7, pc}

08006e68 <_ZN20cortex_m_semihosting6export11hstdout_fmt17he820bff8a460a29eE>:
 8006e68:	b580      	push	{r7, lr}
 8006e6a:	466f      	mov	r7, sp
 8006e6c:	b082      	sub	sp, #8
 8006e6e:	9001      	str	r0, [sp, #4]
 8006e70:	9801      	ldr	r0, [sp, #4]
 8006e72:	f7ff ff46 	bl	8006d02 <_ZN8cortex_m9interrupt4free17he8b3be88dc797045E>
 8006e76:	b002      	add	sp, #8
 8006e78:	bd80      	pop	{r7, pc}

08006e7a <_ZN20cortex_m_semihosting6export11hstdout_fmt28_$u7b$$u7b$closure$u7d$$u7d$17he15152ab37bf780bE>:
 8006e7a:	b5f0      	push	{r4, r5, r6, r7, lr}
 8006e7c:	af03      	add	r7, sp, #12
 8006e7e:	f84d 8d04 	str.w	r8, [sp, #-4]!
 8006e82:	b092      	sub	sp, #72	; 0x48
 8006e84:	9002      	str	r0, [sp, #8]
 8006e86:	910e      	str	r1, [sp, #56]	; 0x38
 8006e88:	f240 0014 	movw	r0, #20
 8006e8c:	f2c2 0000 	movt	r0, #8192	; 0x2000
 8006e90:	f7ff fe59 	bl	8006b46 <_ZN4core6option15Option$LT$T$GT$7is_none17h8fa1f25473f04d55E>
 8006e94:	bb00      	cbnz	r0, 8006ed8 <_ZN20cortex_m_semihosting6export11hstdout_fmt28_$u7b$$u7b$closure$u7d$$u7d$17he15152ab37bf780bE+0x5e>
 8006e96:	e7ff      	b.n	8006e98 <_ZN20cortex_m_semihosting6export11hstdout_fmt28_$u7b$$u7b$closure$u7d$$u7d$17he15152ab37bf780bE+0x1e>
 8006e98:	f240 0014 	movw	r0, #20
 8006e9c:	f2c2 0000 	movt	r0, #8192	; 0x2000
 8006ea0:	f7ff fe40 	bl	8006b24 <_ZN4core6option15Option$LT$T$GT$6as_mut17hfa31f24de0787f99E>
 8006ea4:	9010      	str	r0, [sp, #64]	; 0x40
 8006ea6:	9810      	ldr	r0, [sp, #64]	; 0x40
 8006ea8:	b930      	cbnz	r0, 8006eb8 <_ZN20cortex_m_semihosting6export11hstdout_fmt28_$u7b$$u7b$closure$u7d$$u7d$17he15152ab37bf780bE+0x3e>
 8006eaa:	e7ff      	b.n	8006eac <_ZN20cortex_m_semihosting6export11hstdout_fmt28_$u7b$$u7b$closure$u7d$$u7d$17he15152ab37bf780bE+0x32>
 8006eac:	f649 0068 	movw	r0, #39016	; 0x9868
 8006eb0:	f6c0 0000 	movt	r0, #2048	; 0x800
 8006eb4:	f000 fb83 	bl	80075be <_ZN4core6option13unwrap_failed17h7862ad8064d6fc0bE>
 8006eb8:	9810      	ldr	r0, [sp, #64]	; 0x40
 8006eba:	9011      	str	r0, [sp, #68]	; 0x44
 8006ebc:	9b02      	ldr	r3, [sp, #8]
 8006ebe:	a908      	add	r1, sp, #32
 8006ec0:	460a      	mov	r2, r1
 8006ec2:	e893 5170 	ldmia.w	r3, {r4, r5, r6, r8, ip, lr}
 8006ec6:	e882 5170 	stmia.w	r2, {r4, r5, r6, r8, ip, lr}
 8006eca:	f7ff fcbd 	bl	8006848 <_ZN4core3fmt5Write9write_fmt17hf59b7ebaac051679E>
 8006ece:	f7ff fe67 	bl	8006ba0 <_ZN4core6result19Result$LT$T$C$E$GT$7map_err17h7f2eceba5d959b23E>
 8006ed2:	f807 0c49 	strb.w	r0, [r7, #-73]
 8006ed6:	e01f      	b.n	8006f18 <_ZN20cortex_m_semihosting6export11hstdout_fmt28_$u7b$$u7b$closure$u7d$$u7d$17he15152ab37bf780bE+0x9e>
 8006ed8:	f000 f842 	bl	8006f60 <_ZN20cortex_m_semihosting3hio7hstdout17he5d5cf6fda3ad5bdE>
 8006edc:	f7ff fed9 	bl	8006c92 <_ZN79_$LT$core..result..Result$LT$T$C$E$GT$$u20$as$u20$core..ops..try_trait..Try$GT$6branch17h3dd37ca184df6bd1E>
 8006ee0:	9006      	str	r0, [sp, #24]
 8006ee2:	9107      	str	r1, [sp, #28]
 8006ee4:	9806      	ldr	r0, [sp, #24]
 8006ee6:	b970      	cbnz	r0, 8006f06 <_ZN20cortex_m_semihosting6export11hstdout_fmt28_$u7b$$u7b$closure$u7d$$u7d$17he15152ab37bf780bE+0x8c>
 8006ee8:	e7ff      	b.n	8006eea <_ZN20cortex_m_semihosting6export11hstdout_fmt28_$u7b$$u7b$closure$u7d$$u7d$17he15152ab37bf780bE+0x70>
 8006eea:	9807      	ldr	r0, [sp, #28]
 8006eec:	900f      	str	r0, [sp, #60]	; 0x3c
 8006eee:	9005      	str	r0, [sp, #20]
 8006ef0:	2001      	movs	r0, #1
 8006ef2:	9004      	str	r0, [sp, #16]
 8006ef4:	9a04      	ldr	r2, [sp, #16]
 8006ef6:	9805      	ldr	r0, [sp, #20]
 8006ef8:	f240 0114 	movw	r1, #20
 8006efc:	f2c2 0100 	movt	r1, #8192	; 0x2000
 8006f00:	600a      	str	r2, [r1, #0]
 8006f02:	6048      	str	r0, [r1, #4]
 8006f04:	e7c8      	b.n	8006e98 <_ZN20cortex_m_semihosting6export11hstdout_fmt28_$u7b$$u7b$closure$u7d$$u7d$17he15152ab37bf780bE+0x1e>
 8006f06:	f649 0078 	movw	r0, #39032	; 0x9878
 8006f0a:	f6c0 0000 	movt	r0, #2048	; 0x800
 8006f0e:	f7ff fc75 	bl	80067fc <_ZN153_$LT$core..result..Result$LT$T$C$F$GT$$u20$as$u20$core..ops..try_trait..FromResidual$LT$core..result..Result$LT$core..convert..Infallible$C$E$GT$$GT$$GT$13from_residual17h0130a83a5c10ce33E>
 8006f12:	f807 0c49 	strb.w	r0, [r7, #-73]
 8006f16:	e7ff      	b.n	8006f18 <_ZN20cortex_m_semihosting6export11hstdout_fmt28_$u7b$$u7b$closure$u7d$$u7d$17he15152ab37bf780bE+0x9e>
 8006f18:	f817 0c49 	ldrb.w	r0, [r7, #-73]
 8006f1c:	f000 0001 	and.w	r0, r0, #1
 8006f20:	b012      	add	sp, #72	; 0x48
 8006f22:	f85d 8b04 	ldr.w	r8, [sp], #4
 8006f26:	bdf0      	pop	{r4, r5, r6, r7, pc}

08006f28 <_ZN20cortex_m_semihosting3hio7HStdout9write_all17h3ffa8dd0b67fa3b3E>:
 8006f28:	b580      	push	{r7, lr}
 8006f2a:	466f      	mov	r7, sp
 8006f2c:	b084      	sub	sp, #16
 8006f2e:	9001      	str	r0, [sp, #4]
 8006f30:	9102      	str	r1, [sp, #8]
 8006f32:	9203      	str	r2, [sp, #12]
 8006f34:	6800      	ldr	r0, [r0, #0]
 8006f36:	f000 f85e 	bl	8006ff6 <_ZN20cortex_m_semihosting3hio9write_all17hd01f01437bc20ca4E>
 8006f3a:	b004      	add	sp, #16
 8006f3c:	bd80      	pop	{r7, pc}

08006f3e <_ZN71_$LT$cortex_m_semihosting..hio..HStdout$u20$as$u20$core..fmt..Write$GT$9write_str17h9bfbd1a917144f66E>:
 8006f3e:	b580      	push	{r7, lr}
 8006f40:	466f      	mov	r7, sp
 8006f42:	b086      	sub	sp, #24
 8006f44:	9001      	str	r0, [sp, #4]
 8006f46:	9102      	str	r1, [sp, #8]
 8006f48:	9203      	str	r2, [sp, #12]
 8006f4a:	9104      	str	r1, [sp, #16]
 8006f4c:	9205      	str	r2, [sp, #20]
 8006f4e:	f7ff ffeb 	bl	8006f28 <_ZN20cortex_m_semihosting3hio7HStdout9write_all17h3ffa8dd0b67fa3b3E>
 8006f52:	f7ff fe3f 	bl	8006bd4 <_ZN4core6result19Result$LT$T$C$E$GT$7map_err17hd92d114f77edd51aE>
 8006f56:	b006      	add	sp, #24
 8006f58:	bd80      	pop	{r7, pc}

08006f5a <_ZN71_$LT$cortex_m_semihosting..hio..HStdout$u20$as$u20$core..fmt..Write$GT$9write_str28_$u7b$$u7b$closure$u7d$$u7d$17ha9df80612b95f617E>:
 8006f5a:	b081      	sub	sp, #4
 8006f5c:	b001      	add	sp, #4
 8006f5e:	4770      	bx	lr

08006f60 <_ZN20cortex_m_semihosting3hio7hstdout17he5d5cf6fda3ad5bdE>:
 8006f60:	b580      	push	{r7, lr}
 8006f62:	466f      	mov	r7, sp
 8006f64:	f649 0088 	movw	r0, #39048	; 0x9888
 8006f68:	f6c0 0000 	movt	r0, #2048	; 0x800
 8006f6c:	2204      	movs	r2, #4
 8006f6e:	4611      	mov	r1, r2
 8006f70:	f000 f809 	bl	8006f86 <_ZN20cortex_m_semihosting3hio4open17ha62055ea2dad1facE>
 8006f74:	f7ff fdfb 	bl	8006b6e <_ZN4core6result19Result$LT$T$C$E$GT$3map17ha81a7306912b2569E>
 8006f78:	bd80      	pop	{r7, pc}

08006f7a <_ZN20cortex_m_semihosting3hio7hstdout28_$u7b$$u7b$closure$u7d$$u7d$17ha66e4b937c72ca50E>:
 8006f7a:	b083      	sub	sp, #12
 8006f7c:	9002      	str	r0, [sp, #8]
 8006f7e:	9000      	str	r0, [sp, #0]
 8006f80:	9800      	ldr	r0, [sp, #0]
 8006f82:	b003      	add	sp, #12
 8006f84:	4770      	bx	lr

08006f86 <_ZN20cortex_m_semihosting3hio4open17ha62055ea2dad1facE>:
 8006f86:	b580      	push	{r7, lr}
 8006f88:	466f      	mov	r7, sp
 8006f8a:	b098      	sub	sp, #96	; 0x60
 8006f8c:	9202      	str	r2, [sp, #8]
 8006f8e:	900a      	str	r0, [sp, #40]	; 0x28
 8006f90:	910b      	str	r1, [sp, #44]	; 0x2c
 8006f92:	920c      	str	r2, [sp, #48]	; 0x30
 8006f94:	9010      	str	r0, [sp, #64]	; 0x40
 8006f96:	9111      	str	r1, [sp, #68]	; 0x44
 8006f98:	900d      	str	r0, [sp, #52]	; 0x34
 8006f9a:	910e      	str	r1, [sp, #56]	; 0x38
 8006f9c:	9012      	str	r0, [sp, #72]	; 0x48
 8006f9e:	9113      	str	r1, [sp, #76]	; 0x4c
 8006fa0:	9003      	str	r0, [sp, #12]
 8006fa2:	1e48      	subs	r0, r1, #1
 8006fa4:	9004      	str	r0, [sp, #16]
 8006fa6:	b1a1      	cbz	r1, 8006fd2 <_ZN20cortex_m_semihosting3hio4open17ha62055ea2dad1facE+0x4c>
 8006fa8:	e7ff      	b.n	8006faa <_ZN20cortex_m_semihosting3hio4open17ha62055ea2dad1facE+0x24>
 8006faa:	9804      	ldr	r0, [sp, #16]
 8006fac:	9902      	ldr	r1, [sp, #8]
 8006fae:	9a03      	ldr	r2, [sp, #12]
 8006fb0:	9207      	str	r2, [sp, #28]
 8006fb2:	9108      	str	r1, [sp, #32]
 8006fb4:	9009      	str	r0, [sp, #36]	; 0x24
 8006fb6:	2001      	movs	r0, #1
 8006fb8:	9014      	str	r0, [sp, #80]	; 0x50
 8006fba:	a907      	add	r1, sp, #28
 8006fbc:	9115      	str	r1, [sp, #84]	; 0x54
 8006fbe:	9016      	str	r0, [sp, #88]	; 0x58
 8006fc0:	9117      	str	r1, [sp, #92]	; 0x5c
 8006fc2:	f000 f872 	bl	80070aa <__c_m_sh_syscall>
 8006fc6:	4601      	mov	r1, r0
 8006fc8:	9101      	str	r1, [sp, #4]
 8006fca:	900f      	str	r0, [sp, #60]	; 0x3c
 8006fcc:	3001      	adds	r0, #1
 8006fce:	b130      	cbz	r0, 8006fde <_ZN20cortex_m_semihosting3hio4open17ha62055ea2dad1facE+0x58>
 8006fd0:	e008      	b.n	8006fe4 <_ZN20cortex_m_semihosting3hio4open17ha62055ea2dad1facE+0x5e>
 8006fd2:	f649 00f0 	movw	r0, #39152	; 0x98f0
 8006fd6:	f6c0 0000 	movt	r0, #2048	; 0x800
 8006fda:	f001 fa7b 	bl	80084d4 <_ZN4core9panicking11panic_const24panic_const_sub_overflow17h13f5d7dd344e7336E>
 8006fde:	2001      	movs	r0, #1
 8006fe0:	9005      	str	r0, [sp, #20]
 8006fe2:	e004      	b.n	8006fee <_ZN20cortex_m_semihosting3hio4open17ha62055ea2dad1facE+0x68>
 8006fe4:	9801      	ldr	r0, [sp, #4]
 8006fe6:	9006      	str	r0, [sp, #24]
 8006fe8:	2000      	movs	r0, #0
 8006fea:	9005      	str	r0, [sp, #20]
 8006fec:	e7ff      	b.n	8006fee <_ZN20cortex_m_semihosting3hio4open17ha62055ea2dad1facE+0x68>
 8006fee:	9805      	ldr	r0, [sp, #20]
 8006ff0:	9906      	ldr	r1, [sp, #24]
 8006ff2:	b018      	add	sp, #96	; 0x60
 8006ff4:	bd80      	pop	{r7, pc}

08006ff6 <_ZN20cortex_m_semihosting3hio9write_all17hd01f01437bc20ca4E>:
 8006ff6:	b580      	push	{r7, lr}
 8006ff8:	466f      	mov	r7, sp
 8006ffa:	b098      	sub	sp, #96	; 0x60
 8006ffc:	9002      	str	r0, [sp, #8]
 8006ffe:	9103      	str	r1, [sp, #12]
 8007000:	9204      	str	r2, [sp, #16]
 8007002:	900a      	str	r0, [sp, #40]	; 0x28
 8007004:	e7ff      	b.n	8007006 <_ZN20cortex_m_semihosting3hio9write_all17hd01f01437bc20ca4E+0x10>
 8007006:	9803      	ldr	r0, [sp, #12]
 8007008:	9904      	ldr	r1, [sp, #16]
 800700a:	f7ff fd83 	bl	8006b14 <_ZN4core5slice29_$LT$impl$u20$$u5b$T$u5d$$GT$8is_empty17he812826fb1a4b04fE>
 800700e:	b9a8      	cbnz	r0, 800703c <_ZN20cortex_m_semihosting3hio9write_all17hd01f01437bc20ca4E+0x46>
 8007010:	e7ff      	b.n	8007012 <_ZN20cortex_m_semihosting3hio9write_all17hd01f01437bc20ca4E+0x1c>
 8007012:	9a02      	ldr	r2, [sp, #8]
 8007014:	9903      	ldr	r1, [sp, #12]
 8007016:	9804      	ldr	r0, [sp, #16]
 8007018:	9112      	str	r1, [sp, #72]	; 0x48
 800701a:	9013      	str	r0, [sp, #76]	; 0x4c
 800701c:	9804      	ldr	r0, [sp, #16]
 800701e:	9207      	str	r2, [sp, #28]
 8007020:	9108      	str	r1, [sp, #32]
 8007022:	9009      	str	r0, [sp, #36]	; 0x24
 8007024:	2005      	movs	r0, #5
 8007026:	9014      	str	r0, [sp, #80]	; 0x50
 8007028:	a907      	add	r1, sp, #28
 800702a:	9115      	str	r1, [sp, #84]	; 0x54
 800702c:	9016      	str	r0, [sp, #88]	; 0x58
 800702e:	9117      	str	r1, [sp, #92]	; 0x5c
 8007030:	f000 f83b 	bl	80070aa <__c_m_sh_syscall>
 8007034:	9006      	str	r0, [sp, #24]
 8007036:	9806      	ldr	r0, [sp, #24]
 8007038:	b120      	cbz	r0, 8007044 <_ZN20cortex_m_semihosting3hio9write_all17hd01f01437bc20ca4E+0x4e>
 800703a:	e007      	b.n	800704c <_ZN20cortex_m_semihosting3hio9write_all17hd01f01437bc20ca4E+0x56>
 800703c:	2000      	movs	r0, #0
 800703e:	f807 0c49 	strb.w	r0, [r7, #-73]
 8007042:	e00a      	b.n	800705a <_ZN20cortex_m_semihosting3hio9write_all17hd01f01437bc20ca4E+0x64>
 8007044:	2000      	movs	r0, #0
 8007046:	f807 0c49 	strb.w	r0, [r7, #-73]
 800704a:	e006      	b.n	800705a <_ZN20cortex_m_semihosting3hio9write_all17hd01f01437bc20ca4E+0x64>
 800704c:	a806      	add	r0, sp, #24
 800704e:	900b      	str	r0, [sp, #44]	; 0x2c
 8007050:	9806      	ldr	r0, [sp, #24]
 8007052:	9904      	ldr	r1, [sp, #16]
 8007054:	4288      	cmp	r0, r1
 8007056:	d90a      	bls.n	800706e <_ZN20cortex_m_semihosting3hio9write_all17hd01f01437bc20ca4E+0x78>
 8007058:	e005      	b.n	8007066 <_ZN20cortex_m_semihosting3hio9write_all17hd01f01437bc20ca4E+0x70>
 800705a:	f817 0c49 	ldrb.w	r0, [r7, #-73]
 800705e:	f000 0001 	and.w	r0, r0, #1
 8007062:	b018      	add	sp, #96	; 0x60
 8007064:	bd80      	pop	{r7, pc}
 8007066:	2001      	movs	r0, #1
 8007068:	f807 0c49 	strb.w	r0, [r7, #-73]
 800706c:	e7f5      	b.n	800705a <_ZN20cortex_m_semihosting3hio9write_all17hd01f01437bc20ca4E+0x64>
 800706e:	9906      	ldr	r1, [sp, #24]
 8007070:	9100      	str	r1, [sp, #0]
 8007072:	910c      	str	r1, [sp, #48]	; 0x30
 8007074:	9804      	ldr	r0, [sp, #16]
 8007076:	1a42      	subs	r2, r0, r1
 8007078:	9201      	str	r2, [sp, #4]
 800707a:	4288      	cmp	r0, r1
 800707c:	d30f      	bcc.n	800709e <_ZN20cortex_m_semihosting3hio9write_all17hd01f01437bc20ca4E+0xa8>
 800707e:	e7ff      	b.n	8007080 <_ZN20cortex_m_semihosting3hio9write_all17hd01f01437bc20ca4E+0x8a>
 8007080:	9900      	ldr	r1, [sp, #0]
 8007082:	9a01      	ldr	r2, [sp, #4]
 8007084:	920d      	str	r2, [sp, #52]	; 0x34
 8007086:	9803      	ldr	r0, [sp, #12]
 8007088:	9b04      	ldr	r3, [sp, #16]
 800708a:	9010      	str	r0, [sp, #64]	; 0x40
 800708c:	9311      	str	r3, [sp, #68]	; 0x44
 800708e:	900e      	str	r0, [sp, #56]	; 0x38
 8007090:	920f      	str	r2, [sp, #60]	; 0x3c
 8007092:	4410      	add	r0, r2
 8007094:	f000 f9d1 	bl	800743a <_ZN4core5slice3raw14from_raw_parts17h9fa92b64f5f7d449E>
 8007098:	9003      	str	r0, [sp, #12]
 800709a:	9104      	str	r1, [sp, #16]
 800709c:	e7b3      	b.n	8007006 <_ZN20cortex_m_semihosting3hio9write_all17hd01f01437bc20ca4E+0x10>
 800709e:	f649 1000 	movw	r0, #39168	; 0x9900
 80070a2:	f6c0 0000 	movt	r0, #2048	; 0x800
 80070a6:	f001 fa15 	bl	80084d4 <_ZN4core9panicking11panic_const24panic_const_sub_overflow17h13f5d7dd344e7336E>

080070aa <__c_m_sh_syscall>:
 80070aa:	beab      	bkpt	0x00ab
 80070ac:	4770      	bx	lr

080070ae <_ZN2r08zero_bss17h221b7638b3f3a871E>:
 80070ae:	b580      	push	{r7, lr}
 80070b0:	466f      	mov	r7, sp
 80070b2:	b092      	sub	sp, #72	; 0x48
 80070b4:	9104      	str	r1, [sp, #16]
 80070b6:	9005      	str	r0, [sp, #20]
 80070b8:	9106      	str	r1, [sp, #24]
 80070ba:	e7ff      	b.n	80070bc <_ZN2r08zero_bss17h221b7638b3f3a871E+0xe>
 80070bc:	9904      	ldr	r1, [sp, #16]
 80070be:	9805      	ldr	r0, [sp, #20]
 80070c0:	4288      	cmp	r0, r1
 80070c2:	d302      	bcc.n	80070ca <_ZN2r08zero_bss17h221b7638b3f3a871E+0x1c>
 80070c4:	e7ff      	b.n	80070c6 <_ZN2r08zero_bss17h221b7638b3f3a871E+0x18>
 80070c6:	b012      	add	sp, #72	; 0x48
 80070c8:	bd80      	pop	{r7, pc}
 80070ca:	9805      	ldr	r0, [sp, #20]
 80070cc:	9002      	str	r0, [sp, #8]
 80070ce:	2100      	movs	r1, #0
 80070d0:	9101      	str	r1, [sp, #4]
 80070d2:	f807 1c29 	strb.w	r1, [r7, #-41]
 80070d6:	2001      	movs	r0, #1
 80070d8:	9003      	str	r0, [sp, #12]
 80070da:	9008      	str	r0, [sp, #32]
 80070dc:	f807 1c21 	strb.w	r1, [r7, #-33]
 80070e0:	900a      	str	r0, [sp, #40]	; 0x28
 80070e2:	a80b      	add	r0, sp, #44	; 0x2c
 80070e4:	900c      	str	r0, [sp, #48]	; 0x30
 80070e6:	900d      	str	r0, [sp, #52]	; 0x34
 80070e8:	2104      	movs	r1, #4
 80070ea:	f000 f833 	bl	8007154 <_ZN4core10intrinsics11write_bytes18precondition_check17h5c85d58809854470E>
 80070ee:	9901      	ldr	r1, [sp, #4]
 80070f0:	9802      	ldr	r0, [sp, #8]
 80070f2:	910b      	str	r1, [sp, #44]	; 0x2c
 80070f4:	990b      	ldr	r1, [sp, #44]	; 0x2c
 80070f6:	910e      	str	r1, [sp, #56]	; 0x38
 80070f8:	910f      	str	r1, [sp, #60]	; 0x3c
 80070fa:	f000 f83d 	bl	8007178 <_ZN4core3ptr14write_volatile17h75c0b939a11ab949E>
 80070fe:	9903      	ldr	r1, [sp, #12]
 8007100:	9805      	ldr	r0, [sp, #20]
 8007102:	9010      	str	r0, [sp, #64]	; 0x40
 8007104:	9111      	str	r1, [sp, #68]	; 0x44
 8007106:	3004      	adds	r0, #4
 8007108:	9005      	str	r0, [sp, #20]
 800710a:	e7d7      	b.n	80070bc <_ZN2r08zero_bss17h221b7638b3f3a871E+0xe>

0800710c <_ZN2r09init_data17h18206475a7aff62aE>:
 800710c:	b580      	push	{r7, lr}
 800710e:	466f      	mov	r7, sp
 8007110:	b08a      	sub	sp, #40	; 0x28
 8007112:	9102      	str	r1, [sp, #8]
 8007114:	9003      	str	r0, [sp, #12]
 8007116:	9204      	str	r2, [sp, #16]
 8007118:	9105      	str	r1, [sp, #20]
 800711a:	e7ff      	b.n	800711c <_ZN2r09init_data17h18206475a7aff62aE+0x10>
 800711c:	9902      	ldr	r1, [sp, #8]
 800711e:	9803      	ldr	r0, [sp, #12]
 8007120:	4288      	cmp	r0, r1
 8007122:	d302      	bcc.n	800712a <_ZN2r09init_data17h18206475a7aff62aE+0x1e>
 8007124:	e7ff      	b.n	8007126 <_ZN2r09init_data17h18206475a7aff62aE+0x1a>
 8007126:	b00a      	add	sp, #40	; 0x28
 8007128:	bd80      	pop	{r7, pc}
 800712a:	9803      	ldr	r0, [sp, #12]
 800712c:	9001      	str	r0, [sp, #4]
 800712e:	9804      	ldr	r0, [sp, #16]
 8007130:	f000 f846 	bl	80071c0 <_ZN4core3ptr4read17h3d07d7738ebd3b18E>
 8007134:	4601      	mov	r1, r0
 8007136:	9801      	ldr	r0, [sp, #4]
 8007138:	f000 f847 	bl	80071ca <_ZN4core3ptr5write17he5e2153425923c5aE>
 800713c:	9803      	ldr	r0, [sp, #12]
 800713e:	9006      	str	r0, [sp, #24]
 8007140:	2101      	movs	r1, #1
 8007142:	9107      	str	r1, [sp, #28]
 8007144:	3004      	adds	r0, #4
 8007146:	9003      	str	r0, [sp, #12]
 8007148:	9804      	ldr	r0, [sp, #16]
 800714a:	9008      	str	r0, [sp, #32]
 800714c:	9109      	str	r1, [sp, #36]	; 0x24
 800714e:	3004      	adds	r0, #4
 8007150:	9004      	str	r0, [sp, #16]
 8007152:	e7e3      	b.n	800711c <_ZN2r09init_data17h18206475a7aff62aE+0x10>

08007154 <_ZN4core10intrinsics11write_bytes18precondition_check17h5c85d58809854470E>:
 8007154:	b580      	push	{r7, lr}
 8007156:	466f      	mov	r7, sp
 8007158:	b082      	sub	sp, #8
 800715a:	9000      	str	r0, [sp, #0]
 800715c:	9101      	str	r1, [sp, #4]
 800715e:	f000 f86c 	bl	800723a <_ZN4core9ub_checks23is_aligned_and_not_null17h5e9dd5281f11cd30E>
 8007162:	b938      	cbnz	r0, 8007174 <_ZN4core10intrinsics11write_bytes18precondition_check17h5c85d58809854470E+0x20>
 8007164:	e7ff      	b.n	8007166 <_ZN4core10intrinsics11write_bytes18precondition_check17h5c85d58809854470E+0x12>
 8007166:	f649 1010 	movw	r0, #39184	; 0x9910
 800716a:	f6c0 0000 	movt	r0, #2048	; 0x800
 800716e:	216f      	movs	r1, #111	; 0x6f
 8007170:	f000 fa6e 	bl	8007650 <_ZN4core9panicking14panic_nounwind17h012daec3df9df239E>
 8007174:	b002      	add	sp, #8
 8007176:	bd80      	pop	{r7, pc}

08007178 <_ZN4core3ptr14write_volatile17h75c0b939a11ab949E>:
 8007178:	b580      	push	{r7, lr}
 800717a:	466f      	mov	r7, sp
 800717c:	b084      	sub	sp, #16
 800717e:	9100      	str	r1, [sp, #0]
 8007180:	9001      	str	r0, [sp, #4]
 8007182:	9002      	str	r0, [sp, #8]
 8007184:	9103      	str	r1, [sp, #12]
 8007186:	e7ff      	b.n	8007188 <_ZN4core3ptr14write_volatile17h75c0b939a11ab949E+0x10>
 8007188:	9801      	ldr	r0, [sp, #4]
 800718a:	2104      	movs	r1, #4
 800718c:	f000 f806 	bl	800719c <_ZN4core3ptr14write_volatile18precondition_check17haf8a7f5876e083fbE>
 8007190:	e7ff      	b.n	8007192 <_ZN4core3ptr14write_volatile17h75c0b939a11ab949E+0x1a>
 8007192:	9800      	ldr	r0, [sp, #0]
 8007194:	9901      	ldr	r1, [sp, #4]
 8007196:	6008      	str	r0, [r1, #0]
 8007198:	b004      	add	sp, #16
 800719a:	bd80      	pop	{r7, pc}

0800719c <_ZN4core3ptr14write_volatile18precondition_check17haf8a7f5876e083fbE>:
 800719c:	b580      	push	{r7, lr}
 800719e:	466f      	mov	r7, sp
 80071a0:	b082      	sub	sp, #8
 80071a2:	9000      	str	r0, [sp, #0]
 80071a4:	9101      	str	r1, [sp, #4]
 80071a6:	f000 f848 	bl	800723a <_ZN4core9ub_checks23is_aligned_and_not_null17h5e9dd5281f11cd30E>
 80071aa:	b938      	cbnz	r0, 80071bc <_ZN4core3ptr14write_volatile18precondition_check17haf8a7f5876e083fbE+0x20>
 80071ac:	e7ff      	b.n	80071ae <_ZN4core3ptr14write_volatile18precondition_check17haf8a7f5876e083fbE+0x12>
 80071ae:	f649 107f 	movw	r0, #39295	; 0x997f
 80071b2:	f6c0 0000 	movt	r0, #2048	; 0x800
 80071b6:	216f      	movs	r1, #111	; 0x6f
 80071b8:	f000 fa4a 	bl	8007650 <_ZN4core9panicking14panic_nounwind17h012daec3df9df239E>
 80071bc:	b002      	add	sp, #8
 80071be:	bd80      	pop	{r7, pc}

080071c0 <_ZN4core3ptr4read17h3d07d7738ebd3b18E>:
 80071c0:	b081      	sub	sp, #4
 80071c2:	9000      	str	r0, [sp, #0]
 80071c4:	6800      	ldr	r0, [r0, #0]
 80071c6:	b001      	add	sp, #4
 80071c8:	4770      	bx	lr

080071ca <_ZN4core3ptr5write17he5e2153425923c5aE>:
 80071ca:	b082      	sub	sp, #8
 80071cc:	9000      	str	r0, [sp, #0]
 80071ce:	9101      	str	r1, [sp, #4]
 80071d0:	6001      	str	r1, [r0, #0]
 80071d2:	b002      	add	sp, #8
 80071d4:	4770      	bx	lr
 80071d6:	d4d4      	bmi.n	8007182 <_ZN4core3ptr14write_volatile17h75c0b939a11ab949E+0xa>

080071d8 <_ZN4core4sync6atomic14compiler_fence17hd7a7737ee8bcf2eeE>:
 80071d8:	b580      	push	{r7, lr}
 80071da:	466f      	mov	r7, sp
 80071dc:	b08a      	sub	sp, #40	; 0x28
 80071de:	f807 0c21 	strb.w	r0, [r7, #-33]
 80071e2:	f817 0c21 	ldrb.w	r0, [r7, #-33]
 80071e6:	9000      	str	r0, [sp, #0]
 80071e8:	9900      	ldr	r1, [sp, #0]
 80071ea:	e8df f001 	tbb	[pc, r1]
 80071ee:	2004      	.short	0x2004
 80071f0:	00232221 	.word	0x00232221
 80071f4:	defe      	udf	#254	; 0xfe
 80071f6:	f649 2120 	movw	r1, #39456	; 0x9a20
 80071fa:	f6c0 0100 	movt	r1, #2048	; 0x800
 80071fe:	9108      	str	r1, [sp, #32]
 8007200:	2001      	movs	r0, #1
 8007202:	9009      	str	r0, [sp, #36]	; 0x24
 8007204:	9102      	str	r1, [sp, #8]
 8007206:	9003      	str	r0, [sp, #12]
 8007208:	f648 2028 	movw	r0, #35368	; 0x8a28
 800720c:	f6c0 0000 	movt	r0, #2048	; 0x800
 8007210:	6801      	ldr	r1, [r0, #0]
 8007212:	6840      	ldr	r0, [r0, #4]
 8007214:	9106      	str	r1, [sp, #24]
 8007216:	9007      	str	r0, [sp, #28]
 8007218:	2004      	movs	r0, #4
 800721a:	9004      	str	r0, [sp, #16]
 800721c:	2000      	movs	r0, #0
 800721e:	9005      	str	r0, [sp, #20]
 8007220:	f649 2178 	movw	r1, #39544	; 0x9a78
 8007224:	f6c0 0100 	movt	r1, #2048	; 0x800
 8007228:	a802      	add	r0, sp, #8
 800722a:	f000 f9d2 	bl	80075d2 <_ZN4core9panicking9panic_fmt17hfc78cf87d9b52ef4E>
 800722e:	e002      	b.n	8007236 <_ZN4core4sync6atomic14compiler_fence17hd7a7737ee8bcf2eeE+0x5e>
 8007230:	e001      	b.n	8007236 <_ZN4core4sync6atomic14compiler_fence17hd7a7737ee8bcf2eeE+0x5e>
 8007232:	e000      	b.n	8007236 <_ZN4core4sync6atomic14compiler_fence17hd7a7737ee8bcf2eeE+0x5e>
 8007234:	e7ff      	b.n	8007236 <_ZN4core4sync6atomic14compiler_fence17hd7a7737ee8bcf2eeE+0x5e>
 8007236:	b00a      	add	sp, #40	; 0x28
 8007238:	bd80      	pop	{r7, pc}

0800723a <_ZN4core9ub_checks23is_aligned_and_not_null17h5e9dd5281f11cd30E>:
 800723a:	b580      	push	{r7, lr}
 800723c:	466f      	mov	r7, sp
 800723e:	b090      	sub	sp, #64	; 0x40
 8007240:	9101      	str	r1, [sp, #4]
 8007242:	900a      	str	r0, [sp, #40]	; 0x28
 8007244:	910b      	str	r1, [sp, #44]	; 0x2c
 8007246:	900c      	str	r0, [sp, #48]	; 0x30
 8007248:	4601      	mov	r1, r0
 800724a:	9102      	str	r1, [sp, #8]
 800724c:	b920      	cbnz	r0, 8007258 <_ZN4core9ub_checks23is_aligned_and_not_null17h5e9dd5281f11cd30E+0x1e>
 800724e:	e7ff      	b.n	8007250 <_ZN4core9ub_checks23is_aligned_and_not_null17h5e9dd5281f11cd30E+0x16>
 8007250:	2000      	movs	r0, #0
 8007252:	f807 0c31 	strb.w	r0, [r7, #-49]
 8007256:	e019      	b.n	800728c <_ZN4core9ub_checks23is_aligned_and_not_null17h5e9dd5281f11cd30E+0x52>
 8007258:	9801      	ldr	r0, [sp, #4]
 800725a:	f04f 3155 	mov.w	r1, #1431655765	; 0x55555555
 800725e:	ea01 0150 	and.w	r1, r1, r0, lsr #1
 8007262:	1a40      	subs	r0, r0, r1
 8007264:	f04f 3133 	mov.w	r1, #858993459	; 0x33333333
 8007268:	ea01 0190 	and.w	r1, r1, r0, lsr #2
 800726c:	f020 30cc 	bic.w	r0, r0, #3435973836	; 0xcccccccc
 8007270:	4408      	add	r0, r1
 8007272:	eb00 1010 	add.w	r0, r0, r0, lsr #4
 8007276:	f020 30f0 	bic.w	r0, r0, #4042322160	; 0xf0f0f0f0
 800727a:	f04f 3101 	mov.w	r1, #16843009	; 0x1010101
 800727e:	4348      	muls	r0, r1
 8007280:	0e00      	lsrs	r0, r0, #24
 8007282:	900d      	str	r0, [sp, #52]	; 0x34
 8007284:	980d      	ldr	r0, [sp, #52]	; 0x34
 8007286:	2801      	cmp	r0, #1
 8007288:	d006      	beq.n	8007298 <_ZN4core9ub_checks23is_aligned_and_not_null17h5e9dd5281f11cd30E+0x5e>
 800728a:	e00f      	b.n	80072ac <_ZN4core9ub_checks23is_aligned_and_not_null17h5e9dd5281f11cd30E+0x72>
 800728c:	f817 0c31 	ldrb.w	r0, [r7, #-49]
 8007290:	f000 0001 	and.w	r0, r0, #1
 8007294:	b010      	add	sp, #64	; 0x40
 8007296:	bd80      	pop	{r7, pc}
 8007298:	9802      	ldr	r0, [sp, #8]
 800729a:	9901      	ldr	r1, [sp, #4]
 800729c:	3901      	subs	r1, #1
 800729e:	4008      	ands	r0, r1
 80072a0:	fab0 f080 	clz	r0, r0
 80072a4:	0940      	lsrs	r0, r0, #5
 80072a6:	f807 0c31 	strb.w	r0, [r7, #-49]
 80072aa:	e7ef      	b.n	800728c <_ZN4core9ub_checks23is_aligned_and_not_null17h5e9dd5281f11cd30E+0x52>
 80072ac:	f649 21b4 	movw	r1, #39604	; 0x9ab4
 80072b0:	f6c0 0100 	movt	r1, #2048	; 0x800
 80072b4:	910e      	str	r1, [sp, #56]	; 0x38
 80072b6:	2001      	movs	r0, #1
 80072b8:	900f      	str	r0, [sp, #60]	; 0x3c
 80072ba:	9104      	str	r1, [sp, #16]
 80072bc:	9005      	str	r0, [sp, #20]
 80072be:	f648 2028 	movw	r0, #35368	; 0x8a28
 80072c2:	f6c0 0000 	movt	r0, #2048	; 0x800
 80072c6:	6801      	ldr	r1, [r0, #0]
 80072c8:	6840      	ldr	r0, [r0, #4]
 80072ca:	9108      	str	r1, [sp, #32]
 80072cc:	9009      	str	r0, [sp, #36]	; 0x24
 80072ce:	2004      	movs	r0, #4
 80072d0:	9006      	str	r0, [sp, #24]
 80072d2:	2000      	movs	r0, #0
 80072d4:	9007      	str	r0, [sp, #28]
 80072d6:	f649 3110 	movw	r1, #39696	; 0x9b10
 80072da:	f6c0 0100 	movt	r1, #2048	; 0x800
 80072de:	a804      	add	r0, sp, #16
 80072e0:	f000 f977 	bl	80075d2 <_ZN4core9panicking9panic_fmt17hfc78cf87d9b52ef4E>

080072e4 <ResetTrampoline>:
 80072e4:	b580      	push	{r7, lr}
 80072e6:	466f      	mov	r7, sp
 80072e8:	f7ff f8cf 	bl	800648a <main>

080072ec <DefaultHandler_>:
 80072ec:	b580      	push	{r7, lr}
 80072ee:	466f      	mov	r7, sp
 80072f0:	b082      	sub	sp, #8
 80072f2:	e7ff      	b.n	80072f4 <DefaultHandler_+0x8>
 80072f4:	2004      	movs	r0, #4
 80072f6:	f807 0c01 	strb.w	r0, [r7, #-1]
 80072fa:	f817 0c01 	ldrb.w	r0, [r7, #-1]
 80072fe:	f7ff ff6b 	bl	80071d8 <_ZN4core4sync6atomic14compiler_fence17hd7a7737ee8bcf2eeE>
 8007302:	e7f7      	b.n	80072f4 <DefaultHandler_+0x8>

08007304 <DefaultPreInit>:
 8007304:	4770      	bx	lr
 8007306:	d4d4      	bmi.n	80072b2 <_ZN4core9ub_checks23is_aligned_and_not_null17h5e9dd5281f11cd30E+0x78>

08007308 <_ZN4core4sync6atomic14compiler_fence17hf306c6787e1367b5E>:
 8007308:	b580      	push	{r7, lr}
 800730a:	466f      	mov	r7, sp
 800730c:	b08a      	sub	sp, #40	; 0x28
 800730e:	f807 0c21 	strb.w	r0, [r7, #-33]
 8007312:	f817 0c21 	ldrb.w	r0, [r7, #-33]
 8007316:	9000      	str	r0, [sp, #0]
 8007318:	9900      	ldr	r1, [sp, #0]
 800731a:	e8df f001 	tbb	[pc, r1]
 800731e:	2004      	.short	0x2004
 8007320:	00232221 	.word	0x00232221
 8007324:	defe      	udf	#254	; 0xfe
 8007326:	f649 3154 	movw	r1, #39764	; 0x9b54
 800732a:	f6c0 0100 	movt	r1, #2048	; 0x800
 800732e:	9108      	str	r1, [sp, #32]
 8007330:	2001      	movs	r0, #1
 8007332:	9009      	str	r0, [sp, #36]	; 0x24
 8007334:	9102      	str	r1, [sp, #8]
 8007336:	9003      	str	r0, [sp, #12]
 8007338:	f648 2028 	movw	r0, #35368	; 0x8a28
 800733c:	f6c0 0000 	movt	r0, #2048	; 0x800
 8007340:	6801      	ldr	r1, [r0, #0]
 8007342:	6840      	ldr	r0, [r0, #4]
 8007344:	9106      	str	r1, [sp, #24]
 8007346:	9007      	str	r0, [sp, #28]
 8007348:	2004      	movs	r0, #4
 800734a:	9004      	str	r0, [sp, #16]
 800734c:	2000      	movs	r0, #0
 800734e:	9005      	str	r0, [sp, #20]
 8007350:	f649 31ac 	movw	r1, #39852	; 0x9bac
 8007354:	f6c0 0100 	movt	r1, #2048	; 0x800
 8007358:	a802      	add	r0, sp, #8
 800735a:	f000 f93a 	bl	80075d2 <_ZN4core9panicking9panic_fmt17hfc78cf87d9b52ef4E>
 800735e:	e002      	b.n	8007366 <_ZN4core4sync6atomic14compiler_fence17hf306c6787e1367b5E+0x5e>
 8007360:	e001      	b.n	8007366 <_ZN4core4sync6atomic14compiler_fence17hf306c6787e1367b5E+0x5e>
 8007362:	e000      	b.n	8007366 <_ZN4core4sync6atomic14compiler_fence17hf306c6787e1367b5E+0x5e>
 8007364:	e7ff      	b.n	8007366 <_ZN4core4sync6atomic14compiler_fence17hf306c6787e1367b5E+0x5e>
 8007366:	b00a      	add	sp, #40	; 0x28
 8007368:	bd80      	pop	{r7, pc}

0800736a <rust_begin_unwind>:
 800736a:	b580      	push	{r7, lr}
 800736c:	466f      	mov	r7, sp
 800736e:	b082      	sub	sp, #8
 8007370:	9001      	str	r0, [sp, #4]
 8007372:	e7ff      	b.n	8007374 <rust_begin_unwind+0xa>
 8007374:	2004      	movs	r0, #4
 8007376:	f807 0c05 	strb.w	r0, [r7, #-5]
 800737a:	f817 0c05 	ldrb.w	r0, [r7, #-5]
 800737e:	f7ff ffc3 	bl	8007308 <_ZN4core4sync6atomic14compiler_fence17hf306c6787e1367b5E>
 8007382:	e7f7      	b.n	8007374 <rust_begin_unwind+0xa>

08007384 <_ZN4core3ptr13read_volatile17h384c2f472b76a07aE>:
 8007384:	b580      	push	{r7, lr}
 8007386:	466f      	mov	r7, sp
 8007388:	b084      	sub	sp, #16
 800738a:	9001      	str	r0, [sp, #4]
 800738c:	9002      	str	r0, [sp, #8]
 800738e:	e7ff      	b.n	8007390 <_ZN4core3ptr13read_volatile17h384c2f472b76a07aE+0xc>
 8007390:	9801      	ldr	r0, [sp, #4]
 8007392:	2104      	movs	r1, #4
 8007394:	f000 f807 	bl	80073a6 <_ZN4core3ptr13read_volatile18precondition_check17h07d48b6f5c0ed913E>
 8007398:	e7ff      	b.n	800739a <_ZN4core3ptr13read_volatile17h384c2f472b76a07aE+0x16>
 800739a:	9801      	ldr	r0, [sp, #4]
 800739c:	6800      	ldr	r0, [r0, #0]
 800739e:	9003      	str	r0, [sp, #12]
 80073a0:	9803      	ldr	r0, [sp, #12]
 80073a2:	b004      	add	sp, #16
 80073a4:	bd80      	pop	{r7, pc}

080073a6 <_ZN4core3ptr13read_volatile18precondition_check17h07d48b6f5c0ed913E>:
 80073a6:	b580      	push	{r7, lr}
 80073a8:	466f      	mov	r7, sp
 80073aa:	b082      	sub	sp, #8
 80073ac:	9000      	str	r0, [sp, #0]
 80073ae:	9101      	str	r1, [sp, #4]
 80073b0:	f000 f893 	bl	80074da <_ZN4core9ub_checks23is_aligned_and_not_null17h94b90a8b0fb4df1bE>
 80073b4:	b938      	cbnz	r0, 80073c6 <_ZN4core3ptr13read_volatile18precondition_check17h07d48b6f5c0ed913E+0x20>
 80073b6:	e7ff      	b.n	80073b8 <_ZN4core3ptr13read_volatile18precondition_check17h07d48b6f5c0ed913E+0x12>
 80073b8:	f649 30bc 	movw	r0, #39868	; 0x9bbc
 80073bc:	f6c0 0000 	movt	r0, #2048	; 0x800
 80073c0:	216e      	movs	r1, #110	; 0x6e
 80073c2:	f000 f945 	bl	8007650 <_ZN4core9panicking14panic_nounwind17h012daec3df9df239E>
 80073c6:	b002      	add	sp, #8
 80073c8:	bd80      	pop	{r7, pc}

080073ca <_ZN4core3ptr14write_volatile17h1107804f5d0d1450E>:
 80073ca:	b580      	push	{r7, lr}
 80073cc:	466f      	mov	r7, sp
 80073ce:	b084      	sub	sp, #16
 80073d0:	9000      	str	r0, [sp, #0]
 80073d2:	460a      	mov	r2, r1
 80073d4:	9201      	str	r2, [sp, #4]
 80073d6:	9002      	str	r0, [sp, #8]
 80073d8:	f827 1c02 	strh.w	r1, [r7, #-2]
 80073dc:	e7ff      	b.n	80073de <_ZN4core3ptr14write_volatile17h1107804f5d0d1450E+0x14>
 80073de:	9800      	ldr	r0, [sp, #0]
 80073e0:	2102      	movs	r1, #2
 80073e2:	f000 f818 	bl	8007416 <_ZN4core3ptr14write_volatile18precondition_check17ha5da4128c48ea4a1E>
 80073e6:	e7ff      	b.n	80073e8 <_ZN4core3ptr14write_volatile17h1107804f5d0d1450E+0x1e>
 80073e8:	9801      	ldr	r0, [sp, #4]
 80073ea:	9900      	ldr	r1, [sp, #0]
 80073ec:	8008      	strh	r0, [r1, #0]
 80073ee:	b004      	add	sp, #16
 80073f0:	bd80      	pop	{r7, pc}

080073f2 <_ZN4core3ptr14write_volatile17h46a673fe162f1e59E>:
 80073f2:	b580      	push	{r7, lr}
 80073f4:	466f      	mov	r7, sp
 80073f6:	b084      	sub	sp, #16
 80073f8:	9100      	str	r1, [sp, #0]
 80073fa:	9001      	str	r0, [sp, #4]
 80073fc:	9002      	str	r0, [sp, #8]
 80073fe:	9103      	str	r1, [sp, #12]
 8007400:	e7ff      	b.n	8007402 <_ZN4core3ptr14write_volatile17h46a673fe162f1e59E+0x10>
 8007402:	9801      	ldr	r0, [sp, #4]
 8007404:	2104      	movs	r1, #4
 8007406:	f000 f806 	bl	8007416 <_ZN4core3ptr14write_volatile18precondition_check17ha5da4128c48ea4a1E>
 800740a:	e7ff      	b.n	800740c <_ZN4core3ptr14write_volatile17h46a673fe162f1e59E+0x1a>
 800740c:	9800      	ldr	r0, [sp, #0]
 800740e:	9901      	ldr	r1, [sp, #4]
 8007410:	6008      	str	r0, [r1, #0]
 8007412:	b004      	add	sp, #16
 8007414:	bd80      	pop	{r7, pc}

08007416 <_ZN4core3ptr14write_volatile18precondition_check17ha5da4128c48ea4a1E>:
 8007416:	b580      	push	{r7, lr}
 8007418:	466f      	mov	r7, sp
 800741a:	b082      	sub	sp, #8
 800741c:	9000      	str	r0, [sp, #0]
 800741e:	9101      	str	r1, [sp, #4]
 8007420:	f000 f85b 	bl	80074da <_ZN4core9ub_checks23is_aligned_and_not_null17h94b90a8b0fb4df1bE>
 8007424:	b938      	cbnz	r0, 8007436 <_ZN4core3ptr14write_volatile18precondition_check17ha5da4128c48ea4a1E+0x20>
 8007426:	e7ff      	b.n	8007428 <_ZN4core3ptr14write_volatile18precondition_check17ha5da4128c48ea4a1E+0x12>
 8007428:	f649 402a 	movw	r0, #39978	; 0x9c2a
 800742c:	f6c0 0000 	movt	r0, #2048	; 0x800
 8007430:	216f      	movs	r1, #111	; 0x6f
 8007432:	f000 f90d 	bl	8007650 <_ZN4core9panicking14panic_nounwind17h012daec3df9df239E>
 8007436:	b002      	add	sp, #8
 8007438:	bd80      	pop	{r7, pc}

0800743a <_ZN4core5slice3raw14from_raw_parts17h9fa92b64f5f7d449E>:
 800743a:	b580      	push	{r7, lr}
 800743c:	466f      	mov	r7, sp
 800743e:	b086      	sub	sp, #24
 8007440:	9101      	str	r1, [sp, #4]
 8007442:	9002      	str	r0, [sp, #8]
 8007444:	9003      	str	r0, [sp, #12]
 8007446:	9104      	str	r1, [sp, #16]
 8007448:	e7ff      	b.n	800744a <_ZN4core5slice3raw14from_raw_parts17h9fa92b64f5f7d449E+0x10>
 800744a:	9b01      	ldr	r3, [sp, #4]
 800744c:	9802      	ldr	r0, [sp, #8]
 800744e:	2201      	movs	r2, #1
 8007450:	4611      	mov	r1, r2
 8007452:	f000 f806 	bl	8007462 <_ZN4core5slice3raw14from_raw_parts18precondition_check17h8298998e61729883E>
 8007456:	e7ff      	b.n	8007458 <_ZN4core5slice3raw14from_raw_parts17h9fa92b64f5f7d449E+0x1e>
 8007458:	9901      	ldr	r1, [sp, #4]
 800745a:	9802      	ldr	r0, [sp, #8]
 800745c:	9005      	str	r0, [sp, #20]
 800745e:	b006      	add	sp, #24
 8007460:	bd80      	pop	{r7, pc}

08007462 <_ZN4core5slice3raw14from_raw_parts18precondition_check17h8298998e61729883E>:
 8007462:	b580      	push	{r7, lr}
 8007464:	466f      	mov	r7, sp
 8007466:	b08a      	sub	sp, #40	; 0x28
 8007468:	9302      	str	r3, [sp, #8]
 800746a:	9203      	str	r2, [sp, #12]
 800746c:	460a      	mov	r2, r1
 800746e:	9903      	ldr	r1, [sp, #12]
 8007470:	9204      	str	r2, [sp, #16]
 8007472:	9006      	str	r0, [sp, #24]
 8007474:	9207      	str	r2, [sp, #28]
 8007476:	9108      	str	r1, [sp, #32]
 8007478:	9309      	str	r3, [sp, #36]	; 0x24
 800747a:	f000 f82e 	bl	80074da <_ZN4core9ub_checks23is_aligned_and_not_null17h94b90a8b0fb4df1bE>
 800747e:	b908      	cbnz	r0, 8007484 <_ZN4core5slice3raw14from_raw_parts18precondition_check17h8298998e61729883E+0x22>
 8007480:	e7ff      	b.n	8007482 <_ZN4core5slice3raw14from_raw_parts18precondition_check17h8298998e61729883E+0x20>
 8007482:	e006      	b.n	8007492 <_ZN4core5slice3raw14from_raw_parts18precondition_check17h8298998e61729883E+0x30>
 8007484:	9804      	ldr	r0, [sp, #16]
 8007486:	fab0 f180 	clz	r1, r0
 800748a:	0949      	lsrs	r1, r1, #5
 800748c:	9101      	str	r1, [sp, #4]
 800748e:	b138      	cbz	r0, 80074a0 <_ZN4core5slice3raw14from_raw_parts18precondition_check17h8298998e61729883E+0x3e>
 8007490:	e00a      	b.n	80074a8 <_ZN4core5slice3raw14from_raw_parts18precondition_check17h8298998e61729883E+0x46>
 8007492:	f649 40f8 	movw	r0, #40184	; 0x9cf8
 8007496:	f6c0 0000 	movt	r0, #2048	; 0x800
 800749a:	21a2      	movs	r1, #162	; 0xa2
 800749c:	f000 f8d8 	bl	8007650 <_ZN4core9panicking14panic_nounwind17h012daec3df9df239E>
 80074a0:	f04f 30ff 	mov.w	r0, #4294967295	; 0xffffffff
 80074a4:	9005      	str	r0, [sp, #20]
 80074a6:	e003      	b.n	80074b0 <_ZN4core5slice3raw14from_raw_parts18precondition_check17h8298998e61729883E+0x4e>
 80074a8:	9801      	ldr	r0, [sp, #4]
 80074aa:	07c0      	lsls	r0, r0, #31
 80074ac:	b960      	cbnz	r0, 80074c8 <_ZN4core5slice3raw14from_raw_parts18precondition_check17h8298998e61729883E+0x66>
 80074ae:	e004      	b.n	80074ba <_ZN4core5slice3raw14from_raw_parts18precondition_check17h8298998e61729883E+0x58>
 80074b0:	9802      	ldr	r0, [sp, #8]
 80074b2:	9905      	ldr	r1, [sp, #20]
 80074b4:	4288      	cmp	r0, r1
 80074b6:	d90e      	bls.n	80074d6 <_ZN4core5slice3raw14from_raw_parts18precondition_check17h8298998e61729883E+0x74>
 80074b8:	e00c      	b.n	80074d4 <_ZN4core5slice3raw14from_raw_parts18precondition_check17h8298998e61729883E+0x72>
 80074ba:	9904      	ldr	r1, [sp, #16]
 80074bc:	f06f 4000 	mvn.w	r0, #2147483648	; 0x80000000
 80074c0:	fbb0 f0f1 	udiv	r0, r0, r1
 80074c4:	9005      	str	r0, [sp, #20]
 80074c6:	e7f3      	b.n	80074b0 <_ZN4core5slice3raw14from_raw_parts18precondition_check17h8298998e61729883E+0x4e>
 80074c8:	f649 40e8 	movw	r0, #40168	; 0x9ce8
 80074cc:	f6c0 0000 	movt	r0, #2048	; 0x800
 80074d0:	f001 f826 	bl	8008520 <_ZN4core9panicking11panic_const23panic_const_div_by_zero17h4ed8dab053fa7359E>
 80074d4:	e7dd      	b.n	8007492 <_ZN4core5slice3raw14from_raw_parts18precondition_check17h8298998e61729883E+0x30>
 80074d6:	b00a      	add	sp, #40	; 0x28
 80074d8:	bd80      	pop	{r7, pc}

080074da <_ZN4core9ub_checks23is_aligned_and_not_null17h94b90a8b0fb4df1bE>:
 80074da:	b580      	push	{r7, lr}
 80074dc:	466f      	mov	r7, sp
 80074de:	b090      	sub	sp, #64	; 0x40
 80074e0:	9101      	str	r1, [sp, #4]
 80074e2:	900a      	str	r0, [sp, #40]	; 0x28
 80074e4:	910b      	str	r1, [sp, #44]	; 0x2c
 80074e6:	900c      	str	r0, [sp, #48]	; 0x30
 80074e8:	4601      	mov	r1, r0
 80074ea:	9102      	str	r1, [sp, #8]
 80074ec:	b920      	cbnz	r0, 80074f8 <_ZN4core9ub_checks23is_aligned_and_not_null17h94b90a8b0fb4df1bE+0x1e>
 80074ee:	e7ff      	b.n	80074f0 <_ZN4core9ub_checks23is_aligned_and_not_null17h94b90a8b0fb4df1bE+0x16>
 80074f0:	2000      	movs	r0, #0
 80074f2:	f807 0c31 	strb.w	r0, [r7, #-49]
 80074f6:	e019      	b.n	800752c <_ZN4core9ub_checks23is_aligned_and_not_null17h94b90a8b0fb4df1bE+0x52>
 80074f8:	9801      	ldr	r0, [sp, #4]
 80074fa:	f04f 3155 	mov.w	r1, #1431655765	; 0x55555555
 80074fe:	ea01 0150 	and.w	r1, r1, r0, lsr #1
 8007502:	1a40      	subs	r0, r0, r1
 8007504:	f04f 3133 	mov.w	r1, #858993459	; 0x33333333
 8007508:	ea01 0190 	and.w	r1, r1, r0, lsr #2
 800750c:	f020 30cc 	bic.w	r0, r0, #3435973836	; 0xcccccccc
 8007510:	4408      	add	r0, r1
 8007512:	eb00 1010 	add.w	r0, r0, r0, lsr #4
 8007516:	f020 30f0 	bic.w	r0, r0, #4042322160	; 0xf0f0f0f0
 800751a:	f04f 3101 	mov.w	r1, #16843009	; 0x1010101
 800751e:	4348      	muls	r0, r1
 8007520:	0e00      	lsrs	r0, r0, #24
 8007522:	900d      	str	r0, [sp, #52]	; 0x34
 8007524:	980d      	ldr	r0, [sp, #52]	; 0x34
 8007526:	2801      	cmp	r0, #1
 8007528:	d006      	beq.n	8007538 <_ZN4core9ub_checks23is_aligned_and_not_null17h94b90a8b0fb4df1bE+0x5e>
 800752a:	e00f      	b.n	800754c <_ZN4core9ub_checks23is_aligned_and_not_null17h94b90a8b0fb4df1bE+0x72>
 800752c:	f817 0c31 	ldrb.w	r0, [r7, #-49]
 8007530:	f000 0001 	and.w	r0, r0, #1
 8007534:	b010      	add	sp, #64	; 0x40
 8007536:	bd80      	pop	{r7, pc}
 8007538:	9802      	ldr	r0, [sp, #8]
 800753a:	9901      	ldr	r1, [sp, #4]
 800753c:	3901      	subs	r1, #1
 800753e:	4008      	ands	r0, r1
 8007540:	fab0 f080 	clz	r0, r0
 8007544:	0940      	lsrs	r0, r0, #5
 8007546:	f807 0c31 	strb.w	r0, [r7, #-49]
 800754a:	e7ef      	b.n	800752c <_ZN4core9ub_checks23is_aligned_and_not_null17h94b90a8b0fb4df1bE+0x52>
 800754c:	f649 51c4 	movw	r1, #40388	; 0x9dc4
 8007550:	f6c0 0100 	movt	r1, #2048	; 0x800
 8007554:	910e      	str	r1, [sp, #56]	; 0x38
 8007556:	2001      	movs	r0, #1
 8007558:	900f      	str	r0, [sp, #60]	; 0x3c
 800755a:	9104      	str	r1, [sp, #16]
 800755c:	9005      	str	r0, [sp, #20]
 800755e:	f648 2028 	movw	r0, #35368	; 0x8a28
 8007562:	f6c0 0000 	movt	r0, #2048	; 0x800
 8007566:	6801      	ldr	r1, [r0, #0]
 8007568:	6840      	ldr	r0, [r0, #4]
 800756a:	9108      	str	r1, [sp, #32]
 800756c:	9009      	str	r0, [sp, #36]	; 0x24
 800756e:	2004      	movs	r0, #4
 8007570:	9006      	str	r0, [sp, #24]
 8007572:	2000      	movs	r0, #0
 8007574:	9007      	str	r0, [sp, #28]
 8007576:	f649 6120 	movw	r1, #40480	; 0x9e20
 800757a:	f6c0 0100 	movt	r1, #2048	; 0x800
 800757e:	a804      	add	r0, sp, #16
 8007580:	f000 f827 	bl	80075d2 <_ZN4core9panicking9panic_fmt17hfc78cf87d9b52ef4E>

08007584 <__cpsid>:
 8007584:	b672      	cpsid	i
 8007586:	4770      	bx	lr

08007588 <__cpsie>:
 8007588:	b662      	cpsie	i
 800758a:	4770      	bx	lr

0800758c <__dmb>:
 800758c:	f3bf 8f5f 	dmb	sy
 8007590:	4770      	bx	lr

08007592 <__primask_r>:
 8007592:	f3ef 8010 	mrs	r0, PRIMASK
 8007596:	4770      	bx	lr

08007598 <_ZN10bare_metal15CriticalSection3new17hf9bac75e47662832E>:
 8007598:	4770      	bx	lr

0800759a <_ZN4core3ptr37drop_in_place$LT$core..fmt..Error$GT$17he243bfccfe53a13dE>:
 800759a:	4770      	bx	lr

0800759c <_ZN36_$LT$T$u20$as$u20$core..any..Any$GT$7type_id17hb962578b08ccc416E>:
 800759c:	f243 20d6 	movw	r0, #13014	; 0x32d6
 80075a0:	f647 613c 	movw	r1, #32316	; 0x7e3c
 80075a4:	f242 4205 	movw	r2, #9221	; 0x2405
 80075a8:	f244 73c3 	movw	r3, #18371	; 0x47c3
 80075ac:	f6ca 3074 	movt	r0, #43892	; 0xab74
 80075b0:	f6ce 31c5 	movt	r1, #60357	; 0xebc5
 80075b4:	f6c1 2254 	movt	r2, #6740	; 0x1a54
 80075b8:	f2c5 0342 	movt	r3, #20546	; 0x5042
 80075bc:	4770      	bx	lr

080075be <_ZN4core6option13unwrap_failed17h7862ad8064d6fc0bE>:
 80075be:	b580      	push	{r7, lr}
 80075c0:	466f      	mov	r7, sp
 80075c2:	4602      	mov	r2, r0
 80075c4:	f649 60bc 	movw	r0, #40636	; 0x9ebc
 80075c8:	f6c0 0000 	movt	r0, #2048	; 0x800
 80075cc:	212b      	movs	r1, #43	; 0x2b
 80075ce:	f000 f82c 	bl	800762a <_ZN4core9panicking5panic17h552d5519ef885633E>

080075d2 <_ZN4core9panicking9panic_fmt17hfc78cf87d9b52ef4E>:
 80075d2:	b580      	push	{r7, lr}
 80075d4:	466f      	mov	r7, sp
 80075d6:	b086      	sub	sp, #24
 80075d8:	e9cd 0103 	strd	r0, r1, [sp, #12]
 80075dc:	f649 60e8 	movw	r0, #40680	; 0x9ee8
 80075e0:	2201      	movs	r2, #1
 80075e2:	f6c0 0000 	movt	r0, #2048	; 0x800
 80075e6:	e9cd 2001 	strd	r2, r0, [sp, #4]
 80075ea:	a801      	add	r0, sp, #4
 80075ec:	f8ad 2014 	strh.w	r2, [sp, #20]
 80075f0:	f7ff febb 	bl	800736a <rust_begin_unwind>

080075f4 <_ZN4core9panicking18panic_nounwind_fmt17ha5c3fa3d26b7c004E>:
 80075f4:	b580      	push	{r7, lr}
 80075f6:	466f      	mov	r7, sp
 80075f8:	b08c      	sub	sp, #48	; 0x30
 80075fa:	f10d 0c04 	add.w	ip, sp, #4
 80075fe:	e890 4370 	ldmia.w	r0, {r4, r5, r6, r8, r9, lr}
 8007602:	2000      	movs	r0, #0
 8007604:	4663      	mov	r3, ip
 8007606:	e883 4370 	stmia.w	r3, {r4, r5, r6, r8, r9, lr}
 800760a:	f88d 002c 	strb.w	r0, [sp, #44]	; 0x2c
 800760e:	f649 60e8 	movw	r0, #40680	; 0x9ee8
 8007612:	f6c0 0000 	movt	r0, #2048	; 0x800
 8007616:	f88d 102d 	strb.w	r1, [sp, #45]	; 0x2d
 800761a:	9008      	str	r0, [sp, #32]
 800761c:	2001      	movs	r0, #1
 800761e:	9007      	str	r0, [sp, #28]
 8007620:	a807      	add	r0, sp, #28
 8007622:	e9cd c209 	strd	ip, r2, [sp, #36]	; 0x24
 8007626:	f7ff fea0 	bl	800736a <rust_begin_unwind>

0800762a <_ZN4core9panicking5panic17h552d5519ef885633E>:
 800762a:	b580      	push	{r7, lr}
 800762c:	466f      	mov	r7, sp
 800762e:	b088      	sub	sp, #32
 8007630:	4694      	mov	ip, r2
 8007632:	2201      	movs	r2, #1
 8007634:	9201      	str	r2, [sp, #4]
 8007636:	aa06      	add	r2, sp, #24
 8007638:	2300      	movs	r3, #0
 800763a:	e9cd 0106 	strd	r0, r1, [sp, #24]
 800763e:	9200      	str	r2, [sp, #0]
 8007640:	2204      	movs	r2, #4
 8007642:	4668      	mov	r0, sp
 8007644:	4661      	mov	r1, ip
 8007646:	9304      	str	r3, [sp, #16]
 8007648:	9303      	str	r3, [sp, #12]
 800764a:	9202      	str	r2, [sp, #8]
 800764c:	f7ff ffc1 	bl	80075d2 <_ZN4core9panicking9panic_fmt17hfc78cf87d9b52ef4E>

08007650 <_ZN4core9panicking14panic_nounwind17h012daec3df9df239E>:
 8007650:	b580      	push	{r7, lr}
 8007652:	466f      	mov	r7, sp
 8007654:	b088      	sub	sp, #32
 8007656:	2200      	movs	r2, #0
 8007658:	e9cd 0106 	strd	r0, r1, [sp, #24]
 800765c:	9204      	str	r2, [sp, #16]
 800765e:	2301      	movs	r3, #1
 8007660:	9203      	str	r2, [sp, #12]
 8007662:	2204      	movs	r2, #4
 8007664:	9202      	str	r2, [sp, #8]
 8007666:	f649 7218 	movw	r2, #40728	; 0x9f18
 800766a:	f6c0 0200 	movt	r2, #2048	; 0x800
 800766e:	4668      	mov	r0, sp
 8007670:	2100      	movs	r1, #0
 8007672:	9301      	str	r3, [sp, #4]
 8007674:	ab06      	add	r3, sp, #24
 8007676:	9300      	str	r3, [sp, #0]
 8007678:	f7ff ffbc 	bl	80075f4 <_ZN4core9panicking18panic_nounwind_fmt17ha5c3fa3d26b7c004E>

0800767c <_ZN4core9panicking36panic_misaligned_pointer_dereference17hb537f21f1e0ef688E>:
 800767c:	b580      	push	{r7, lr}
 800767e:	466f      	mov	r7, sp
 8007680:	b09c      	sub	sp, #112	; 0x70
 8007682:	e9cd 0100 	strd	r0, r1, [sp]
 8007686:	a90c      	add	r1, sp, #48	; 0x30
 8007688:	9106      	str	r1, [sp, #24]
 800768a:	f248 61ab 	movw	r1, #34475	; 0x86ab
 800768e:	ab01      	add	r3, sp, #4
 8007690:	f6c0 0100 	movt	r1, #2048	; 0x800
 8007694:	910b      	str	r1, [sp, #44]	; 0x2c
 8007696:	2002      	movs	r0, #2
 8007698:	e9cd 1309 	strd	r1, r3, [sp, #36]	; 0x24
 800769c:	4669      	mov	r1, sp
 800769e:	9108      	str	r1, [sp, #32]
 80076a0:	f649 7168 	movw	r1, #40808	; 0x9f68
 80076a4:	f6c0 0100 	movt	r1, #2048	; 0x800
 80076a8:	2304      	movs	r3, #4
 80076aa:	9102      	str	r1, [sp, #8]
 80076ac:	2101      	movs	r1, #1
 80076ae:	9007      	str	r0, [sp, #28]
 80076b0:	f04f 0c03 	mov.w	ip, #3
 80076b4:	9003      	str	r0, [sp, #12]
 80076b6:	9016      	str	r0, [sp, #88]	; 0x58
 80076b8:	9014      	str	r0, [sp, #80]	; 0x50
 80076ba:	900e      	str	r0, [sp, #56]	; 0x38
 80076bc:	900c      	str	r0, [sp, #48]	; 0x30
 80076be:	9005      	str	r0, [sp, #20]
 80076c0:	a808      	add	r0, sp, #32
 80076c2:	9119      	str	r1, [sp, #100]	; 0x64
 80076c4:	2120      	movs	r1, #32
 80076c6:	9004      	str	r0, [sp, #16]
 80076c8:	a802      	add	r0, sp, #8
 80076ca:	931a      	str	r3, [sp, #104]	; 0x68
 80076cc:	9312      	str	r3, [sp, #72]	; 0x48
 80076ce:	2300      	movs	r3, #0
 80076d0:	9118      	str	r1, [sp, #96]	; 0x60
 80076d2:	e9cd 1310 	strd	r1, r3, [sp, #64]	; 0x40
 80076d6:	2100      	movs	r1, #0
 80076d8:	f88d c06c 	strb.w	ip, [sp, #108]	; 0x6c
 80076dc:	f88d c04c 	strb.w	ip, [sp, #76]	; 0x4c
 80076e0:	f7ff ff88 	bl	80075f4 <_ZN4core9panicking18panic_nounwind_fmt17ha5c3fa3d26b7c004E>

080076e4 <_ZN4core6result13unwrap_failed17h1cc36b5a5c181ee4E>:
 80076e4:	b580      	push	{r7, lr}
 80076e6:	466f      	mov	r7, sp
 80076e8:	b08e      	sub	sp, #56	; 0x38
 80076ea:	e88d 000f 	stmia.w	sp, {r0, r1, r2, r3}
 80076ee:	2000      	movs	r0, #0
 80076f0:	f649 717c 	movw	r1, #40828	; 0x9f7c
 80076f4:	9008      	str	r0, [sp, #32]
 80076f6:	2002      	movs	r0, #2
 80076f8:	9005      	str	r0, [sp, #20]
 80076fa:	f6c0 0100 	movt	r1, #2048	; 0x800
 80076fe:	9007      	str	r0, [sp, #28]
 8007700:	a80a      	add	r0, sp, #40	; 0x28
 8007702:	9006      	str	r0, [sp, #24]
 8007704:	f648 10e3 	movw	r0, #35299	; 0x89e3
 8007708:	f6c0 0000 	movt	r0, #2048	; 0x800
 800770c:	f8d7 c008 	ldr.w	ip, [r7, #8]
 8007710:	900d      	str	r0, [sp, #52]	; 0x34
 8007712:	a802      	add	r0, sp, #8
 8007714:	900c      	str	r0, [sp, #48]	; 0x30
 8007716:	f648 10eb 	movw	r0, #35307	; 0x89eb
 800771a:	f6c0 0000 	movt	r0, #2048	; 0x800
 800771e:	9104      	str	r1, [sp, #16]
 8007720:	900b      	str	r0, [sp, #44]	; 0x2c
 8007722:	4668      	mov	r0, sp
 8007724:	900a      	str	r0, [sp, #40]	; 0x28
 8007726:	a804      	add	r0, sp, #16
 8007728:	4661      	mov	r1, ip
 800772a:	f7ff ff52 	bl	80075d2 <_ZN4core9panicking9panic_fmt17hfc78cf87d9b52ef4E>

0800772e <_ZN4core3fmt5write17hf6ada4df3cff63c5E>:
 800772e:	b5f0      	push	{r4, r5, r6, r7, lr}
 8007730:	af03      	add	r7, sp, #12
 8007732:	e92d 0f00 	stmdb	sp!, {r8, r9, sl, fp}
 8007736:	b08d      	sub	sp, #52	; 0x34
 8007738:	2303      	movs	r3, #3
 800773a:	6916      	ldr	r6, [r2, #16]
 800773c:	f88d 3030 	strb.w	r3, [sp, #48]	; 0x30
 8007740:	2320      	movs	r3, #32
 8007742:	9308      	str	r3, [sp, #32]
 8007744:	2300      	movs	r3, #0
 8007746:	2e00      	cmp	r6, #0
 8007748:	e9cd 130a 	strd	r1, r3, [sp, #40]	; 0x28
 800774c:	9009      	str	r0, [sp, #36]	; 0x24
 800774e:	9306      	str	r3, [sp, #24]
 8007750:	9304      	str	r3, [sp, #16]
 8007752:	d067      	beq.n	8007824 <_ZN4core3fmt5write17hf6ada4df3cff63c5E+0xf6>
 8007754:	6950      	ldr	r0, [r2, #20]
 8007756:	2800      	cmp	r0, #0
 8007758:	f000 808d 	beq.w	8007876 <_ZN4core3fmt5write17hf6ada4df3cff63c5E+0x148>
 800775c:	f8d2 a000 	ldr.w	sl, [r2]
 8007760:	0141      	lsls	r1, r0, #5
 8007762:	f8d2 b008 	ldr.w	fp, [r2, #8]
 8007766:	3801      	subs	r0, #1
 8007768:	f020 4078 	bic.w	r0, r0, #4160749568	; 0xf8000000
 800776c:	f04f 0800 	mov.w	r8, #0
 8007770:	f04f 0900 	mov.w	r9, #0
 8007774:	3001      	adds	r0, #1
 8007776:	9202      	str	r2, [sp, #8]
 8007778:	9103      	str	r1, [sp, #12]
 800777a:	9001      	str	r0, [sp, #4]
 800777c:	eb0a 0109 	add.w	r1, sl, r9
 8007780:	684a      	ldr	r2, [r1, #4]
 8007782:	b13a      	cbz	r2, 8007794 <_ZN4core3fmt5write17hf6ada4df3cff63c5E+0x66>
 8007784:	e9dd 0309 	ldrd	r0, r3, [sp, #36]	; 0x24
 8007788:	6809      	ldr	r1, [r1, #0]
 800778a:	68db      	ldr	r3, [r3, #12]
 800778c:	4798      	blx	r3
 800778e:	2800      	cmp	r0, #0
 8007790:	f040 8082 	bne.w	8007898 <_ZN4core3fmt5write17hf6ada4df3cff63c5E+0x16a>
 8007794:	eb06 0008 	add.w	r0, r6, r8
 8007798:	6903      	ldr	r3, [r0, #16]
 800779a:	eb06 0089 	add.w	r0, r6, r9, lsl #2
 800779e:	e9d0 2102 	ldrd	r2, r1, [r0, #8]
 80077a2:	7f05      	ldrb	r5, [r0, #28]
 80077a4:	6984      	ldr	r4, [r0, #24]
 80077a6:	9308      	str	r3, [sp, #32]
 80077a8:	f88d 5030 	strb.w	r5, [sp, #48]	; 0x30
 80077ac:	940b      	str	r4, [sp, #44]	; 0x2c
 80077ae:	b172      	cbz	r2, 80077ce <_ZN4core3fmt5write17hf6ada4df3cff63c5E+0xa0>
 80077b0:	2a01      	cmp	r2, #1
 80077b2:	d103      	bne.n	80077bc <_ZN4core3fmt5write17hf6ada4df3cff63c5E+0x8e>
 80077b4:	eb0b 01c1 	add.w	r1, fp, r1, lsl #3
 80077b8:	684a      	ldr	r2, [r1, #4]
 80077ba:	b13a      	cbz	r2, 80077cc <_ZN4core3fmt5write17hf6ada4df3cff63c5E+0x9e>
 80077bc:	2200      	movs	r2, #0
 80077be:	f856 3008 	ldr.w	r3, [r6, r8]
 80077c2:	e9cd 2104 	strd	r2, r1, [sp, #16]
 80077c6:	2b02      	cmp	r3, #2
 80077c8:	d108      	bne.n	80077dc <_ZN4core3fmt5write17hf6ada4df3cff63c5E+0xae>
 80077ca:	e00e      	b.n	80077ea <_ZN4core3fmt5write17hf6ada4df3cff63c5E+0xbc>
 80077cc:	6809      	ldr	r1, [r1, #0]
 80077ce:	2201      	movs	r2, #1
 80077d0:	f856 3008 	ldr.w	r3, [r6, r8]
 80077d4:	e9cd 2104 	strd	r2, r1, [sp, #16]
 80077d8:	2b02      	cmp	r3, #2
 80077da:	d006      	beq.n	80077ea <_ZN4core3fmt5write17hf6ada4df3cff63c5E+0xbc>
 80077dc:	6841      	ldr	r1, [r0, #4]
 80077de:	2b01      	cmp	r3, #1
 80077e0:	d106      	bne.n	80077f0 <_ZN4core3fmt5write17hf6ada4df3cff63c5E+0xc2>
 80077e2:	eb0b 01c1 	add.w	r1, fp, r1, lsl #3
 80077e6:	684a      	ldr	r2, [r1, #4]
 80077e8:	b10a      	cbz	r2, 80077ee <_ZN4core3fmt5write17hf6ada4df3cff63c5E+0xc0>
 80077ea:	2200      	movs	r2, #0
 80077ec:	e001      	b.n	80077f2 <_ZN4core3fmt5write17hf6ada4df3cff63c5E+0xc4>
 80077ee:	6809      	ldr	r1, [r1, #0]
 80077f0:	2201      	movs	r2, #1
 80077f2:	6943      	ldr	r3, [r0, #20]
 80077f4:	9107      	str	r1, [sp, #28]
 80077f6:	9206      	str	r2, [sp, #24]
 80077f8:	eb0b 01c3 	add.w	r1, fp, r3, lsl #3
 80077fc:	f85b 0033 	ldr.w	r0, [fp, r3, lsl #3]
 8007800:	684b      	ldr	r3, [r1, #4]
 8007802:	a904      	add	r1, sp, #16
 8007804:	4798      	blx	r3
 8007806:	2800      	cmp	r0, #0
 8007808:	d146      	bne.n	8007898 <_ZN4core3fmt5write17hf6ada4df3cff63c5E+0x16a>
 800780a:	9803      	ldr	r0, [sp, #12]
 800780c:	f108 0820 	add.w	r8, r8, #32
 8007810:	f109 0908 	add.w	r9, r9, #8
 8007814:	4540      	cmp	r0, r8
 8007816:	d1b1      	bne.n	800777c <_ZN4core3fmt5write17hf6ada4df3cff63c5E+0x4e>
 8007818:	e9dd b201 	ldrd	fp, r2, [sp, #4]
 800781c:	6850      	ldr	r0, [r2, #4]
 800781e:	4583      	cmp	fp, r0
 8007820:	d32e      	bcc.n	8007880 <_ZN4core3fmt5write17hf6ada4df3cff63c5E+0x152>
 8007822:	e03e      	b.n	80078a2 <_ZN4core3fmt5write17hf6ada4df3cff63c5E+0x174>
 8007824:	68d0      	ldr	r0, [r2, #12]
 8007826:	b330      	cbz	r0, 8007876 <_ZN4core3fmt5write17hf6ada4df3cff63c5E+0x148>
 8007828:	00c6      	lsls	r6, r0, #3
 800782a:	3801      	subs	r0, #1
 800782c:	f020 4060 	bic.w	r0, r0, #3758096384	; 0xe0000000
 8007830:	6894      	ldr	r4, [r2, #8]
 8007832:	f8d2 9000 	ldr.w	r9, [r2]
 8007836:	f100 0b01 	add.w	fp, r0, #1
 800783a:	f10d 0810 	add.w	r8, sp, #16
 800783e:	4692      	mov	sl, r2
 8007840:	2500      	movs	r5, #0
 8007842:	eb09 01c5 	add.w	r1, r9, r5, lsl #3
 8007846:	684a      	ldr	r2, [r1, #4]
 8007848:	b12a      	cbz	r2, 8007856 <_ZN4core3fmt5write17hf6ada4df3cff63c5E+0x128>
 800784a:	e9dd 0309 	ldrd	r0, r3, [sp, #36]	; 0x24
 800784e:	6809      	ldr	r1, [r1, #0]
 8007850:	68db      	ldr	r3, [r3, #12]
 8007852:	4798      	blx	r3
 8007854:	bb00      	cbnz	r0, 8007898 <_ZN4core3fmt5write17hf6ada4df3cff63c5E+0x16a>
 8007856:	eb04 01c5 	add.w	r1, r4, r5, lsl #3
 800785a:	f854 0035 	ldr.w	r0, [r4, r5, lsl #3]
 800785e:	684a      	ldr	r2, [r1, #4]
 8007860:	4641      	mov	r1, r8
 8007862:	4790      	blx	r2
 8007864:	b9c0      	cbnz	r0, 8007898 <_ZN4core3fmt5write17hf6ada4df3cff63c5E+0x16a>
 8007866:	3501      	adds	r5, #1
 8007868:	3e08      	subs	r6, #8
 800786a:	d1ea      	bne.n	8007842 <_ZN4core3fmt5write17hf6ada4df3cff63c5E+0x114>
 800786c:	4652      	mov	r2, sl
 800786e:	6850      	ldr	r0, [r2, #4]
 8007870:	4583      	cmp	fp, r0
 8007872:	d305      	bcc.n	8007880 <_ZN4core3fmt5write17hf6ada4df3cff63c5E+0x152>
 8007874:	e015      	b.n	80078a2 <_ZN4core3fmt5write17hf6ada4df3cff63c5E+0x174>
 8007876:	f04f 0b00 	mov.w	fp, #0
 800787a:	6850      	ldr	r0, [r2, #4]
 800787c:	4583      	cmp	fp, r0
 800787e:	d210      	bcs.n	80078a2 <_ZN4core3fmt5write17hf6ada4df3cff63c5E+0x174>
 8007880:	6812      	ldr	r2, [r2, #0]
 8007882:	465e      	mov	r6, fp
 8007884:	e9dd 0109 	ldrd	r0, r1, [sp, #36]	; 0x24
 8007888:	68cb      	ldr	r3, [r1, #12]
 800788a:	f852 103b 	ldr.w	r1, [r2, fp, lsl #3]
 800788e:	eb02 02cb 	add.w	r2, r2, fp, lsl #3
 8007892:	6852      	ldr	r2, [r2, #4]
 8007894:	4798      	blx	r3
 8007896:	b120      	cbz	r0, 80078a2 <_ZN4core3fmt5write17hf6ada4df3cff63c5E+0x174>
 8007898:	2001      	movs	r0, #1
 800789a:	b00d      	add	sp, #52	; 0x34
 800789c:	e8bd 0f00 	ldmia.w	sp!, {r8, r9, sl, fp}
 80078a0:	bdf0      	pop	{r4, r5, r6, r7, pc}
 80078a2:	2000      	movs	r0, #0
 80078a4:	b00d      	add	sp, #52	; 0x34
 80078a6:	e8bd 0f00 	ldmia.w	sp!, {r8, r9, sl, fp}
 80078aa:	bdf0      	pop	{r4, r5, r6, r7, pc}

080078ac <_ZN4core3fmt9Formatter12pad_integral17h9d644e0034e1f29aE>:
 80078ac:	b5f0      	push	{r4, r5, r6, r7, lr}
 80078ae:	af03      	add	r7, sp, #12
 80078b0:	e92d 0f00 	stmdb	sp!, {r8, r9, sl, fp}
 80078b4:	b087      	sub	sp, #28
 80078b6:	f8d7 900c 	ldr.w	r9, [r7, #12]
 80078ba:	461c      	mov	r4, r3
 80078bc:	4615      	mov	r5, r2
 80078be:	2900      	cmp	r1, #0
 80078c0:	d052      	beq.n	8007968 <_ZN4core3fmt9Formatter12pad_integral17h9d644e0034e1f29aE+0xbc>
 80078c2:	f8d0 b01c 	ldr.w	fp, [r0, #28]
 80078c6:	222b      	movs	r2, #43	; 0x2b
 80078c8:	f01b 0101 	ands.w	r1, fp, #1
 80078cc:	bf08      	it	eq
 80078ce:	f44f 1288 	moveq.w	r2, #1114112	; 0x110000
 80078d2:	eb01 0a09 	add.w	sl, r1, r9
 80078d6:	f8d7 8008 	ldr.w	r8, [r7, #8]
 80078da:	ea5f 714b 	movs.w	r1, fp, lsl #29
 80078de:	d54d      	bpl.n	800797c <_ZN4core3fmt9Formatter12pad_integral17h9d644e0034e1f29aE+0xd0>
 80078e0:	2c10      	cmp	r4, #16
 80078e2:	9205      	str	r2, [sp, #20]
 80078e4:	f080 8078 	bcs.w	80079d8 <_ZN4core3fmt9Formatter12pad_integral17h9d644e0034e1f29aE+0x12c>
 80078e8:	2c00      	cmp	r4, #0
 80078ea:	f000 80ab 	beq.w	8007a44 <_ZN4core3fmt9Formatter12pad_integral17h9d644e0034e1f29aE+0x198>
 80078ee:	f004 0c03 	and.w	ip, r4, #3
 80078f2:	08a2      	lsrs	r2, r4, #2
 80078f4:	f04f 0100 	mov.w	r1, #0
 80078f8:	f000 80a6 	beq.w	8007a48 <_ZN4core3fmt9Formatter12pad_integral17h9d644e0034e1f29aE+0x19c>
 80078fc:	f002 0203 	and.w	r2, r2, #3
 8007900:	f8cd 8010 	str.w	r8, [sp, #16]
 8007904:	f105 0801 	add.w	r8, r5, #1
 8007908:	e9cd 4902 	strd	r4, r9, [sp, #8]
 800790c:	eba1 0e82 	sub.w	lr, r1, r2, lsl #2
 8007910:	f06f 0203 	mvn.w	r2, #3
 8007914:	9506      	str	r5, [sp, #24]
 8007916:	eb08 0502 	add.w	r5, r8, r2
 800791a:	3204      	adds	r2, #4
 800791c:	f995 3003 	ldrsb.w	r3, [r5, #3]
 8007920:	f995 4006 	ldrsb.w	r4, [r5, #6]
 8007924:	f995 6005 	ldrsb.w	r6, [r5, #5]
 8007928:	f113 0f41 	cmn.w	r3, #65	; 0x41
 800792c:	f995 5004 	ldrsb.w	r5, [r5, #4]
 8007930:	bfc8      	it	gt
 8007932:	3101      	addgt	r1, #1
 8007934:	eb0e 0302 	add.w	r3, lr, r2
 8007938:	f115 0f41 	cmn.w	r5, #65	; 0x41
 800793c:	bfc8      	it	gt
 800793e:	3101      	addgt	r1, #1
 8007940:	f116 0f41 	cmn.w	r6, #65	; 0x41
 8007944:	bfc8      	it	gt
 8007946:	3101      	addgt	r1, #1
 8007948:	f114 0f41 	cmn.w	r4, #65	; 0x41
 800794c:	bfc8      	it	gt
 800794e:	3101      	addgt	r1, #1
 8007950:	3304      	adds	r3, #4
 8007952:	d1e0      	bne.n	8007916 <_ZN4core3fmt9Formatter12pad_integral17h9d644e0034e1f29aE+0x6a>
 8007954:	f8dd 8010 	ldr.w	r8, [sp, #16]
 8007958:	3204      	adds	r2, #4
 800795a:	9d06      	ldr	r5, [sp, #24]
 800795c:	e9dd 4902 	ldrd	r4, r9, [sp, #8]
 8007960:	f1bc 0f00 	cmp.w	ip, #0
 8007964:	d174      	bne.n	8007a50 <_ZN4core3fmt9Formatter12pad_integral17h9d644e0034e1f29aE+0x1a4>
 8007966:	e08b      	b.n	8007a80 <_ZN4core3fmt9Formatter12pad_integral17h9d644e0034e1f29aE+0x1d4>
 8007968:	f8d0 b01c 	ldr.w	fp, [r0, #28]
 800796c:	f109 0a01 	add.w	sl, r9, #1
 8007970:	222d      	movs	r2, #45	; 0x2d
 8007972:	f8d7 8008 	ldr.w	r8, [r7, #8]
 8007976:	ea5f 714b 	movs.w	r1, fp, lsl #29
 800797a:	d4b1      	bmi.n	80078e0 <_ZN4core3fmt9Formatter12pad_integral17h9d644e0034e1f29aE+0x34>
 800797c:	2500      	movs	r5, #0
 800797e:	6801      	ldr	r1, [r0, #0]
 8007980:	2900      	cmp	r1, #0
 8007982:	f000 8083 	beq.w	8007a8c <_ZN4core3fmt9Formatter12pad_integral17h9d644e0034e1f29aE+0x1e0>
 8007986:	9506      	str	r5, [sp, #24]
 8007988:	f8cd 8010 	str.w	r8, [sp, #16]
 800798c:	f8d0 8004 	ldr.w	r8, [r0, #4]
 8007990:	45d0      	cmp	r8, sl
 8007992:	d912      	bls.n	80079ba <_ZN4core3fmt9Formatter12pad_integral17h9d644e0034e1f29aE+0x10e>
 8007994:	ea5f 710b 	movs.w	r1, fp, lsl #28
 8007998:	d426      	bmi.n	80079e8 <_ZN4core3fmt9Formatter12pad_integral17h9d644e0034e1f29aE+0x13c>
 800799a:	f890 1020 	ldrb.w	r1, [r0, #32]
 800799e:	eba8 030a 	sub.w	r3, r8, sl
 80079a2:	9205      	str	r2, [sp, #20]
 80079a4:	46ca      	mov	sl, r9
 80079a6:	46a3      	mov	fp, r4
 80079a8:	4699      	mov	r9, r3
 80079aa:	e8df f001 	tbb	[pc, r1]
 80079ae:	0299      	.short	0x0299
 80079b0:	0293      	.short	0x0293
 80079b2:	4649      	mov	r1, r9
 80079b4:	f04f 0900 	mov.w	r9, #0
 80079b8:	e092      	b.n	8007ae0 <_ZN4core3fmt9Formatter12pad_integral17h9d644e0034e1f29aE+0x234>
 80079ba:	4621      	mov	r1, r4
 80079bc:	e9d0 4605 	ldrd	r4, r6, [r0, #20]
 80079c0:	9100      	str	r1, [sp, #0]
 80079c2:	4631      	mov	r1, r6
 80079c4:	9b06      	ldr	r3, [sp, #24]
 80079c6:	4620      	mov	r0, r4
 80079c8:	f000 f8d8 	bl	8007b7c <_ZN4core3fmt9Formatter12pad_integral12write_prefix17h7c8f30040d083952E>
 80079cc:	b3b0      	cbz	r0, 8007a3c <_ZN4core3fmt9Formatter12pad_integral17h9d644e0034e1f29aE+0x190>
 80079ce:	2001      	movs	r0, #1
 80079d0:	b007      	add	sp, #28
 80079d2:	e8bd 0f00 	ldmia.w	sp!, {r8, r9, sl, fp}
 80079d6:	bdf0      	pop	{r4, r5, r6, r7, pc}
 80079d8:	4606      	mov	r6, r0
 80079da:	4628      	mov	r0, r5
 80079dc:	4621      	mov	r1, r4
 80079de:	f000 fafa 	bl	8007fd6 <_ZN4core3str5count14do_count_chars17h364dff3f1b12b777E>
 80079e2:	4601      	mov	r1, r0
 80079e4:	4630      	mov	r0, r6
 80079e6:	e04b      	b.n	8007a80 <_ZN4core3fmt9Formatter12pad_integral17h9d644e0034e1f29aE+0x1d4>
 80079e8:	2130      	movs	r1, #48	; 0x30
 80079ea:	f8d0 b010 	ldr.w	fp, [r0, #16]
 80079ee:	4623      	mov	r3, r4
 80079f0:	6101      	str	r1, [r0, #16]
 80079f2:	2101      	movs	r1, #1
 80079f4:	f890 5020 	ldrb.w	r5, [r0, #32]
 80079f8:	e9d0 4605 	ldrd	r4, r6, [r0, #20]
 80079fc:	f880 1020 	strb.w	r1, [r0, #32]
 8007a00:	4631      	mov	r1, r6
 8007a02:	9003      	str	r0, [sp, #12]
 8007a04:	9300      	str	r3, [sp, #0]
 8007a06:	4620      	mov	r0, r4
 8007a08:	9b06      	ldr	r3, [sp, #24]
 8007a0a:	f000 f8b7 	bl	8007b7c <_ZN4core3fmt9Formatter12pad_integral12write_prefix17h7c8f30040d083952E>
 8007a0e:	4601      	mov	r1, r0
 8007a10:	2001      	movs	r0, #1
 8007a12:	2900      	cmp	r1, #0
 8007a14:	d1dc      	bne.n	80079d0 <_ZN4core3fmt9Formatter12pad_integral17h9d644e0034e1f29aE+0x124>
 8007a16:	9506      	str	r5, [sp, #24]
 8007a18:	eba8 000a 	sub.w	r0, r8, sl
 8007a1c:	f8dd 8010 	ldr.w	r8, [sp, #16]
 8007a20:	1c45      	adds	r5, r0, #1
 8007a22:	3d01      	subs	r5, #1
 8007a24:	d04b      	beq.n	8007abe <_ZN4core3fmt9Formatter12pad_integral17h9d644e0034e1f29aE+0x212>
 8007a26:	6932      	ldr	r2, [r6, #16]
 8007a28:	4620      	mov	r0, r4
 8007a2a:	2130      	movs	r1, #48	; 0x30
 8007a2c:	4790      	blx	r2
 8007a2e:	2800      	cmp	r0, #0
 8007a30:	d0f7      	beq.n	8007a22 <_ZN4core3fmt9Formatter12pad_integral17h9d644e0034e1f29aE+0x176>
 8007a32:	2001      	movs	r0, #1
 8007a34:	b007      	add	sp, #28
 8007a36:	e8bd 0f00 	ldmia.w	sp!, {r8, r9, sl, fp}
 8007a3a:	bdf0      	pop	{r4, r5, r6, r7, pc}
 8007a3c:	68f3      	ldr	r3, [r6, #12]
 8007a3e:	4620      	mov	r0, r4
 8007a40:	9904      	ldr	r1, [sp, #16]
 8007a42:	e035      	b.n	8007ab0 <_ZN4core3fmt9Formatter12pad_integral17h9d644e0034e1f29aE+0x204>
 8007a44:	2100      	movs	r1, #0
 8007a46:	e01b      	b.n	8007a80 <_ZN4core3fmt9Formatter12pad_integral17h9d644e0034e1f29aE+0x1d4>
 8007a48:	2200      	movs	r2, #0
 8007a4a:	f1bc 0f00 	cmp.w	ip, #0
 8007a4e:	d017      	beq.n	8007a80 <_ZN4core3fmt9Formatter12pad_integral17h9d644e0034e1f29aE+0x1d4>
 8007a50:	56ab      	ldrsb	r3, [r5, r2]
 8007a52:	f113 0f41 	cmn.w	r3, #65	; 0x41
 8007a56:	bfc8      	it	gt
 8007a58:	3101      	addgt	r1, #1
 8007a5a:	f1bc 0f01 	cmp.w	ip, #1
 8007a5e:	d00f      	beq.n	8007a80 <_ZN4core3fmt9Formatter12pad_integral17h9d644e0034e1f29aE+0x1d4>
 8007a60:	442a      	add	r2, r5
 8007a62:	f992 3001 	ldrsb.w	r3, [r2, #1]
 8007a66:	f113 0f41 	cmn.w	r3, #65	; 0x41
 8007a6a:	bfc8      	it	gt
 8007a6c:	3101      	addgt	r1, #1
 8007a6e:	f1bc 0f02 	cmp.w	ip, #2
 8007a72:	d005      	beq.n	8007a80 <_ZN4core3fmt9Formatter12pad_integral17h9d644e0034e1f29aE+0x1d4>
 8007a74:	f992 2002 	ldrsb.w	r2, [r2, #2]
 8007a78:	f112 0f41 	cmn.w	r2, #65	; 0x41
 8007a7c:	bfc8      	it	gt
 8007a7e:	3101      	addgt	r1, #1
 8007a80:	9a05      	ldr	r2, [sp, #20]
 8007a82:	448a      	add	sl, r1
 8007a84:	6801      	ldr	r1, [r0, #0]
 8007a86:	2900      	cmp	r1, #0
 8007a88:	f47f af7d 	bne.w	8007986 <_ZN4core3fmt9Formatter12pad_integral17h9d644e0034e1f29aE+0xda>
 8007a8c:	4621      	mov	r1, r4
 8007a8e:	e9d0 4605 	ldrd	r4, r6, [r0, #20]
 8007a92:	9100      	str	r1, [sp, #0]
 8007a94:	4631      	mov	r1, r6
 8007a96:	462b      	mov	r3, r5
 8007a98:	4620      	mov	r0, r4
 8007a9a:	f000 f86f 	bl	8007b7c <_ZN4core3fmt9Formatter12pad_integral12write_prefix17h7c8f30040d083952E>
 8007a9e:	b120      	cbz	r0, 8007aaa <_ZN4core3fmt9Formatter12pad_integral17h9d644e0034e1f29aE+0x1fe>
 8007aa0:	2001      	movs	r0, #1
 8007aa2:	b007      	add	sp, #28
 8007aa4:	e8bd 0f00 	ldmia.w	sp!, {r8, r9, sl, fp}
 8007aa8:	bdf0      	pop	{r4, r5, r6, r7, pc}
 8007aaa:	68f3      	ldr	r3, [r6, #12]
 8007aac:	4620      	mov	r0, r4
 8007aae:	4641      	mov	r1, r8
 8007ab0:	464a      	mov	r2, r9
 8007ab2:	b007      	add	sp, #28
 8007ab4:	e8bd 0f00 	ldmia.w	sp!, {r8, r9, sl, fp}
 8007ab8:	e8bd 40f0 	ldmia.w	sp!, {r4, r5, r6, r7, lr}
 8007abc:	4718      	bx	r3
 8007abe:	68f3      	ldr	r3, [r6, #12]
 8007ac0:	4620      	mov	r0, r4
 8007ac2:	4641      	mov	r1, r8
 8007ac4:	464a      	mov	r2, r9
 8007ac6:	4798      	blx	r3
 8007ac8:	b3b8      	cbz	r0, 8007b3a <_ZN4core3fmt9Formatter12pad_integral17h9d644e0034e1f29aE+0x28e>
 8007aca:	2001      	movs	r0, #1
 8007acc:	b007      	add	sp, #28
 8007ace:	e8bd 0f00 	ldmia.w	sp!, {r8, r9, sl, fp}
 8007ad2:	bdf0      	pop	{r4, r5, r6, r7, pc}
 8007ad4:	f109 0201 	add.w	r2, r9, #1
 8007ad8:	ea4f 0159 	mov.w	r1, r9, lsr #1
 8007adc:	ea4f 0952 	mov.w	r9, r2, lsr #1
 8007ae0:	e9d0 6404 	ldrd	r6, r4, [r0, #16]
 8007ae4:	1c4d      	adds	r5, r1, #1
 8007ae6:	f8d0 8018 	ldr.w	r8, [r0, #24]
 8007aea:	3d01      	subs	r5, #1
 8007aec:	d00b      	beq.n	8007b06 <_ZN4core3fmt9Formatter12pad_integral17h9d644e0034e1f29aE+0x25a>
 8007aee:	f8d8 2010 	ldr.w	r2, [r8, #16]
 8007af2:	4620      	mov	r0, r4
 8007af4:	4631      	mov	r1, r6
 8007af6:	4790      	blx	r2
 8007af8:	2800      	cmp	r0, #0
 8007afa:	d0f6      	beq.n	8007aea <_ZN4core3fmt9Formatter12pad_integral17h9d644e0034e1f29aE+0x23e>
 8007afc:	2001      	movs	r0, #1
 8007afe:	b007      	add	sp, #28
 8007b00:	e8bd 0f00 	ldmia.w	sp!, {r8, r9, sl, fp}
 8007b04:	bdf0      	pop	{r4, r5, r6, r7, pc}
 8007b06:	f8cd b000 	str.w	fp, [sp]
 8007b0a:	4620      	mov	r0, r4
 8007b0c:	e9dd 2305 	ldrd	r2, r3, [sp, #20]
 8007b10:	4641      	mov	r1, r8
 8007b12:	f000 f833 	bl	8007b7c <_ZN4core3fmt9Formatter12pad_integral12write_prefix17h7c8f30040d083952E>
 8007b16:	b120      	cbz	r0, 8007b22 <_ZN4core3fmt9Formatter12pad_integral17h9d644e0034e1f29aE+0x276>
 8007b18:	2001      	movs	r0, #1
 8007b1a:	b007      	add	sp, #28
 8007b1c:	e8bd 0f00 	ldmia.w	sp!, {r8, r9, sl, fp}
 8007b20:	bdf0      	pop	{r4, r5, r6, r7, pc}
 8007b22:	f8d8 300c 	ldr.w	r3, [r8, #12]
 8007b26:	4620      	mov	r0, r4
 8007b28:	9904      	ldr	r1, [sp, #16]
 8007b2a:	4652      	mov	r2, sl
 8007b2c:	4798      	blx	r3
 8007b2e:	b178      	cbz	r0, 8007b50 <_ZN4core3fmt9Formatter12pad_integral17h9d644e0034e1f29aE+0x2a4>
 8007b30:	2001      	movs	r0, #1
 8007b32:	b007      	add	sp, #28
 8007b34:	e8bd 0f00 	ldmia.w	sp!, {r8, r9, sl, fp}
 8007b38:	bdf0      	pop	{r4, r5, r6, r7, pc}
 8007b3a:	9803      	ldr	r0, [sp, #12]
 8007b3c:	9906      	ldr	r1, [sp, #24]
 8007b3e:	f880 1020 	strb.w	r1, [r0, #32]
 8007b42:	f8c0 b010 	str.w	fp, [r0, #16]
 8007b46:	2000      	movs	r0, #0
 8007b48:	b007      	add	sp, #28
 8007b4a:	e8bd 0f00 	ldmia.w	sp!, {r8, r9, sl, fp}
 8007b4e:	bdf0      	pop	{r4, r5, r6, r7, pc}
 8007b50:	2500      	movs	r5, #0
 8007b52:	45a9      	cmp	r9, r5
 8007b54:	d009      	beq.n	8007b6a <_ZN4core3fmt9Formatter12pad_integral17h9d644e0034e1f29aE+0x2be>
 8007b56:	f8d8 2010 	ldr.w	r2, [r8, #16]
 8007b5a:	4620      	mov	r0, r4
 8007b5c:	4631      	mov	r1, r6
 8007b5e:	4790      	blx	r2
 8007b60:	3501      	adds	r5, #1
 8007b62:	2800      	cmp	r0, #0
 8007b64:	d0f5      	beq.n	8007b52 <_ZN4core3fmt9Formatter12pad_integral17h9d644e0034e1f29aE+0x2a6>
 8007b66:	1e69      	subs	r1, r5, #1
 8007b68:	e000      	b.n	8007b6c <_ZN4core3fmt9Formatter12pad_integral17h9d644e0034e1f29aE+0x2c0>
 8007b6a:	4649      	mov	r1, r9
 8007b6c:	2000      	movs	r0, #0
 8007b6e:	4549      	cmp	r1, r9
 8007b70:	bf38      	it	cc
 8007b72:	2001      	movcc	r0, #1
 8007b74:	b007      	add	sp, #28
 8007b76:	e8bd 0f00 	ldmia.w	sp!, {r8, r9, sl, fp}
 8007b7a:	bdf0      	pop	{r4, r5, r6, r7, pc}

08007b7c <_ZN4core3fmt9Formatter12pad_integral12write_prefix17h7c8f30040d083952E>:
 8007b7c:	b5f0      	push	{r4, r5, r6, r7, lr}
 8007b7e:	af03      	add	r7, sp, #12
 8007b80:	f84d 8d04 	str.w	r8, [sp, #-4]!
 8007b84:	f8d7 8008 	ldr.w	r8, [r7, #8]
 8007b88:	461c      	mov	r4, r3
 8007b8a:	460e      	mov	r6, r1
 8007b8c:	f5b2 1f88 	cmp.w	r2, #1114112	; 0x110000
 8007b90:	d00a      	beq.n	8007ba8 <_ZN4core3fmt9Formatter12pad_integral12write_prefix17h7c8f30040d083952E+0x2c>
 8007b92:	6933      	ldr	r3, [r6, #16]
 8007b94:	4611      	mov	r1, r2
 8007b96:	4605      	mov	r5, r0
 8007b98:	4798      	blx	r3
 8007b9a:	4601      	mov	r1, r0
 8007b9c:	4628      	mov	r0, r5
 8007b9e:	b119      	cbz	r1, 8007ba8 <_ZN4core3fmt9Formatter12pad_integral12write_prefix17h7c8f30040d083952E+0x2c>
 8007ba0:	2001      	movs	r0, #1
 8007ba2:	f85d 8b04 	ldr.w	r8, [sp], #4
 8007ba6:	bdf0      	pop	{r4, r5, r6, r7, pc}
 8007ba8:	b13c      	cbz	r4, 8007bba <_ZN4core3fmt9Formatter12pad_integral12write_prefix17h7c8f30040d083952E+0x3e>
 8007baa:	68f3      	ldr	r3, [r6, #12]
 8007bac:	4621      	mov	r1, r4
 8007bae:	4642      	mov	r2, r8
 8007bb0:	f85d 8b04 	ldr.w	r8, [sp], #4
 8007bb4:	e8bd 40f0 	ldmia.w	sp!, {r4, r5, r6, r7, lr}
 8007bb8:	4718      	bx	r3
 8007bba:	2000      	movs	r0, #0
 8007bbc:	f85d 8b04 	ldr.w	r8, [sp], #4
 8007bc0:	bdf0      	pop	{r4, r5, r6, r7, pc}
 8007bc2:	d4d4      	bmi.n	8007b6e <_ZN4core3fmt9Formatter12pad_integral17h9d644e0034e1f29aE+0x2c2>

08007bc4 <_ZN4core3fmt9Formatter3pad17h0369ee55ba314ae2E>:
 8007bc4:	b5f0      	push	{r4, r5, r6, r7, lr}
 8007bc6:	af03      	add	r7, sp, #12
 8007bc8:	e92d 0f00 	stmdb	sp!, {r8, r9, sl, fp}
 8007bcc:	b081      	sub	sp, #4
 8007bce:	4688      	mov	r8, r1
 8007bd0:	f8d0 c000 	ldr.w	ip, [r0]
 8007bd4:	6881      	ldr	r1, [r0, #8]
 8007bd6:	4691      	mov	r9, r2
 8007bd8:	ea5c 0201 	orrs.w	r2, ip, r1
 8007bdc:	f000 80c1 	beq.w	8007d62 <_ZN4core3fmt9Formatter3pad17h0369ee55ba314ae2E+0x19e>
 8007be0:	2900      	cmp	r1, #0
 8007be2:	d04a      	beq.n	8007c7a <_ZN4core3fmt9Formatter3pad17h0369ee55ba314ae2E+0xb6>
 8007be4:	68c6      	ldr	r6, [r0, #12]
 8007be6:	eb08 0309 	add.w	r3, r8, r9
 8007bea:	2200      	movs	r2, #0
 8007bec:	4644      	mov	r4, r8
 8007bee:	b9e6      	cbnz	r6, 8007c2a <_ZN4core3fmt9Formatter3pad17h0369ee55ba314ae2E+0x66>
 8007bf0:	429c      	cmp	r4, r3
 8007bf2:	d042      	beq.n	8007c7a <_ZN4core3fmt9Formatter3pad17h0369ee55ba314ae2E+0xb6>
 8007bf4:	f994 1000 	ldrsb.w	r1, [r4]
 8007bf8:	f1b1 3fff 	cmp.w	r1, #4294967295	; 0xffffffff
 8007bfc:	dc05      	bgt.n	8007c0a <_ZN4core3fmt9Formatter3pad17h0369ee55ba314ae2E+0x46>
 8007bfe:	b2cb      	uxtb	r3, r1
 8007c00:	2be0      	cmp	r3, #224	; 0xe0
 8007c02:	bf28      	it	cs
 8007c04:	2bf0      	cmpcs	r3, #240	; 0xf0
 8007c06:	f080 80ee 	bcs.w	8007de6 <_ZN4core3fmt9Formatter3pad17h0369ee55ba314ae2E+0x222>
 8007c0a:	b132      	cbz	r2, 8007c1a <_ZN4core3fmt9Formatter3pad17h0369ee55ba314ae2E+0x56>
 8007c0c:	454a      	cmp	r2, r9
 8007c0e:	d232      	bcs.n	8007c76 <_ZN4core3fmt9Formatter3pad17h0369ee55ba314ae2E+0xb2>
 8007c10:	f918 1002 	ldrsb.w	r1, [r8, r2]
 8007c14:	f111 0f40 	cmn.w	r1, #64	; 0x40
 8007c18:	db2f      	blt.n	8007c7a <_ZN4core3fmt9Formatter3pad17h0369ee55ba314ae2E+0xb6>
 8007c1a:	4691      	mov	r9, r2
 8007c1c:	e02d      	b.n	8007c7a <_ZN4core3fmt9Formatter3pad17h0369ee55ba314ae2E+0xb6>
 8007c1e:	1cac      	adds	r4, r5, #2
 8007c20:	1b51      	subs	r1, r2, r5
 8007c22:	3e01      	subs	r6, #1
 8007c24:	eb01 0204 	add.w	r2, r1, r4
 8007c28:	d0e2      	beq.n	8007bf0 <_ZN4core3fmt9Formatter3pad17h0369ee55ba314ae2E+0x2c>
 8007c2a:	429c      	cmp	r4, r3
 8007c2c:	d025      	beq.n	8007c7a <_ZN4core3fmt9Formatter3pad17h0369ee55ba314ae2E+0xb6>
 8007c2e:	4625      	mov	r5, r4
 8007c30:	f914 1b01 	ldrsb.w	r1, [r4], #1
 8007c34:	f1b1 3fff 	cmp.w	r1, #4294967295	; 0xffffffff
 8007c38:	dcf2      	bgt.n	8007c20 <_ZN4core3fmt9Formatter3pad17h0369ee55ba314ae2E+0x5c>
 8007c3a:	b2cc      	uxtb	r4, r1
 8007c3c:	2ce0      	cmp	r4, #224	; 0xe0
 8007c3e:	d3ee      	bcc.n	8007c1e <_ZN4core3fmt9Formatter3pad17h0369ee55ba314ae2E+0x5a>
 8007c40:	2cf0      	cmp	r4, #240	; 0xf0
 8007c42:	d316      	bcc.n	8007c72 <_ZN4core3fmt9Formatter3pad17h0369ee55ba314ae2E+0xae>
 8007c44:	7869      	ldrb	r1, [r5, #1]
 8007c46:	f004 0407 	and.w	r4, r4, #7
 8007c4a:	f895 a003 	ldrb.w	sl, [r5, #3]
 8007c4e:	f001 0e3f 	and.w	lr, r1, #63	; 0x3f
 8007c52:	78a9      	ldrb	r1, [r5, #2]
 8007c54:	f001 013f 	and.w	r1, r1, #63	; 0x3f
 8007c58:	0189      	lsls	r1, r1, #6
 8007c5a:	ea41 3e0e 	orr.w	lr, r1, lr, lsl #12
 8007c5e:	f00a 013f 	and.w	r1, sl, #63	; 0x3f
 8007c62:	4471      	add	r1, lr
 8007c64:	ea41 4184 	orr.w	r1, r1, r4, lsl #18
 8007c68:	f5b1 1f88 	cmp.w	r1, #1114112	; 0x110000
 8007c6c:	d005      	beq.n	8007c7a <_ZN4core3fmt9Formatter3pad17h0369ee55ba314ae2E+0xb6>
 8007c6e:	1d2c      	adds	r4, r5, #4
 8007c70:	e7d6      	b.n	8007c20 <_ZN4core3fmt9Formatter3pad17h0369ee55ba314ae2E+0x5c>
 8007c72:	1cec      	adds	r4, r5, #3
 8007c74:	e7d4      	b.n	8007c20 <_ZN4core3fmt9Formatter3pad17h0369ee55ba314ae2E+0x5c>
 8007c76:	bf08      	it	eq
 8007c78:	4691      	moveq	r9, r2
 8007c7a:	f1bc 0f00 	cmp.w	ip, #0
 8007c7e:	d070      	beq.n	8007d62 <_ZN4core3fmt9Formatter3pad17h0369ee55ba314ae2E+0x19e>
 8007c80:	f8d0 a004 	ldr.w	sl, [r0, #4]
 8007c84:	f1b9 0f10 	cmp.w	r9, #16
 8007c88:	d235      	bcs.n	8007cf6 <_ZN4core3fmt9Formatter3pad17h0369ee55ba314ae2E+0x132>
 8007c8a:	f1b9 0f00 	cmp.w	r9, #0
 8007c8e:	d03a      	beq.n	8007d06 <_ZN4core3fmt9Formatter3pad17h0369ee55ba314ae2E+0x142>
 8007c90:	f009 0c03 	and.w	ip, r9, #3
 8007c94:	ea5f 0399 	movs.w	r3, r9, lsr #2
 8007c98:	f04f 0100 	mov.w	r1, #0
 8007c9c:	d035      	beq.n	8007d0a <_ZN4core3fmt9Formatter3pad17h0369ee55ba314ae2E+0x146>
 8007c9e:	f003 0303 	and.w	r3, r3, #3
 8007ca2:	f108 0b01 	add.w	fp, r8, #1
 8007ca6:	f06f 0403 	mvn.w	r4, #3
 8007caa:	eba1 0e83 	sub.w	lr, r1, r3, lsl #2
 8007cae:	eb0b 0204 	add.w	r2, fp, r4
 8007cb2:	3404      	adds	r4, #4
 8007cb4:	f992 3003 	ldrsb.w	r3, [r2, #3]
 8007cb8:	f992 5006 	ldrsb.w	r5, [r2, #6]
 8007cbc:	f992 6005 	ldrsb.w	r6, [r2, #5]
 8007cc0:	f113 0f41 	cmn.w	r3, #65	; 0x41
 8007cc4:	f992 2004 	ldrsb.w	r2, [r2, #4]
 8007cc8:	bfc8      	it	gt
 8007cca:	3101      	addgt	r1, #1
 8007ccc:	f112 0f41 	cmn.w	r2, #65	; 0x41
 8007cd0:	bfc8      	it	gt
 8007cd2:	3101      	addgt	r1, #1
 8007cd4:	f116 0f41 	cmn.w	r6, #65	; 0x41
 8007cd8:	bfc8      	it	gt
 8007cda:	3101      	addgt	r1, #1
 8007cdc:	f115 0f41 	cmn.w	r5, #65	; 0x41
 8007ce0:	eb0e 0204 	add.w	r2, lr, r4
 8007ce4:	bfc8      	it	gt
 8007ce6:	3101      	addgt	r1, #1
 8007ce8:	3204      	adds	r2, #4
 8007cea:	d1e0      	bne.n	8007cae <_ZN4core3fmt9Formatter3pad17h0369ee55ba314ae2E+0xea>
 8007cec:	1d23      	adds	r3, r4, #4
 8007cee:	f1bc 0f00 	cmp.w	ip, #0
 8007cf2:	d10e      	bne.n	8007d12 <_ZN4core3fmt9Formatter3pad17h0369ee55ba314ae2E+0x14e>
 8007cf4:	e026      	b.n	8007d44 <_ZN4core3fmt9Formatter3pad17h0369ee55ba314ae2E+0x180>
 8007cf6:	4604      	mov	r4, r0
 8007cf8:	4640      	mov	r0, r8
 8007cfa:	4649      	mov	r1, r9
 8007cfc:	f000 f96b 	bl	8007fd6 <_ZN4core3str5count14do_count_chars17h364dff3f1b12b777E>
 8007d00:	4601      	mov	r1, r0
 8007d02:	4620      	mov	r0, r4
 8007d04:	e01e      	b.n	8007d44 <_ZN4core3fmt9Formatter3pad17h0369ee55ba314ae2E+0x180>
 8007d06:	2100      	movs	r1, #0
 8007d08:	e01c      	b.n	8007d44 <_ZN4core3fmt9Formatter3pad17h0369ee55ba314ae2E+0x180>
 8007d0a:	2300      	movs	r3, #0
 8007d0c:	f1bc 0f00 	cmp.w	ip, #0
 8007d10:	d018      	beq.n	8007d44 <_ZN4core3fmt9Formatter3pad17h0369ee55ba314ae2E+0x180>
 8007d12:	f918 2003 	ldrsb.w	r2, [r8, r3]
 8007d16:	f112 0f41 	cmn.w	r2, #65	; 0x41
 8007d1a:	bfc8      	it	gt
 8007d1c:	3101      	addgt	r1, #1
 8007d1e:	f1bc 0f01 	cmp.w	ip, #1
 8007d22:	d00f      	beq.n	8007d44 <_ZN4core3fmt9Formatter3pad17h0369ee55ba314ae2E+0x180>
 8007d24:	4443      	add	r3, r8
 8007d26:	f993 2001 	ldrsb.w	r2, [r3, #1]
 8007d2a:	f112 0f41 	cmn.w	r2, #65	; 0x41
 8007d2e:	bfc8      	it	gt
 8007d30:	3101      	addgt	r1, #1
 8007d32:	f1bc 0f02 	cmp.w	ip, #2
 8007d36:	d005      	beq.n	8007d44 <_ZN4core3fmt9Formatter3pad17h0369ee55ba314ae2E+0x180>
 8007d38:	f993 2002 	ldrsb.w	r2, [r3, #2]
 8007d3c:	f112 0f41 	cmn.w	r2, #65	; 0x41
 8007d40:	bfc8      	it	gt
 8007d42:	3101      	addgt	r1, #1
 8007d44:	458a      	cmp	sl, r1
 8007d46:	d90c      	bls.n	8007d62 <_ZN4core3fmt9Formatter3pad17h0369ee55ba314ae2E+0x19e>
 8007d48:	f890 2020 	ldrb.w	r2, [r0, #32]
 8007d4c:	ebaa 0a01 	sub.w	sl, sl, r1
 8007d50:	2100      	movs	r1, #0
 8007d52:	e8df f002 	tbb	[pc, r2]
 8007d56:	0217      	.short	0x0217
 8007d58:	1711      	.short	0x1711
 8007d5a:	4651      	mov	r1, sl
 8007d5c:	f04f 0a00 	mov.w	sl, #0
 8007d60:	e010      	b.n	8007d84 <_ZN4core3fmt9Formatter3pad17h0369ee55ba314ae2E+0x1c0>
 8007d62:	e9d0 0105 	ldrd	r0, r1, [r0, #20]
 8007d66:	464a      	mov	r2, r9
 8007d68:	68cb      	ldr	r3, [r1, #12]
 8007d6a:	4641      	mov	r1, r8
 8007d6c:	b001      	add	sp, #4
 8007d6e:	e8bd 0f00 	ldmia.w	sp!, {r8, r9, sl, fp}
 8007d72:	e8bd 40f0 	ldmia.w	sp!, {r4, r5, r6, r7, lr}
 8007d76:	4718      	bx	r3
 8007d78:	f10a 0201 	add.w	r2, sl, #1
 8007d7c:	ea4f 015a 	mov.w	r1, sl, lsr #1
 8007d80:	ea4f 0a52 	mov.w	sl, r2, lsr #1
 8007d84:	e9d0 b504 	ldrd	fp, r5, [r0, #16]
 8007d88:	1c4e      	adds	r6, r1, #1
 8007d8a:	6984      	ldr	r4, [r0, #24]
 8007d8c:	3e01      	subs	r6, #1
 8007d8e:	d00a      	beq.n	8007da6 <_ZN4core3fmt9Formatter3pad17h0369ee55ba314ae2E+0x1e2>
 8007d90:	6922      	ldr	r2, [r4, #16]
 8007d92:	4628      	mov	r0, r5
 8007d94:	4659      	mov	r1, fp
 8007d96:	4790      	blx	r2
 8007d98:	2800      	cmp	r0, #0
 8007d9a:	d0f7      	beq.n	8007d8c <_ZN4core3fmt9Formatter3pad17h0369ee55ba314ae2E+0x1c8>
 8007d9c:	2001      	movs	r0, #1
 8007d9e:	b001      	add	sp, #4
 8007da0:	e8bd 0f00 	ldmia.w	sp!, {r8, r9, sl, fp}
 8007da4:	bdf0      	pop	{r4, r5, r6, r7, pc}
 8007da6:	68e3      	ldr	r3, [r4, #12]
 8007da8:	4628      	mov	r0, r5
 8007daa:	4641      	mov	r1, r8
 8007dac:	464a      	mov	r2, r9
 8007dae:	4798      	blx	r3
 8007db0:	b120      	cbz	r0, 8007dbc <_ZN4core3fmt9Formatter3pad17h0369ee55ba314ae2E+0x1f8>
 8007db2:	2001      	movs	r0, #1
 8007db4:	b001      	add	sp, #4
 8007db6:	e8bd 0f00 	ldmia.w	sp!, {r8, r9, sl, fp}
 8007dba:	bdf0      	pop	{r4, r5, r6, r7, pc}
 8007dbc:	2600      	movs	r6, #0
 8007dbe:	45b2      	cmp	sl, r6
 8007dc0:	d008      	beq.n	8007dd4 <_ZN4core3fmt9Formatter3pad17h0369ee55ba314ae2E+0x210>
 8007dc2:	6922      	ldr	r2, [r4, #16]
 8007dc4:	4628      	mov	r0, r5
 8007dc6:	4659      	mov	r1, fp
 8007dc8:	4790      	blx	r2
 8007dca:	3601      	adds	r6, #1
 8007dcc:	2800      	cmp	r0, #0
 8007dce:	d0f6      	beq.n	8007dbe <_ZN4core3fmt9Formatter3pad17h0369ee55ba314ae2E+0x1fa>
 8007dd0:	1e71      	subs	r1, r6, #1
 8007dd2:	e000      	b.n	8007dd6 <_ZN4core3fmt9Formatter3pad17h0369ee55ba314ae2E+0x212>
 8007dd4:	4651      	mov	r1, sl
 8007dd6:	2000      	movs	r0, #0
 8007dd8:	4551      	cmp	r1, sl
 8007dda:	bf38      	it	cc
 8007ddc:	2001      	movcc	r0, #1
 8007dde:	b001      	add	sp, #4
 8007de0:	e8bd 0f00 	ldmia.w	sp!, {r8, r9, sl, fp}
 8007de4:	bdf0      	pop	{r4, r5, r6, r7, pc}
 8007de6:	78a6      	ldrb	r6, [r4, #2]
 8007de8:	f003 0307 	and.w	r3, r3, #7
 8007dec:	7861      	ldrb	r1, [r4, #1]
 8007dee:	f006 063f 	and.w	r6, r6, #63	; 0x3f
 8007df2:	78e5      	ldrb	r5, [r4, #3]
 8007df4:	f001 013f 	and.w	r1, r1, #63	; 0x3f
 8007df8:	01b6      	lsls	r6, r6, #6
 8007dfa:	ea46 3101 	orr.w	r1, r6, r1, lsl #12
 8007dfe:	f005 063f 	and.w	r6, r5, #63	; 0x3f
 8007e02:	4431      	add	r1, r6
 8007e04:	ea41 4183 	orr.w	r1, r1, r3, lsl #18
 8007e08:	f5b1 1f88 	cmp.w	r1, #1114112	; 0x110000
 8007e0c:	f47f aefd 	bne.w	8007c0a <_ZN4core3fmt9Formatter3pad17h0369ee55ba314ae2E+0x46>
 8007e10:	e733      	b.n	8007c7a <_ZN4core3fmt9Formatter3pad17h0369ee55ba314ae2E+0xb6>

08007e12 <_ZN4core3fmt17pointer_fmt_inner17ha989d9bfa1e1866dE>:
 8007e12:	b5f0      	push	{r4, r5, r6, r7, lr}
 8007e14:	af03      	add	r7, sp, #12
 8007e16:	e92d 0700 	stmdb	sp!, {r8, r9, sl}
 8007e1a:	b0a2      	sub	sp, #136	; 0x88
 8007e1c:	f8d1 a01c 	ldr.w	sl, [r1, #28]
 8007e20:	460c      	mov	r4, r1
 8007e22:	e9d1 9800 	ldrd	r9, r8, [r1]
 8007e26:	ea5f 714a 	movs.w	r1, sl, lsl #29
 8007e2a:	4651      	mov	r1, sl
 8007e2c:	d508      	bpl.n	8007e40 <_ZN4core3fmt17pointer_fmt_inner17ha989d9bfa1e1866dE+0x2e>
 8007e2e:	f04a 0108 	orr.w	r1, sl, #8
 8007e32:	f1b9 0f00 	cmp.w	r9, #0
 8007e36:	d103      	bne.n	8007e40 <_ZN4core3fmt17pointer_fmt_inner17ha989d9bfa1e1866dE+0x2e>
 8007e38:	220a      	movs	r2, #10
 8007e3a:	2301      	movs	r3, #1
 8007e3c:	e9c4 3200 	strd	r3, r2, [r4]
 8007e40:	f041 0104 	orr.w	r1, r1, #4
 8007e44:	61e1      	str	r1, [r4, #28]
 8007e46:	a902      	add	r1, sp, #8
 8007e48:	2281      	movs	r2, #129	; 0x81
 8007e4a:	f000 030f 	and.w	r3, r0, #15
 8007e4e:	188d      	adds	r5, r1, r2
 8007e50:	f103 0657 	add.w	r6, r3, #87	; 0x57
 8007e54:	2b0a      	cmp	r3, #10
 8007e56:	bf38      	it	cc
 8007e58:	f103 0630 	addcc.w	r6, r3, #48	; 0x30
 8007e5c:	0903      	lsrs	r3, r0, #4
 8007e5e:	f805 6c02 	strb.w	r6, [r5, #-2]
 8007e62:	d027      	beq.n	8007eb4 <_ZN4core3fmt17pointer_fmt_inner17ha989d9bfa1e1866dE+0xa2>
 8007e64:	f003 030f 	and.w	r3, r3, #15
 8007e68:	f103 0657 	add.w	r6, r3, #87	; 0x57
 8007e6c:	2b0a      	cmp	r3, #10
 8007e6e:	bf38      	it	cc
 8007e70:	f103 0630 	addcc.w	r6, r3, #48	; 0x30
 8007e74:	0a03      	lsrs	r3, r0, #8
 8007e76:	f805 6c03 	strb.w	r6, [r5, #-3]
 8007e7a:	d01e      	beq.n	8007eba <_ZN4core3fmt17pointer_fmt_inner17ha989d9bfa1e1866dE+0xa8>
 8007e7c:	f003 030f 	and.w	r3, r3, #15
 8007e80:	f103 0657 	add.w	r6, r3, #87	; 0x57
 8007e84:	2b0a      	cmp	r3, #10
 8007e86:	bf38      	it	cc
 8007e88:	f103 0630 	addcc.w	r6, r3, #48	; 0x30
 8007e8c:	1f13      	subs	r3, r2, #4
 8007e8e:	f805 6c04 	strb.w	r6, [r5, #-4]
 8007e92:	0b06      	lsrs	r6, r0, #12
 8007e94:	d014      	beq.n	8007ec0 <_ZN4core3fmt17pointer_fmt_inner17ha989d9bfa1e1866dE+0xae>
 8007e96:	f006 020f 	and.w	r2, r6, #15
 8007e9a:	f102 0657 	add.w	r6, r2, #87	; 0x57
 8007e9e:	2a0a      	cmp	r2, #10
 8007ea0:	bf38      	it	cc
 8007ea2:	f102 0630 	addcc.w	r6, r2, #48	; 0x30
 8007ea6:	0c00      	lsrs	r0, r0, #16
 8007ea8:	461a      	mov	r2, r3
 8007eaa:	f805 6c05 	strb.w	r6, [r5, #-5]
 8007eae:	d1cc      	bne.n	8007e4a <_ZN4core3fmt17pointer_fmt_inner17ha989d9bfa1e1866dE+0x38>
 8007eb0:	1e58      	subs	r0, r3, #1
 8007eb2:	e008      	b.n	8007ec6 <_ZN4core3fmt17pointer_fmt_inner17ha989d9bfa1e1866dE+0xb4>
 8007eb4:	1e90      	subs	r0, r2, #2
 8007eb6:	1e53      	subs	r3, r2, #1
 8007eb8:	e005      	b.n	8007ec6 <_ZN4core3fmt17pointer_fmt_inner17ha989d9bfa1e1866dE+0xb4>
 8007eba:	1ed0      	subs	r0, r2, #3
 8007ebc:	1e93      	subs	r3, r2, #2
 8007ebe:	e002      	b.n	8007ec6 <_ZN4core3fmt17pointer_fmt_inner17ha989d9bfa1e1866dE+0xb4>
 8007ec0:	3a03      	subs	r2, #3
 8007ec2:	4618      	mov	r0, r3
 8007ec4:	4613      	mov	r3, r2
 8007ec6:	2881      	cmp	r0, #129	; 0x81
 8007ec8:	d215      	bcs.n	8007ef6 <_ZN4core3fmt17pointer_fmt_inner17ha989d9bfa1e1866dE+0xe4>
 8007eca:	f1c3 0281 	rsb	r2, r3, #129	; 0x81
 8007ece:	4408      	add	r0, r1
 8007ed0:	2101      	movs	r1, #1
 8007ed2:	2302      	movs	r3, #2
 8007ed4:	e9cd 0200 	strd	r0, r2, [sp]
 8007ed8:	f649 72b8 	movw	r2, #40888	; 0x9fb8
 8007edc:	f6c0 0200 	movt	r2, #2048	; 0x800
 8007ee0:	4620      	mov	r0, r4
 8007ee2:	f7ff fce3 	bl	80078ac <_ZN4core3fmt9Formatter12pad_integral17h9d644e0034e1f29aE>
 8007ee6:	f8c4 a01c 	str.w	sl, [r4, #28]
 8007eea:	e9c4 9800 	strd	r9, r8, [r4]
 8007eee:	b022      	add	sp, #136	; 0x88
 8007ef0:	e8bd 0700 	ldmia.w	sp!, {r8, r9, sl}
 8007ef4:	bdf0      	pop	{r4, r5, r6, r7, pc}
 8007ef6:	f649 72a8 	movw	r2, #40872	; 0x9fa8
 8007efa:	2180      	movs	r1, #128	; 0x80
 8007efc:	f6c0 0200 	movt	r2, #2048	; 0x800
 8007f00:	f000 f800 	bl	8007f04 <_ZN4core5slice5index26slice_start_index_len_fail17h94ea6430e5c26759E>

08007f04 <_ZN4core5slice5index26slice_start_index_len_fail17h94ea6430e5c26759E>:
 8007f04:	b580      	push	{r7, lr}
 8007f06:	466f      	mov	r7, sp
 8007f08:	f000 f800 	bl	8007f0c <_ZN4core5slice5index29slice_start_index_len_fail_rt17hd460058aae6a7178E>

08007f0c <_ZN4core5slice5index29slice_start_index_len_fail_rt17hd460058aae6a7178E>:
 8007f0c:	b580      	push	{r7, lr}
 8007f0e:	466f      	mov	r7, sp
 8007f10:	b08c      	sub	sp, #48	; 0x30
 8007f12:	e9cd 0100 	strd	r0, r1, [sp]
 8007f16:	2000      	movs	r0, #0
 8007f18:	f24a 01b8 	movw	r1, #41144	; 0xa0b8
 8007f1c:	9006      	str	r0, [sp, #24]
 8007f1e:	2002      	movs	r0, #2
 8007f20:	f6c0 0100 	movt	r1, #2048	; 0x800
 8007f24:	9003      	str	r0, [sp, #12]
 8007f26:	9005      	str	r0, [sp, #20]
 8007f28:	a808      	add	r0, sp, #32
 8007f2a:	9102      	str	r1, [sp, #8]
 8007f2c:	a901      	add	r1, sp, #4
 8007f2e:	9004      	str	r0, [sp, #16]
 8007f30:	f648 00f5 	movw	r0, #35061	; 0x88f5
 8007f34:	f6c0 0000 	movt	r0, #2048	; 0x800
 8007f38:	e9cd 0109 	strd	r0, r1, [sp, #36]	; 0x24
 8007f3c:	4611      	mov	r1, r2
 8007f3e:	900b      	str	r0, [sp, #44]	; 0x2c
 8007f40:	4668      	mov	r0, sp
 8007f42:	9008      	str	r0, [sp, #32]
 8007f44:	a802      	add	r0, sp, #8
 8007f46:	f7ff fb44 	bl	80075d2 <_ZN4core9panicking9panic_fmt17hfc78cf87d9b52ef4E>

08007f4a <_ZN4core5slice5index24slice_end_index_len_fail17hb6f0afad2237fa38E>:
 8007f4a:	b580      	push	{r7, lr}
 8007f4c:	466f      	mov	r7, sp
 8007f4e:	f000 f800 	bl	8007f52 <_ZN4core5slice5index27slice_end_index_len_fail_rt17hd58ec62db2db5b17E>

08007f52 <_ZN4core5slice5index27slice_end_index_len_fail_rt17hd58ec62db2db5b17E>:
 8007f52:	b580      	push	{r7, lr}
 8007f54:	466f      	mov	r7, sp
 8007f56:	b08c      	sub	sp, #48	; 0x30
 8007f58:	e9cd 0100 	strd	r0, r1, [sp]
 8007f5c:	2000      	movs	r0, #0
 8007f5e:	f24a 01c8 	movw	r1, #41160	; 0xa0c8
 8007f62:	9006      	str	r0, [sp, #24]
 8007f64:	2002      	movs	r0, #2
 8007f66:	f6c0 0100 	movt	r1, #2048	; 0x800
 8007f6a:	9003      	str	r0, [sp, #12]
 8007f6c:	9005      	str	r0, [sp, #20]
 8007f6e:	a808      	add	r0, sp, #32
 8007f70:	9102      	str	r1, [sp, #8]
 8007f72:	a901      	add	r1, sp, #4
 8007f74:	9004      	str	r0, [sp, #16]
 8007f76:	f648 00f5 	movw	r0, #35061	; 0x88f5
 8007f7a:	f6c0 0000 	movt	r0, #2048	; 0x800
 8007f7e:	e9cd 0109 	strd	r0, r1, [sp, #36]	; 0x24
 8007f82:	4611      	mov	r1, r2
 8007f84:	900b      	str	r0, [sp, #44]	; 0x2c
 8007f86:	4668      	mov	r0, sp
 8007f88:	9008      	str	r0, [sp, #32]
 8007f8a:	a802      	add	r0, sp, #8
 8007f8c:	f7ff fb21 	bl	80075d2 <_ZN4core9panicking9panic_fmt17hfc78cf87d9b52ef4E>

08007f90 <_ZN4core5slice5index22slice_index_order_fail17hfefde59e6785f7c7E>:
 8007f90:	b580      	push	{r7, lr}
 8007f92:	466f      	mov	r7, sp
 8007f94:	f000 f800 	bl	8007f98 <_ZN4core5slice5index25slice_index_order_fail_rt17h45aa5c394ce05de4E>

08007f98 <_ZN4core5slice5index25slice_index_order_fail_rt17h45aa5c394ce05de4E>:
 8007f98:	b580      	push	{r7, lr}
 8007f9a:	466f      	mov	r7, sp
 8007f9c:	b08c      	sub	sp, #48	; 0x30
 8007f9e:	e9cd 0100 	strd	r0, r1, [sp]
 8007fa2:	2000      	movs	r0, #0
 8007fa4:	f24a 01fc 	movw	r1, #41212	; 0xa0fc
 8007fa8:	9006      	str	r0, [sp, #24]
 8007faa:	2002      	movs	r0, #2
 8007fac:	f6c0 0100 	movt	r1, #2048	; 0x800
 8007fb0:	9003      	str	r0, [sp, #12]
 8007fb2:	9005      	str	r0, [sp, #20]
 8007fb4:	a808      	add	r0, sp, #32
 8007fb6:	9102      	str	r1, [sp, #8]
 8007fb8:	a901      	add	r1, sp, #4
 8007fba:	9004      	str	r0, [sp, #16]
 8007fbc:	f648 00f5 	movw	r0, #35061	; 0x88f5
 8007fc0:	f6c0 0000 	movt	r0, #2048	; 0x800
 8007fc4:	e9cd 0109 	strd	r0, r1, [sp, #36]	; 0x24
 8007fc8:	4611      	mov	r1, r2
 8007fca:	900b      	str	r0, [sp, #44]	; 0x2c
 8007fcc:	4668      	mov	r0, sp
 8007fce:	9008      	str	r0, [sp, #32]
 8007fd0:	a802      	add	r0, sp, #8
 8007fd2:	f7ff fafe 	bl	80075d2 <_ZN4core9panicking9panic_fmt17hfc78cf87d9b52ef4E>

08007fd6 <_ZN4core3str5count14do_count_chars17h364dff3f1b12b777E>:
 8007fd6:	b5f0      	push	{r4, r5, r6, r7, lr}
 8007fd8:	af03      	add	r7, sp, #12
 8007fda:	e92d 0f00 	stmdb	sp!, {r8, r9, sl, fp}
 8007fde:	b082      	sub	sp, #8
 8007fe0:	4681      	mov	r9, r0
 8007fe2:	3003      	adds	r0, #3
 8007fe4:	f020 0a03 	bic.w	sl, r0, #3
 8007fe8:	ebaa 0809 	sub.w	r8, sl, r9
 8007fec:	4541      	cmp	r1, r8
 8007fee:	d30a      	bcc.n	8008006 <_ZN4core3str5count14do_count_chars17h364dff3f1b12b777E+0x30>
 8007ff0:	eba1 0e08 	sub.w	lr, r1, r8
 8007ff4:	ea5f 0c9e 	movs.w	ip, lr, lsr #2
 8007ff8:	d005      	beq.n	8008006 <_ZN4core3str5count14do_count_chars17h364dff3f1b12b777E+0x30>
 8007ffa:	f00e 0203 	and.w	r2, lr, #3
 8007ffe:	45ca      	cmp	sl, r9
 8008000:	d15a      	bne.n	80080b8 <_ZN4core3str5count14do_count_chars17h364dff3f1b12b777E+0xe2>
 8008002:	2000      	movs	r0, #0
 8008004:	e0a0      	b.n	8008148 <_ZN4core3str5count14do_count_chars17h364dff3f1b12b777E+0x172>
 8008006:	b389      	cbz	r1, 800806c <_ZN4core3str5count14do_count_chars17h364dff3f1b12b777E+0x96>
 8008008:	f001 0c03 	and.w	ip, r1, #3
 800800c:	088a      	lsrs	r2, r1, #2
 800800e:	f04f 0000 	mov.w	r0, #0
 8008012:	d030      	beq.n	8008076 <_ZN4core3str5count14do_count_chars17h364dff3f1b12b777E+0xa0>
 8008014:	eba0 0e82 	sub.w	lr, r0, r2, lsl #2
 8008018:	f109 0601 	add.w	r6, r9, #1
 800801c:	f06f 0503 	mvn.w	r5, #3
 8008020:	1973      	adds	r3, r6, r5
 8008022:	3504      	adds	r5, #4
 8008024:	f993 1003 	ldrsb.w	r1, [r3, #3]
 8008028:	f993 4006 	ldrsb.w	r4, [r3, #6]
 800802c:	f993 2005 	ldrsb.w	r2, [r3, #5]
 8008030:	f111 0f41 	cmn.w	r1, #65	; 0x41
 8008034:	f993 3004 	ldrsb.w	r3, [r3, #4]
 8008038:	bfc8      	it	gt
 800803a:	3001      	addgt	r0, #1
 800803c:	eb0e 0105 	add.w	r1, lr, r5
 8008040:	f113 0f41 	cmn.w	r3, #65	; 0x41
 8008044:	bfc8      	it	gt
 8008046:	3001      	addgt	r0, #1
 8008048:	f112 0f41 	cmn.w	r2, #65	; 0x41
 800804c:	bfc8      	it	gt
 800804e:	3001      	addgt	r0, #1
 8008050:	f114 0f41 	cmn.w	r4, #65	; 0x41
 8008054:	bfc8      	it	gt
 8008056:	3001      	addgt	r0, #1
 8008058:	3104      	adds	r1, #4
 800805a:	d1e1      	bne.n	8008020 <_ZN4core3str5count14do_count_chars17h364dff3f1b12b777E+0x4a>
 800805c:	1d2a      	adds	r2, r5, #4
 800805e:	f1bc 0f00 	cmp.w	ip, #0
 8008062:	d10c      	bne.n	800807e <_ZN4core3str5count14do_count_chars17h364dff3f1b12b777E+0xa8>
 8008064:	b002      	add	sp, #8
 8008066:	e8bd 0f00 	ldmia.w	sp!, {r8, r9, sl, fp}
 800806a:	bdf0      	pop	{r4, r5, r6, r7, pc}
 800806c:	2000      	movs	r0, #0
 800806e:	b002      	add	sp, #8
 8008070:	e8bd 0f00 	ldmia.w	sp!, {r8, r9, sl, fp}
 8008074:	bdf0      	pop	{r4, r5, r6, r7, pc}
 8008076:	2200      	movs	r2, #0
 8008078:	f1bc 0f00 	cmp.w	ip, #0
 800807c:	d0f2      	beq.n	8008064 <_ZN4core3str5count14do_count_chars17h364dff3f1b12b777E+0x8e>
 800807e:	f919 1002 	ldrsb.w	r1, [r9, r2]
 8008082:	f111 0f41 	cmn.w	r1, #65	; 0x41
 8008086:	bfc8      	it	gt
 8008088:	3001      	addgt	r0, #1
 800808a:	f1bc 0f01 	cmp.w	ip, #1
 800808e:	d0e9      	beq.n	8008064 <_ZN4core3str5count14do_count_chars17h364dff3f1b12b777E+0x8e>
 8008090:	444a      	add	r2, r9
 8008092:	f992 1001 	ldrsb.w	r1, [r2, #1]
 8008096:	f111 0f41 	cmn.w	r1, #65	; 0x41
 800809a:	bfc8      	it	gt
 800809c:	3001      	addgt	r0, #1
 800809e:	f1bc 0f02 	cmp.w	ip, #2
 80080a2:	d0df      	beq.n	8008064 <_ZN4core3str5count14do_count_chars17h364dff3f1b12b777E+0x8e>
 80080a4:	f992 1002 	ldrsb.w	r1, [r2, #2]
 80080a8:	f111 0f41 	cmn.w	r1, #65	; 0x41
 80080ac:	bfc8      	it	gt
 80080ae:	3001      	addgt	r0, #1
 80080b0:	b002      	add	sp, #8
 80080b2:	e8bd 0f00 	ldmia.w	sp!, {r8, r9, sl, fp}
 80080b6:	bdf0      	pop	{r4, r5, r6, r7, pc}
 80080b8:	eba9 000a 	sub.w	r0, r9, sl
 80080bc:	f110 0f04 	cmn.w	r0, #4
 80080c0:	d902      	bls.n	80080c8 <_ZN4core3str5count14do_count_chars17h364dff3f1b12b777E+0xf2>
 80080c2:	2000      	movs	r0, #0
 80080c4:	2500      	movs	r5, #0
 80080c6:	e023      	b.n	8008110 <_ZN4core3str5count14do_count_chars17h364dff3f1b12b777E+0x13a>
 80080c8:	f109 0b01 	add.w	fp, r9, #1
 80080cc:	2000      	movs	r0, #0
 80080ce:	f06f 0603 	mvn.w	r6, #3
 80080d2:	eb0b 0506 	add.w	r5, fp, r6
 80080d6:	f995 4003 	ldrsb.w	r4, [r5, #3]
 80080da:	f995 3006 	ldrsb.w	r3, [r5, #6]
 80080de:	f995 1005 	ldrsb.w	r1, [r5, #5]
 80080e2:	f114 0f41 	cmn.w	r4, #65	; 0x41
 80080e6:	f995 5004 	ldrsb.w	r5, [r5, #4]
 80080ea:	bfc8      	it	gt
 80080ec:	3001      	addgt	r0, #1
 80080ee:	f115 0f41 	cmn.w	r5, #65	; 0x41
 80080f2:	bfc8      	it	gt
 80080f4:	3001      	addgt	r0, #1
 80080f6:	f111 0f41 	cmn.w	r1, #65	; 0x41
 80080fa:	bfc8      	it	gt
 80080fc:	3001      	addgt	r0, #1
 80080fe:	f113 0f41 	cmn.w	r3, #65	; 0x41
 8008102:	bfc8      	it	gt
 8008104:	3001      	addgt	r0, #1
 8008106:	f116 0508 	adds.w	r5, r6, #8
 800810a:	f106 0604 	add.w	r6, r6, #4
 800810e:	d1e0      	bne.n	80080d2 <_ZN4core3str5count14do_count_chars17h364dff3f1b12b777E+0xfc>
 8008110:	45ca      	cmp	sl, r9
 8008112:	d019      	beq.n	8008148 <_ZN4core3str5count14do_count_chars17h364dff3f1b12b777E+0x172>
 8008114:	f919 1005 	ldrsb.w	r1, [r9, r5]
 8008118:	f111 0f41 	cmn.w	r1, #65	; 0x41
 800811c:	bfc8      	it	gt
 800811e:	3001      	addgt	r0, #1
 8008120:	f1b8 0f01 	cmp.w	r8, #1
 8008124:	d010      	beq.n	8008148 <_ZN4core3str5count14do_count_chars17h364dff3f1b12b777E+0x172>
 8008126:	eb09 0105 	add.w	r1, r9, r5
 800812a:	f991 3001 	ldrsb.w	r3, [r1, #1]
 800812e:	f113 0f41 	cmn.w	r3, #65	; 0x41
 8008132:	bfc8      	it	gt
 8008134:	3001      	addgt	r0, #1
 8008136:	f1b8 0f02 	cmp.w	r8, #2
 800813a:	d005      	beq.n	8008148 <_ZN4core3str5count14do_count_chars17h364dff3f1b12b777E+0x172>
 800813c:	f991 1002 	ldrsb.w	r1, [r1, #2]
 8008140:	f111 0f41 	cmn.w	r1, #65	; 0x41
 8008144:	bfc8      	it	gt
 8008146:	3001      	addgt	r0, #1
 8008148:	eb09 0408 	add.w	r4, r9, r8
 800814c:	2300      	movs	r3, #0
 800814e:	b1c2      	cbz	r2, 8008182 <_ZN4core3str5count14do_count_chars17h364dff3f1b12b777E+0x1ac>
 8008150:	f02e 0103 	bic.w	r1, lr, #3
 8008154:	4421      	add	r1, r4
 8008156:	f991 6000 	ldrsb.w	r6, [r1]
 800815a:	f116 0f41 	cmn.w	r6, #65	; 0x41
 800815e:	bfc8      	it	gt
 8008160:	2301      	movgt	r3, #1
 8008162:	2a01      	cmp	r2, #1
 8008164:	d00d      	beq.n	8008182 <_ZN4core3str5count14do_count_chars17h364dff3f1b12b777E+0x1ac>
 8008166:	f991 6001 	ldrsb.w	r6, [r1, #1]
 800816a:	f116 0f41 	cmn.w	r6, #65	; 0x41
 800816e:	bfc8      	it	gt
 8008170:	3301      	addgt	r3, #1
 8008172:	2a02      	cmp	r2, #2
 8008174:	d005      	beq.n	8008182 <_ZN4core3str5count14do_count_chars17h364dff3f1b12b777E+0x1ac>
 8008176:	f991 1002 	ldrsb.w	r1, [r1, #2]
 800817a:	f111 0f41 	cmn.w	r1, #65	; 0x41
 800817e:	bfc8      	it	gt
 8008180:	3301      	addgt	r3, #1
 8008182:	4418      	add	r0, r3
 8008184:	f06f 090f 	mvn.w	r9, #15
 8008188:	e012      	b.n	80081b0 <_ZN4core3str5count14do_count_chars17h364dff3f1b12b777E+0x1da>
 800818a:	f04f 0800 	mov.w	r8, #0
 800818e:	fa3f f288 	uxtb16	r2, r8
 8008192:	fa3f f398 	uxtb16	r3, r8, ror #8
 8008196:	441a      	add	r2, r3
 8008198:	ebac 0c0b 	sub.w	ip, ip, fp
 800819c:	eb0a 048b 	add.w	r4, sl, fp, lsl #2
 80081a0:	f01b 0103 	ands.w	r1, fp, #3
 80081a4:	eb02 4202 	add.w	r2, r2, r2, lsl #16
 80081a8:	eb00 4012 	add.w	r0, r0, r2, lsr #16
 80081ac:	f040 814e 	bne.w	800844c <_ZN4core3str5count14do_count_chars17h364dff3f1b12b777E+0x476>
 80081b0:	f1bc 0f00 	cmp.w	ip, #0
 80081b4:	f43f af56 	beq.w	8008064 <_ZN4core3str5count14do_count_chars17h364dff3f1b12b777E+0x8e>
 80081b8:	f1bc 0fc0 	cmp.w	ip, #192	; 0xc0
 80081bc:	46e3      	mov	fp, ip
 80081be:	bf28      	it	cs
 80081c0:	f04f 0bc0 	movcs.w	fp, #192	; 0xc0
 80081c4:	46a2      	mov	sl, r4
 80081c6:	f1bc 0f04 	cmp.w	ip, #4
 80081ca:	d3de      	bcc.n	800818a <_ZN4core3str5count14do_count_chars17h364dff3f1b12b777E+0x1b4>
 80081cc:	eb09 018b 	add.w	r1, r9, fp, lsl #2
 80081d0:	2201      	movs	r2, #1
 80081d2:	2930      	cmp	r1, #48	; 0x30
 80081d4:	eb02 1211 	add.w	r2, r2, r1, lsr #4
 80081d8:	d207      	bcs.n	80081ea <_ZN4core3str5count14do_count_chars17h364dff3f1b12b777E+0x214>
 80081da:	f04f 0800 	mov.w	r8, #0
 80081de:	4654      	mov	r4, sl
 80081e0:	f012 0e03 	ands.w	lr, r2, #3
 80081e4:	f040 80b9 	bne.w	800835a <_ZN4core3str5count14do_count_chars17h364dff3f1b12b777E+0x384>
 80081e8:	e7d1      	b.n	800818e <_ZN4core3str5count14do_count_chars17h364dff3f1b12b777E+0x1b8>
 80081ea:	f022 0903 	bic.w	r9, r2, #3
 80081ee:	f04f 0800 	mov.w	r8, #0
 80081f2:	4654      	mov	r4, sl
 80081f4:	9200      	str	r2, [sp, #0]
 80081f6:	f8cd a004 	str.w	sl, [sp, #4]
 80081fa:	e894 040e 	ldmia.w	r4, {r1, r2, r3, sl}
 80081fe:	f1b9 0904 	subs.w	r9, r9, #4
 8008202:	69a6      	ldr	r6, [r4, #24]
 8008204:	ea6f 0e01 	mvn.w	lr, r1
 8008208:	ea4f 15de 	mov.w	r5, lr, lsr #7
 800820c:	ea45 1191 	orr.w	r1, r5, r1, lsr #6
 8008210:	ea6f 0502 	mvn.w	r5, r2
 8008214:	f021 31fe 	bic.w	r1, r1, #4278124286	; 0xfefefefe
 8008218:	ea4f 15d5 	mov.w	r5, r5, lsr #7
 800821c:	ea45 1292 	orr.w	r2, r5, r2, lsr #6
 8008220:	4441      	add	r1, r8
 8008222:	f022 32fe 	bic.w	r2, r2, #4278124286	; 0xfefefefe
 8008226:	440a      	add	r2, r1
 8008228:	ea6f 0103 	mvn.w	r1, r3
 800822c:	ea4f 15d1 	mov.w	r5, r1, lsr #7
 8008230:	ea45 1393 	orr.w	r3, r5, r3, lsr #6
 8008234:	f023 33fe 	bic.w	r3, r3, #4278124286	; 0xfefefefe
 8008238:	6925      	ldr	r5, [r4, #16]
 800823a:	441a      	add	r2, r3
 800823c:	ea6f 030a 	mvn.w	r3, sl
 8008240:	ea4f 13d3 	mov.w	r3, r3, lsr #7
 8008244:	6961      	ldr	r1, [r4, #20]
 8008246:	ea43 139a 	orr.w	r3, r3, sl, lsr #6
 800824a:	f8d4 8038 	ldr.w	r8, [r4, #56]	; 0x38
 800824e:	f023 33fe 	bic.w	r3, r3, #4278124286	; 0xfefefefe
 8008252:	f8d4 e03c 	ldr.w	lr, [r4, #60]	; 0x3c
 8008256:	441a      	add	r2, r3
 8008258:	ea6f 0305 	mvn.w	r3, r5
 800825c:	ea4f 13d3 	mov.w	r3, r3, lsr #7
 8008260:	ea43 1395 	orr.w	r3, r3, r5, lsr #6
 8008264:	69e5      	ldr	r5, [r4, #28]
 8008266:	f023 33fe 	bic.w	r3, r3, #4278124286	; 0xfefefefe
 800826a:	441a      	add	r2, r3
 800826c:	ea6f 0301 	mvn.w	r3, r1
 8008270:	ea4f 13d3 	mov.w	r3, r3, lsr #7
 8008274:	ea43 1191 	orr.w	r1, r3, r1, lsr #6
 8008278:	f021 31fe 	bic.w	r1, r1, #4278124286	; 0xfefefefe
 800827c:	6a23      	ldr	r3, [r4, #32]
 800827e:	4411      	add	r1, r2
 8008280:	ea6f 0206 	mvn.w	r2, r6
 8008284:	ea4f 12d2 	mov.w	r2, r2, lsr #7
 8008288:	ea42 1296 	orr.w	r2, r2, r6, lsr #6
 800828c:	6a66      	ldr	r6, [r4, #36]	; 0x24
 800828e:	f022 32fe 	bic.w	r2, r2, #4278124286	; 0xfefefefe
 8008292:	4411      	add	r1, r2
 8008294:	ea6f 0205 	mvn.w	r2, r5
 8008298:	ea4f 12d2 	mov.w	r2, r2, lsr #7
 800829c:	ea42 1295 	orr.w	r2, r2, r5, lsr #6
 80082a0:	6aa5      	ldr	r5, [r4, #40]	; 0x28
 80082a2:	f022 32fe 	bic.w	r2, r2, #4278124286	; 0xfefefefe
 80082a6:	4411      	add	r1, r2
 80082a8:	ea6f 0203 	mvn.w	r2, r3
 80082ac:	ea4f 12d2 	mov.w	r2, r2, lsr #7
 80082b0:	ea42 1293 	orr.w	r2, r2, r3, lsr #6
 80082b4:	6ae3      	ldr	r3, [r4, #44]	; 0x2c
 80082b6:	f022 32fe 	bic.w	r2, r2, #4278124286	; 0xfefefefe
 80082ba:	4411      	add	r1, r2
 80082bc:	ea6f 0206 	mvn.w	r2, r6
 80082c0:	ea4f 12d2 	mov.w	r2, r2, lsr #7
 80082c4:	ea42 1296 	orr.w	r2, r2, r6, lsr #6
 80082c8:	6b26      	ldr	r6, [r4, #48]	; 0x30
 80082ca:	f022 32fe 	bic.w	r2, r2, #4278124286	; 0xfefefefe
 80082ce:	4411      	add	r1, r2
 80082d0:	ea6f 0205 	mvn.w	r2, r5
 80082d4:	ea4f 12d2 	mov.w	r2, r2, lsr #7
 80082d8:	ea42 1295 	orr.w	r2, r2, r5, lsr #6
 80082dc:	6b65      	ldr	r5, [r4, #52]	; 0x34
 80082de:	f022 32fe 	bic.w	r2, r2, #4278124286	; 0xfefefefe
 80082e2:	f104 0440 	add.w	r4, r4, #64	; 0x40
 80082e6:	4411      	add	r1, r2
 80082e8:	ea6f 0203 	mvn.w	r2, r3
 80082ec:	ea4f 12d2 	mov.w	r2, r2, lsr #7
 80082f0:	ea42 1293 	orr.w	r2, r2, r3, lsr #6
 80082f4:	f022 32fe 	bic.w	r2, r2, #4278124286	; 0xfefefefe
 80082f8:	4411      	add	r1, r2
 80082fa:	ea6f 0206 	mvn.w	r2, r6
 80082fe:	ea4f 12d2 	mov.w	r2, r2, lsr #7
 8008302:	ea42 1296 	orr.w	r2, r2, r6, lsr #6
 8008306:	f022 32fe 	bic.w	r2, r2, #4278124286	; 0xfefefefe
 800830a:	4411      	add	r1, r2
 800830c:	ea6f 0205 	mvn.w	r2, r5
 8008310:	ea4f 12d2 	mov.w	r2, r2, lsr #7
 8008314:	ea42 1295 	orr.w	r2, r2, r5, lsr #6
 8008318:	f022 32fe 	bic.w	r2, r2, #4278124286	; 0xfefefefe
 800831c:	4411      	add	r1, r2
 800831e:	ea6f 0208 	mvn.w	r2, r8
 8008322:	ea4f 12d2 	mov.w	r2, r2, lsr #7
 8008326:	ea42 1298 	orr.w	r2, r2, r8, lsr #6
 800832a:	f022 32fe 	bic.w	r2, r2, #4278124286	; 0xfefefefe
 800832e:	4411      	add	r1, r2
 8008330:	ea6f 020e 	mvn.w	r2, lr
 8008334:	ea4f 12d2 	mov.w	r2, r2, lsr #7
 8008338:	ea42 129e 	orr.w	r2, r2, lr, lsr #6
 800833c:	f022 32fe 	bic.w	r2, r2, #4278124286	; 0xfefefefe
 8008340:	eb02 0801 	add.w	r8, r2, r1
 8008344:	f47f af59 	bne.w	80081fa <_ZN4core3str5count14do_count_chars17h364dff3f1b12b777E+0x224>
 8008348:	f8dd a004 	ldr.w	sl, [sp, #4]
 800834c:	f06f 090f 	mvn.w	r9, #15
 8008350:	9a00      	ldr	r2, [sp, #0]
 8008352:	f012 0e03 	ands.w	lr, r2, #3
 8008356:	f43f af1a 	beq.w	800818e <_ZN4core3str5count14do_count_chars17h364dff3f1b12b777E+0x1b8>
 800835a:	e894 004c 	ldmia.w	r4, {r2, r3, r6}
 800835e:	f1be 0f01 	cmp.w	lr, #1
 8008362:	68e5      	ldr	r5, [r4, #12]
 8008364:	ea6f 0102 	mvn.w	r1, r2
 8008368:	ea4f 11d1 	mov.w	r1, r1, lsr #7
 800836c:	ea41 1192 	orr.w	r1, r1, r2, lsr #6
 8008370:	ea6f 0203 	mvn.w	r2, r3
 8008374:	ea4f 12d2 	mov.w	r2, r2, lsr #7
 8008378:	f021 31fe 	bic.w	r1, r1, #4278124286	; 0xfefefefe
 800837c:	ea42 1293 	orr.w	r2, r2, r3, lsr #6
 8008380:	4441      	add	r1, r8
 8008382:	f022 32fe 	bic.w	r2, r2, #4278124286	; 0xfefefefe
 8008386:	4411      	add	r1, r2
 8008388:	ea6f 0206 	mvn.w	r2, r6
 800838c:	ea4f 12d2 	mov.w	r2, r2, lsr #7
 8008390:	ea42 1296 	orr.w	r2, r2, r6, lsr #6
 8008394:	f022 32fe 	bic.w	r2, r2, #4278124286	; 0xfefefefe
 8008398:	4411      	add	r1, r2
 800839a:	ea6f 0205 	mvn.w	r2, r5
 800839e:	ea4f 12d2 	mov.w	r2, r2, lsr #7
 80083a2:	ea42 1295 	orr.w	r2, r2, r5, lsr #6
 80083a6:	f022 32fe 	bic.w	r2, r2, #4278124286	; 0xfefefefe
 80083aa:	eb02 0801 	add.w	r8, r2, r1
 80083ae:	f43f aeee 	beq.w	800818e <_ZN4core3str5count14do_count_chars17h364dff3f1b12b777E+0x1b8>
 80083b2:	f104 0510 	add.w	r5, r4, #16
 80083b6:	f1be 0f02 	cmp.w	lr, #2
 80083ba:	cd2e      	ldmia	r5, {r1, r2, r3, r5}
 80083bc:	ea6f 0601 	mvn.w	r6, r1
 80083c0:	ea4f 16d6 	mov.w	r6, r6, lsr #7
 80083c4:	ea46 1191 	orr.w	r1, r6, r1, lsr #6
 80083c8:	ea6f 0602 	mvn.w	r6, r2
 80083cc:	f021 31fe 	bic.w	r1, r1, #4278124286	; 0xfefefefe
 80083d0:	ea4f 16d6 	mov.w	r6, r6, lsr #7
 80083d4:	ea46 1292 	orr.w	r2, r6, r2, lsr #6
 80083d8:	4441      	add	r1, r8
 80083da:	f022 32fe 	bic.w	r2, r2, #4278124286	; 0xfefefefe
 80083de:	4411      	add	r1, r2
 80083e0:	ea6f 0203 	mvn.w	r2, r3
 80083e4:	ea4f 12d2 	mov.w	r2, r2, lsr #7
 80083e8:	ea42 1293 	orr.w	r2, r2, r3, lsr #6
 80083ec:	f022 32fe 	bic.w	r2, r2, #4278124286	; 0xfefefefe
 80083f0:	4411      	add	r1, r2
 80083f2:	ea6f 0205 	mvn.w	r2, r5
 80083f6:	ea4f 12d2 	mov.w	r2, r2, lsr #7
 80083fa:	ea42 1295 	orr.w	r2, r2, r5, lsr #6
 80083fe:	f022 32fe 	bic.w	r2, r2, #4278124286	; 0xfefefefe
 8008402:	eb02 0801 	add.w	r8, r2, r1
 8008406:	f43f aec2 	beq.w	800818e <_ZN4core3str5count14do_count_chars17h364dff3f1b12b777E+0x1b8>
 800840a:	f104 0620 	add.w	r6, r4, #32
 800840e:	ce4e      	ldmia	r6, {r1, r2, r3, r6}
 8008410:	43cd      	mvns	r5, r1
 8008412:	09ed      	lsrs	r5, r5, #7
 8008414:	ea45 1191 	orr.w	r1, r5, r1, lsr #6
 8008418:	43d5      	mvns	r5, r2
 800841a:	f021 31fe 	bic.w	r1, r1, #4278124286	; 0xfefefefe
 800841e:	09ed      	lsrs	r5, r5, #7
 8008420:	ea45 1292 	orr.w	r2, r5, r2, lsr #6
 8008424:	4441      	add	r1, r8
 8008426:	f022 32fe 	bic.w	r2, r2, #4278124286	; 0xfefefefe
 800842a:	4411      	add	r1, r2
 800842c:	43da      	mvns	r2, r3
 800842e:	09d2      	lsrs	r2, r2, #7
 8008430:	ea42 1293 	orr.w	r2, r2, r3, lsr #6
 8008434:	f022 32fe 	bic.w	r2, r2, #4278124286	; 0xfefefefe
 8008438:	4411      	add	r1, r2
 800843a:	43f2      	mvns	r2, r6
 800843c:	09d2      	lsrs	r2, r2, #7
 800843e:	ea42 1296 	orr.w	r2, r2, r6, lsr #6
 8008442:	f022 32fe 	bic.w	r2, r2, #4278124286	; 0xfefefefe
 8008446:	eb02 0801 	add.w	r8, r2, r1
 800844a:	e6a0      	b.n	800818e <_ZN4core3str5count14do_count_chars17h364dff3f1b12b777E+0x1b8>
 800844c:	f00b 03fc 	and.w	r3, fp, #252	; 0xfc
 8008450:	2901      	cmp	r1, #1
 8008452:	f85a 2023 	ldr.w	r2, [sl, r3, lsl #2]
 8008456:	ea6f 0602 	mvn.w	r6, r2
 800845a:	ea4f 16d6 	mov.w	r6, r6, lsr #7
 800845e:	ea46 1292 	orr.w	r2, r6, r2, lsr #6
 8008462:	f022 32fe 	bic.w	r2, r2, #4278124286	; 0xfefefefe
 8008466:	d015      	beq.n	8008494 <_ZN4core3str5count14do_count_chars17h364dff3f1b12b777E+0x4be>
 8008468:	eb0a 0383 	add.w	r3, sl, r3, lsl #2
 800846c:	2902      	cmp	r1, #2
 800846e:	685e      	ldr	r6, [r3, #4]
 8008470:	ea6f 0506 	mvn.w	r5, r6
 8008474:	ea4f 15d5 	mov.w	r5, r5, lsr #7
 8008478:	ea45 1696 	orr.w	r6, r5, r6, lsr #6
 800847c:	f026 36fe 	bic.w	r6, r6, #4278124286	; 0xfefefefe
 8008480:	4432      	add	r2, r6
 8008482:	d007      	beq.n	8008494 <_ZN4core3str5count14do_count_chars17h364dff3f1b12b777E+0x4be>
 8008484:	6899      	ldr	r1, [r3, #8]
 8008486:	43cb      	mvns	r3, r1
 8008488:	09db      	lsrs	r3, r3, #7
 800848a:	ea43 1191 	orr.w	r1, r3, r1, lsr #6
 800848e:	f021 31fe 	bic.w	r1, r1, #4278124286	; 0xfefefefe
 8008492:	440a      	add	r2, r1
 8008494:	fa3f f182 	uxtb16	r1, r2
 8008498:	fa3f f292 	uxtb16	r2, r2, ror #8
 800849c:	4411      	add	r1, r2
 800849e:	eb01 4101 	add.w	r1, r1, r1, lsl #16
 80084a2:	eb00 4011 	add.w	r0, r0, r1, lsr #16
 80084a6:	b002      	add	sp, #8
 80084a8:	e8bd 0f00 	ldmia.w	sp!, {r8, r9, sl, fp}
 80084ac:	bdf0      	pop	{r4, r5, r6, r7, pc}

080084ae <_ZN4core9panicking11panic_const24panic_const_add_overflow17hc13b23ef9a01f37bE>:
 80084ae:	b580      	push	{r7, lr}
 80084b0:	466f      	mov	r7, sp
 80084b2:	b086      	sub	sp, #24
 80084b4:	4601      	mov	r1, r0
 80084b6:	2000      	movs	r0, #0
 80084b8:	2201      	movs	r2, #1
 80084ba:	9004      	str	r0, [sp, #16]
 80084bc:	9201      	str	r2, [sp, #4]
 80084be:	f649 624c 	movw	r2, #40524	; 0x9e4c
 80084c2:	9003      	str	r0, [sp, #12]
 80084c4:	2004      	movs	r0, #4
 80084c6:	f6c0 0200 	movt	r2, #2048	; 0x800
 80084ca:	9002      	str	r0, [sp, #8]
 80084cc:	4668      	mov	r0, sp
 80084ce:	9200      	str	r2, [sp, #0]
 80084d0:	f7ff f87f 	bl	80075d2 <_ZN4core9panicking9panic_fmt17hfc78cf87d9b52ef4E>

080084d4 <_ZN4core9panicking11panic_const24panic_const_sub_overflow17h13f5d7dd344e7336E>:
 80084d4:	b580      	push	{r7, lr}
 80084d6:	466f      	mov	r7, sp
 80084d8:	b086      	sub	sp, #24
 80084da:	4601      	mov	r1, r0
 80084dc:	2000      	movs	r0, #0
 80084de:	2201      	movs	r2, #1
 80084e0:	9004      	str	r0, [sp, #16]
 80084e2:	9201      	str	r2, [sp, #4]
 80084e4:	f649 6278 	movw	r2, #40568	; 0x9e78
 80084e8:	9003      	str	r0, [sp, #12]
 80084ea:	2004      	movs	r0, #4
 80084ec:	f6c0 0200 	movt	r2, #2048	; 0x800
 80084f0:	9002      	str	r0, [sp, #8]
 80084f2:	4668      	mov	r0, sp
 80084f4:	9200      	str	r2, [sp, #0]
 80084f6:	f7ff f86c 	bl	80075d2 <_ZN4core9panicking9panic_fmt17hfc78cf87d9b52ef4E>

080084fa <_ZN4core9panicking11panic_const24panic_const_mul_overflow17h14685f7275025b88E>:
 80084fa:	b580      	push	{r7, lr}
 80084fc:	466f      	mov	r7, sp
 80084fe:	b086      	sub	sp, #24
 8008500:	4601      	mov	r1, r0
 8008502:	2000      	movs	r0, #0
 8008504:	2201      	movs	r2, #1
 8008506:	9004      	str	r0, [sp, #16]
 8008508:	9201      	str	r2, [sp, #4]
 800850a:	f649 62a4 	movw	r2, #40612	; 0x9ea4
 800850e:	9003      	str	r0, [sp, #12]
 8008510:	2004      	movs	r0, #4
 8008512:	f6c0 0200 	movt	r2, #2048	; 0x800
 8008516:	9002      	str	r0, [sp, #8]
 8008518:	4668      	mov	r0, sp
 800851a:	9200      	str	r2, [sp, #0]
 800851c:	f7ff f859 	bl	80075d2 <_ZN4core9panicking9panic_fmt17hfc78cf87d9b52ef4E>

08008520 <_ZN4core9panicking11panic_const23panic_const_div_by_zero17h4ed8dab053fa7359E>:
 8008520:	b580      	push	{r7, lr}
 8008522:	466f      	mov	r7, sp
 8008524:	b086      	sub	sp, #24
 8008526:	4601      	mov	r1, r0
 8008528:	2000      	movs	r0, #0
 800852a:	2201      	movs	r2, #1
 800852c:	9004      	str	r0, [sp, #16]
 800852e:	9201      	str	r2, [sp, #4]
 8008530:	f24a 1228 	movw	r2, #41256	; 0xa128
 8008534:	9003      	str	r0, [sp, #12]
 8008536:	2004      	movs	r0, #4
 8008538:	f6c0 0200 	movt	r2, #2048	; 0x800
 800853c:	9002      	str	r0, [sp, #8]
 800853e:	4668      	mov	r0, sp
 8008540:	9200      	str	r2, [sp, #0]
 8008542:	f7ff f846 	bl	80075d2 <_ZN4core9panicking9panic_fmt17hfc78cf87d9b52ef4E>

08008546 <_ZN4core3fmt3num53_$LT$impl$u20$core..fmt..LowerHex$u20$for$u20$i16$GT$3fmt17h855b06b50e7a44fcE>:
 8008546:	b5b0      	push	{r4, r5, r7, lr}
 8008548:	af02      	add	r7, sp, #8
 800854a:	b0a2      	sub	sp, #136	; 0x88
 800854c:	8802      	ldrh	r2, [r0, #0]
 800854e:	468c      	mov	ip, r1
 8008550:	2300      	movs	r3, #0
 8008552:	f002 000f 	and.w	r0, r2, #15
 8008556:	f100 0157 	add.w	r1, r0, #87	; 0x57
 800855a:	280a      	cmp	r0, #10
 800855c:	bf38      	it	cc
 800855e:	f100 0130 	addcc.w	r1, r0, #48	; 0x30
 8008562:	f3c2 2003 	ubfx	r0, r2, #8, #4
 8008566:	f88d 1087 	strb.w	r1, [sp, #135]	; 0x87
 800856a:	f100 0457 	add.w	r4, r0, #87	; 0x57
 800856e:	f3c2 1103 	ubfx	r1, r2, #4, #4
 8008572:	280a      	cmp	r0, #10
 8008574:	bf38      	it	cc
 8008576:	f100 0430 	addcc.w	r4, r0, #48	; 0x30
 800857a:	f101 0057 	add.w	r0, r1, #87	; 0x57
 800857e:	290a      	cmp	r1, #10
 8008580:	bf38      	it	cc
 8008582:	f101 0030 	addcc.w	r0, r1, #48	; 0x30
 8008586:	2157      	movs	r1, #87	; 0x57
 8008588:	eb01 3512 	add.w	r5, r1, r2, lsr #12
 800858c:	0b11      	lsrs	r1, r2, #12
 800858e:	290a      	cmp	r1, #10
 8008590:	bf38      	it	cc
 8008592:	f101 0530 	addcc.w	r5, r1, #48	; 0x30
 8008596:	f89d e084 	ldrb.w	lr, [sp, #132]	; 0x84
 800859a:	f89d 1085 	ldrb.w	r1, [sp, #133]	; 0x85
 800859e:	ebb3 1f12 	cmp.w	r3, r2, lsr #4
 80085a2:	d005      	beq.n	80085b0 <_ZN4core3fmt3num53_$LT$impl$u20$core..fmt..LowerHex$u20$for$u20$i16$GT$3fmt17h855b06b50e7a44fcE+0x6a>
 80085a4:	f5b2 7f80 	cmp.w	r2, #256	; 0x100
 80085a8:	d207      	bcs.n	80085ba <_ZN4core3fmt3num53_$LT$impl$u20$core..fmt..LowerHex$u20$for$u20$i16$GT$3fmt17h855b06b50e7a44fcE+0x74>
 80085aa:	237e      	movs	r3, #126	; 0x7e
 80085ac:	2202      	movs	r2, #2
 80085ae:	e00e      	b.n	80085ce <_ZN4core3fmt3num53_$LT$impl$u20$core..fmt..LowerHex$u20$for$u20$i16$GT$3fmt17h855b06b50e7a44fcE+0x88>
 80085b0:	f89d 0086 	ldrb.w	r0, [sp, #134]	; 0x86
 80085b4:	237f      	movs	r3, #127	; 0x7f
 80085b6:	2201      	movs	r2, #1
 80085b8:	e009      	b.n	80085ce <_ZN4core3fmt3num53_$LT$impl$u20$core..fmt..LowerHex$u20$for$u20$i16$GT$3fmt17h855b06b50e7a44fcE+0x88>
 80085ba:	f5b2 5f80 	cmp.w	r2, #4096	; 0x1000
 80085be:	d202      	bcs.n	80085c6 <_ZN4core3fmt3num53_$LT$impl$u20$core..fmt..LowerHex$u20$for$u20$i16$GT$3fmt17h855b06b50e7a44fcE+0x80>
 80085c0:	237d      	movs	r3, #125	; 0x7d
 80085c2:	2203      	movs	r2, #3
 80085c4:	e002      	b.n	80085cc <_ZN4core3fmt3num53_$LT$impl$u20$core..fmt..LowerHex$u20$for$u20$i16$GT$3fmt17h855b06b50e7a44fcE+0x86>
 80085c6:	237c      	movs	r3, #124	; 0x7c
 80085c8:	2204      	movs	r2, #4
 80085ca:	46ae      	mov	lr, r5
 80085cc:	4621      	mov	r1, r4
 80085ce:	f88d 0086 	strb.w	r0, [sp, #134]	; 0x86
 80085d2:	a802      	add	r0, sp, #8
 80085d4:	4418      	add	r0, r3
 80085d6:	e9cd 0200 	strd	r0, r2, [sp]
 80085da:	f649 72b8 	movw	r2, #40888	; 0x9fb8
 80085de:	f88d 1085 	strb.w	r1, [sp, #133]	; 0x85
 80085e2:	f6c0 0200 	movt	r2, #2048	; 0x800
 80085e6:	4660      	mov	r0, ip
 80085e8:	2101      	movs	r1, #1
 80085ea:	2302      	movs	r3, #2
 80085ec:	f88d e084 	strb.w	lr, [sp, #132]	; 0x84
 80085f0:	f7ff f95c 	bl	80078ac <_ZN4core3fmt9Formatter12pad_integral17h9d644e0034e1f29aE>
 80085f4:	b022      	add	sp, #136	; 0x88
 80085f6:	bdb0      	pop	{r4, r5, r7, pc}

080085f8 <_ZN4core3fmt3num53_$LT$impl$u20$core..fmt..UpperHex$u20$for$u20$i16$GT$3fmt17hf294e33d30237e5eE>:
 80085f8:	b5b0      	push	{r4, r5, r7, lr}
 80085fa:	af02      	add	r7, sp, #8
 80085fc:	b0a2      	sub	sp, #136	; 0x88
 80085fe:	8802      	ldrh	r2, [r0, #0]
 8008600:	468c      	mov	ip, r1
 8008602:	2300      	movs	r3, #0
 8008604:	f002 000f 	and.w	r0, r2, #15
 8008608:	f100 0137 	add.w	r1, r0, #55	; 0x37
 800860c:	280a      	cmp	r0, #10
 800860e:	bf38      	it	cc
 8008610:	f100 0130 	addcc.w	r1, r0, #48	; 0x30
 8008614:	f3c2 2003 	ubfx	r0, r2, #8, #4
 8008618:	f88d 1087 	strb.w	r1, [sp, #135]	; 0x87
 800861c:	f100 0437 	add.w	r4, r0, #55	; 0x37
 8008620:	f3c2 1103 	ubfx	r1, r2, #4, #4
 8008624:	280a      	cmp	r0, #10
 8008626:	bf38      	it	cc
 8008628:	f100 0430 	addcc.w	r4, r0, #48	; 0x30
 800862c:	f101 0037 	add.w	r0, r1, #55	; 0x37
 8008630:	290a      	cmp	r1, #10
 8008632:	bf38      	it	cc
 8008634:	f101 0030 	addcc.w	r0, r1, #48	; 0x30
 8008638:	2137      	movs	r1, #55	; 0x37
 800863a:	eb01 3512 	add.w	r5, r1, r2, lsr #12
 800863e:	0b11      	lsrs	r1, r2, #12
 8008640:	290a      	cmp	r1, #10
 8008642:	bf38      	it	cc
 8008644:	f101 0530 	addcc.w	r5, r1, #48	; 0x30
 8008648:	f89d e084 	ldrb.w	lr, [sp, #132]	; 0x84
 800864c:	f89d 1085 	ldrb.w	r1, [sp, #133]	; 0x85
 8008650:	ebb3 1f12 	cmp.w	r3, r2, lsr #4
 8008654:	d005      	beq.n	8008662 <_ZN4core3fmt3num53_$LT$impl$u20$core..fmt..UpperHex$u20$for$u20$i16$GT$3fmt17hf294e33d30237e5eE+0x6a>
 8008656:	f5b2 7f80 	cmp.w	r2, #256	; 0x100
 800865a:	d207      	bcs.n	800866c <_ZN4core3fmt3num53_$LT$impl$u20$core..fmt..UpperHex$u20$for$u20$i16$GT$3fmt17hf294e33d30237e5eE+0x74>
 800865c:	237e      	movs	r3, #126	; 0x7e
 800865e:	2202      	movs	r2, #2
 8008660:	e00e      	b.n	8008680 <_ZN4core3fmt3num53_$LT$impl$u20$core..fmt..UpperHex$u20$for$u20$i16$GT$3fmt17hf294e33d30237e5eE+0x88>
 8008662:	f89d 0086 	ldrb.w	r0, [sp, #134]	; 0x86
 8008666:	237f      	movs	r3, #127	; 0x7f
 8008668:	2201      	movs	r2, #1
 800866a:	e009      	b.n	8008680 <_ZN4core3fmt3num53_$LT$impl$u20$core..fmt..UpperHex$u20$for$u20$i16$GT$3fmt17hf294e33d30237e5eE+0x88>
 800866c:	f5b2 5f80 	cmp.w	r2, #4096	; 0x1000
 8008670:	d202      	bcs.n	8008678 <_ZN4core3fmt3num53_$LT$impl$u20$core..fmt..UpperHex$u20$for$u20$i16$GT$3fmt17hf294e33d30237e5eE+0x80>
 8008672:	237d      	movs	r3, #125	; 0x7d
 8008674:	2203      	movs	r2, #3
 8008676:	e002      	b.n	800867e <_ZN4core3fmt3num53_$LT$impl$u20$core..fmt..UpperHex$u20$for$u20$i16$GT$3fmt17hf294e33d30237e5eE+0x86>
 8008678:	237c      	movs	r3, #124	; 0x7c
 800867a:	2204      	movs	r2, #4
 800867c:	46ae      	mov	lr, r5
 800867e:	4621      	mov	r1, r4
 8008680:	f88d 0086 	strb.w	r0, [sp, #134]	; 0x86
 8008684:	a802      	add	r0, sp, #8
 8008686:	4418      	add	r0, r3
 8008688:	e9cd 0200 	strd	r0, r2, [sp]
 800868c:	f649 72b8 	movw	r2, #40888	; 0x9fb8
 8008690:	f88d 1085 	strb.w	r1, [sp, #133]	; 0x85
 8008694:	f6c0 0200 	movt	r2, #2048	; 0x800
 8008698:	4660      	mov	r0, ip
 800869a:	2101      	movs	r1, #1
 800869c:	2302      	movs	r3, #2
 800869e:	f88d e084 	strb.w	lr, [sp, #132]	; 0x84
 80086a2:	f7ff f903 	bl	80078ac <_ZN4core3fmt9Formatter12pad_integral17h9d644e0034e1f29aE>
 80086a6:	b022      	add	sp, #136	; 0x88
 80086a8:	bdb0      	pop	{r4, r5, r7, pc}

080086aa <_ZN4core3fmt3num53_$LT$impl$u20$core..fmt..LowerHex$u20$for$u20$i32$GT$3fmt17hed057ab3a37dd4b5E>:
 80086aa:	b5b0      	push	{r4, r5, r7, lr}
 80086ac:	af02      	add	r7, sp, #8
 80086ae:	b0a2      	sub	sp, #136	; 0x88
 80086b0:	6800      	ldr	r0, [r0, #0]
 80086b2:	f10d 0c08 	add.w	ip, sp, #8
 80086b6:	2581      	movs	r5, #129	; 0x81
 80086b8:	f000 020f 	and.w	r2, r0, #15
 80086bc:	f102 0457 	add.w	r4, r2, #87	; 0x57
 80086c0:	2a0a      	cmp	r2, #10
 80086c2:	bf38      	it	cc
 80086c4:	f102 0430 	addcc.w	r4, r2, #48	; 0x30
 80086c8:	eb0c 0205 	add.w	r2, ip, r5
 80086cc:	f802 4c02 	strb.w	r4, [r2, #-2]
 80086d0:	0904      	lsrs	r4, r0, #4
 80086d2:	d029      	beq.n	8008728 <_ZN4core3fmt3num53_$LT$impl$u20$core..fmt..LowerHex$u20$for$u20$i32$GT$3fmt17hed057ab3a37dd4b5E+0x7e>
 80086d4:	f004 040f 	and.w	r4, r4, #15
 80086d8:	f104 0357 	add.w	r3, r4, #87	; 0x57
 80086dc:	2c0a      	cmp	r4, #10
 80086de:	bf38      	it	cc
 80086e0:	f104 0330 	addcc.w	r3, r4, #48	; 0x30
 80086e4:	0a04      	lsrs	r4, r0, #8
 80086e6:	f802 3c03 	strb.w	r3, [r2, #-3]
 80086ea:	d021      	beq.n	8008730 <_ZN4core3fmt3num53_$LT$impl$u20$core..fmt..LowerHex$u20$for$u20$i32$GT$3fmt17hed057ab3a37dd4b5E+0x86>
 80086ec:	f004 030f 	and.w	r3, r4, #15
 80086f0:	f1a5 0e04 	sub.w	lr, r5, #4
 80086f4:	f103 0457 	add.w	r4, r3, #87	; 0x57
 80086f8:	2b0a      	cmp	r3, #10
 80086fa:	bf38      	it	cc
 80086fc:	f103 0430 	addcc.w	r4, r3, #48	; 0x30
 8008700:	f802 4c04 	strb.w	r4, [r2, #-4]
 8008704:	0b04      	lsrs	r4, r0, #12
 8008706:	d017      	beq.n	8008738 <_ZN4core3fmt3num53_$LT$impl$u20$core..fmt..LowerHex$u20$for$u20$i32$GT$3fmt17hed057ab3a37dd4b5E+0x8e>
 8008708:	f004 030f 	and.w	r3, r4, #15
 800870c:	4675      	mov	r5, lr
 800870e:	f103 0457 	add.w	r4, r3, #87	; 0x57
 8008712:	2b0a      	cmp	r3, #10
 8008714:	bf38      	it	cc
 8008716:	f103 0430 	addcc.w	r4, r3, #48	; 0x30
 800871a:	0c00      	lsrs	r0, r0, #16
 800871c:	f802 4c05 	strb.w	r4, [r2, #-5]
 8008720:	d1ca      	bne.n	80086b8 <_ZN4core3fmt3num53_$LT$impl$u20$core..fmt..LowerHex$u20$for$u20$i32$GT$3fmt17hed057ab3a37dd4b5E+0xe>
 8008722:	f1ae 0001 	sub.w	r0, lr, #1
 8008726:	e00a      	b.n	800873e <_ZN4core3fmt3num53_$LT$impl$u20$core..fmt..LowerHex$u20$for$u20$i32$GT$3fmt17hed057ab3a37dd4b5E+0x94>
 8008728:	1ea8      	subs	r0, r5, #2
 800872a:	f1a5 0e01 	sub.w	lr, r5, #1
 800872e:	e006      	b.n	800873e <_ZN4core3fmt3num53_$LT$impl$u20$core..fmt..LowerHex$u20$for$u20$i32$GT$3fmt17hed057ab3a37dd4b5E+0x94>
 8008730:	1ee8      	subs	r0, r5, #3
 8008732:	f1a5 0e02 	sub.w	lr, r5, #2
 8008736:	e002      	b.n	800873e <_ZN4core3fmt3num53_$LT$impl$u20$core..fmt..LowerHex$u20$for$u20$i32$GT$3fmt17hed057ab3a37dd4b5E+0x94>
 8008738:	1eea      	subs	r2, r5, #3
 800873a:	4670      	mov	r0, lr
 800873c:	4696      	mov	lr, r2
 800873e:	2881      	cmp	r0, #129	; 0x81
 8008740:	d20f      	bcs.n	8008762 <_ZN4core3fmt3num53_$LT$impl$u20$core..fmt..LowerHex$u20$for$u20$i32$GT$3fmt17hed057ab3a37dd4b5E+0xb8>
 8008742:	f1ce 0281 	rsb	r2, lr, #129	; 0x81
 8008746:	4460      	add	r0, ip
 8008748:	2302      	movs	r3, #2
 800874a:	e9cd 0200 	strd	r0, r2, [sp]
 800874e:	f649 72b8 	movw	r2, #40888	; 0x9fb8
 8008752:	4608      	mov	r0, r1
 8008754:	f6c0 0200 	movt	r2, #2048	; 0x800
 8008758:	2101      	movs	r1, #1
 800875a:	f7ff f8a7 	bl	80078ac <_ZN4core3fmt9Formatter12pad_integral17h9d644e0034e1f29aE>
 800875e:	b022      	add	sp, #136	; 0x88
 8008760:	bdb0      	pop	{r4, r5, r7, pc}
 8008762:	f649 72a8 	movw	r2, #40872	; 0x9fa8
 8008766:	2180      	movs	r1, #128	; 0x80
 8008768:	f6c0 0200 	movt	r2, #2048	; 0x800
 800876c:	f7ff fbca 	bl	8007f04 <_ZN4core5slice5index26slice_start_index_len_fail17h94ea6430e5c26759E>

08008770 <_ZN4core3fmt3num53_$LT$impl$u20$core..fmt..UpperHex$u20$for$u20$i32$GT$3fmt17had03ae556ba11d1aE>:
 8008770:	b5b0      	push	{r4, r5, r7, lr}
 8008772:	af02      	add	r7, sp, #8
 8008774:	b0a2      	sub	sp, #136	; 0x88
 8008776:	6800      	ldr	r0, [r0, #0]
 8008778:	f10d 0c08 	add.w	ip, sp, #8
 800877c:	2581      	movs	r5, #129	; 0x81
 800877e:	f000 020f 	and.w	r2, r0, #15
 8008782:	f102 0437 	add.w	r4, r2, #55	; 0x37
 8008786:	2a0a      	cmp	r2, #10
 8008788:	bf38      	it	cc
 800878a:	f102 0430 	addcc.w	r4, r2, #48	; 0x30
 800878e:	eb0c 0205 	add.w	r2, ip, r5
 8008792:	f802 4c02 	strb.w	r4, [r2, #-2]
 8008796:	0904      	lsrs	r4, r0, #4
 8008798:	d029      	beq.n	80087ee <_ZN4core3fmt3num53_$LT$impl$u20$core..fmt..UpperHex$u20$for$u20$i32$GT$3fmt17had03ae556ba11d1aE+0x7e>
 800879a:	f004 040f 	and.w	r4, r4, #15
 800879e:	f104 0337 	add.w	r3, r4, #55	; 0x37
 80087a2:	2c0a      	cmp	r4, #10
 80087a4:	bf38      	it	cc
 80087a6:	f104 0330 	addcc.w	r3, r4, #48	; 0x30
 80087aa:	0a04      	lsrs	r4, r0, #8
 80087ac:	f802 3c03 	strb.w	r3, [r2, #-3]
 80087b0:	d021      	beq.n	80087f6 <_ZN4core3fmt3num53_$LT$impl$u20$core..fmt..UpperHex$u20$for$u20$i32$GT$3fmt17had03ae556ba11d1aE+0x86>
 80087b2:	f004 030f 	and.w	r3, r4, #15
 80087b6:	f1a5 0e04 	sub.w	lr, r5, #4
 80087ba:	f103 0437 	add.w	r4, r3, #55	; 0x37
 80087be:	2b0a      	cmp	r3, #10
 80087c0:	bf38      	it	cc
 80087c2:	f103 0430 	addcc.w	r4, r3, #48	; 0x30
 80087c6:	f802 4c04 	strb.w	r4, [r2, #-4]
 80087ca:	0b04      	lsrs	r4, r0, #12
 80087cc:	d017      	beq.n	80087fe <_ZN4core3fmt3num53_$LT$impl$u20$core..fmt..UpperHex$u20$for$u20$i32$GT$3fmt17had03ae556ba11d1aE+0x8e>
 80087ce:	f004 030f 	and.w	r3, r4, #15
 80087d2:	4675      	mov	r5, lr
 80087d4:	f103 0437 	add.w	r4, r3, #55	; 0x37
 80087d8:	2b0a      	cmp	r3, #10
 80087da:	bf38      	it	cc
 80087dc:	f103 0430 	addcc.w	r4, r3, #48	; 0x30
 80087e0:	0c00      	lsrs	r0, r0, #16
 80087e2:	f802 4c05 	strb.w	r4, [r2, #-5]
 80087e6:	d1ca      	bne.n	800877e <_ZN4core3fmt3num53_$LT$impl$u20$core..fmt..UpperHex$u20$for$u20$i32$GT$3fmt17had03ae556ba11d1aE+0xe>
 80087e8:	f1ae 0001 	sub.w	r0, lr, #1
 80087ec:	e00a      	b.n	8008804 <_ZN4core3fmt3num53_$LT$impl$u20$core..fmt..UpperHex$u20$for$u20$i32$GT$3fmt17had03ae556ba11d1aE+0x94>
 80087ee:	1ea8      	subs	r0, r5, #2
 80087f0:	f1a5 0e01 	sub.w	lr, r5, #1
 80087f4:	e006      	b.n	8008804 <_ZN4core3fmt3num53_$LT$impl$u20$core..fmt..UpperHex$u20$for$u20$i32$GT$3fmt17had03ae556ba11d1aE+0x94>
 80087f6:	1ee8      	subs	r0, r5, #3
 80087f8:	f1a5 0e02 	sub.w	lr, r5, #2
 80087fc:	e002      	b.n	8008804 <_ZN4core3fmt3num53_$LT$impl$u20$core..fmt..UpperHex$u20$for$u20$i32$GT$3fmt17had03ae556ba11d1aE+0x94>
 80087fe:	1eea      	subs	r2, r5, #3
 8008800:	4670      	mov	r0, lr
 8008802:	4696      	mov	lr, r2
 8008804:	2881      	cmp	r0, #129	; 0x81
 8008806:	d20f      	bcs.n	8008828 <_ZN4core3fmt3num53_$LT$impl$u20$core..fmt..UpperHex$u20$for$u20$i32$GT$3fmt17had03ae556ba11d1aE+0xb8>
 8008808:	f1ce 0281 	rsb	r2, lr, #129	; 0x81
 800880c:	4460      	add	r0, ip
 800880e:	2302      	movs	r3, #2
 8008810:	e9cd 0200 	strd	r0, r2, [sp]
 8008814:	f649 72b8 	movw	r2, #40888	; 0x9fb8
 8008818:	4608      	mov	r0, r1
 800881a:	f6c0 0200 	movt	r2, #2048	; 0x800
 800881e:	2101      	movs	r1, #1
 8008820:	f7ff f844 	bl	80078ac <_ZN4core3fmt9Formatter12pad_integral17h9d644e0034e1f29aE>
 8008824:	b022      	add	sp, #136	; 0x88
 8008826:	bdb0      	pop	{r4, r5, r7, pc}
 8008828:	f649 72a8 	movw	r2, #40872	; 0x9fa8
 800882c:	2180      	movs	r1, #128	; 0x80
 800882e:	f6c0 0200 	movt	r2, #2048	; 0x800
 8008832:	f7ff fb67 	bl	8007f04 <_ZN4core5slice5index26slice_start_index_len_fail17h94ea6430e5c26759E>

08008836 <_ZN4core3fmt3num3imp52_$LT$impl$u20$core..fmt..Display$u20$for$u20$u16$GT$3fmt17h6b9183805536f102E>:
 8008836:	b580      	push	{r7, lr}
 8008838:	466f      	mov	r7, sp
 800883a:	b08c      	sub	sp, #48	; 0x30
 800883c:	8800      	ldrh	r0, [r0, #0]
 800883e:	f242 720f 	movw	r2, #9999	; 0x270f
 8008842:	468c      	mov	ip, r1
 8008844:	4290      	cmp	r0, r2
 8008846:	d920      	bls.n	800888a <_ZN4core3fmt3num3imp52_$LT$impl$u20$core..fmt..Display$u20$for$u20$u16$GT$3fmt17h6b9183805536f102E+0x54>
 8008848:	0902      	lsrs	r2, r0, #4
 800884a:	f240 3347 	movw	r3, #839	; 0x347
 800884e:	435a      	muls	r2, r3
 8008850:	f242 7310 	movw	r3, #10000	; 0x2710
 8008854:	f241 417b 	movw	r1, #5243	; 0x147b
 8008858:	0cd2      	lsrs	r2, r2, #19
 800885a:	fb02 0013 	mls	r0, r2, r3, r0
 800885e:	b283      	uxth	r3, r0
 8008860:	089b      	lsrs	r3, r3, #2
 8008862:	4359      	muls	r1, r3
 8008864:	2364      	movs	r3, #100	; 0x64
 8008866:	0c49      	lsrs	r1, r1, #17
 8008868:	fb01 0013 	mls	r0, r1, r3, r0
 800886c:	f649 73ba 	movw	r3, #40890	; 0x9fba
 8008870:	f6c0 0300 	movt	r3, #2048	; 0x800
 8008874:	f833 1011 	ldrh.w	r1, [r3, r1, lsl #1]
 8008878:	f827 1c04 	strh.w	r1, [r7, #-4]
 800887c:	b280      	uxth	r0, r0
 800887e:	f833 0010 	ldrh.w	r0, [r3, r0, lsl #1]
 8008882:	2323      	movs	r3, #35	; 0x23
 8008884:	f827 0c02 	strh.w	r0, [r7, #-2]
 8008888:	e021      	b.n	80088ce <_ZN4core3fmt3num3imp52_$LT$impl$u20$core..fmt..Display$u20$for$u20$u16$GT$3fmt17h6b9183805536f102E+0x98>
 800888a:	f649 72ba 	movw	r2, #40890	; 0x9fba
 800888e:	2863      	cmp	r0, #99	; 0x63
 8008890:	f6c0 0200 	movt	r2, #2048	; 0x800
 8008894:	d917      	bls.n	80088c6 <_ZN4core3fmt3num3imp52_$LT$impl$u20$core..fmt..Display$u20$for$u20$u16$GT$3fmt17h6b9183805536f102E+0x90>
 8008896:	0881      	lsrs	r1, r0, #2
 8008898:	f241 437b 	movw	r3, #5243	; 0x147b
 800889c:	4359      	muls	r1, r3
 800889e:	2364      	movs	r3, #100	; 0x64
 80088a0:	0c49      	lsrs	r1, r1, #17
 80088a2:	fb01 0013 	mls	r0, r1, r3, r0
 80088a6:	2325      	movs	r3, #37	; 0x25
 80088a8:	b280      	uxth	r0, r0
 80088aa:	f832 0010 	ldrh.w	r0, [r2, r0, lsl #1]
 80088ae:	f827 0c02 	strh.w	r0, [r7, #-2]
 80088b2:	4608      	mov	r0, r1
 80088b4:	280a      	cmp	r0, #10
 80088b6:	d309      	bcc.n	80088cc <_ZN4core3fmt3num3imp52_$LT$impl$u20$core..fmt..Display$u20$for$u20$u16$GT$3fmt17h6b9183805536f102E+0x96>
 80088b8:	3b02      	subs	r3, #2
 80088ba:	f832 0010 	ldrh.w	r0, [r2, r0, lsl #1]
 80088be:	f1a7 0127 	sub.w	r1, r7, #39	; 0x27
 80088c2:	52c8      	strh	r0, [r1, r3]
 80088c4:	e009      	b.n	80088da <_ZN4core3fmt3num3imp52_$LT$impl$u20$core..fmt..Display$u20$for$u20$u16$GT$3fmt17h6b9183805536f102E+0xa4>
 80088c6:	2327      	movs	r3, #39	; 0x27
 80088c8:	280a      	cmp	r0, #10
 80088ca:	d2f5      	bcs.n	80088b8 <_ZN4core3fmt3num3imp52_$LT$impl$u20$core..fmt..Display$u20$for$u20$u16$GT$3fmt17h6b9183805536f102E+0x82>
 80088cc:	4602      	mov	r2, r0
 80088ce:	3b01      	subs	r3, #1
 80088d0:	f1a7 0127 	sub.w	r1, r7, #39	; 0x27
 80088d4:	f042 0030 	orr.w	r0, r2, #48	; 0x30
 80088d8:	54c8      	strb	r0, [r1, r3]
 80088da:	f1c3 0027 	rsb	r0, r3, #39	; 0x27
 80088de:	4419      	add	r1, r3
 80088e0:	2201      	movs	r2, #1
 80088e2:	2300      	movs	r3, #0
 80088e4:	e9cd 1000 	strd	r1, r0, [sp]
 80088e8:	4660      	mov	r0, ip
 80088ea:	2101      	movs	r1, #1
 80088ec:	f7fe ffde 	bl	80078ac <_ZN4core3fmt9Formatter12pad_integral17h9d644e0034e1f29aE>
 80088f0:	b00c      	add	sp, #48	; 0x30
 80088f2:	bd80      	pop	{r7, pc}

080088f4 <_ZN4core3fmt3num3imp52_$LT$impl$u20$core..fmt..Display$u20$for$u20$u32$GT$3fmt17h40b2fa13966344ccE>:
 80088f4:	b5f0      	push	{r4, r5, r6, r7, lr}
 80088f6:	af03      	add	r7, sp, #12
 80088f8:	e92d 0f00 	stmdb	sp!, {r8, r9, sl, fp}
 80088fc:	b08d      	sub	sp, #52	; 0x34
 80088fe:	6804      	ldr	r4, [r0, #0]
 8008900:	f649 70ba 	movw	r0, #40890	; 0x9fba
 8008904:	f242 7e10 	movw	lr, #10000	; 0x2710
 8008908:	460d      	mov	r5, r1
 800890a:	4574      	cmp	r4, lr
 800890c:	f6c0 0000 	movt	r0, #2048	; 0x800
 8008910:	d33d      	bcc.n	800898e <_ZN4core3fmt3num3imp52_$LT$impl$u20$core..fmt..Display$u20$for$u20$u32$GT$3fmt17h40b2fa13966344ccE+0x9a>
 8008912:	f241 7859 	movw	r8, #5977	; 0x1759
 8008916:	f24e 03ff 	movw	r3, #57599	; 0xe0ff
 800891a:	f1a7 0b43 	sub.w	fp, r7, #67	; 0x43
 800891e:	2100      	movs	r1, #0
 8008920:	f2cd 18b7 	movt	r8, #53687	; 0xd1b7
 8008924:	f241 497b 	movw	r9, #5243	; 0x147b
 8008928:	f04f 0a64 	mov.w	sl, #100	; 0x64
 800892c:	f2c0 53f5 	movt	r3, #1525	; 0x5f5
 8008930:	9502      	str	r5, [sp, #8]
 8008932:	fba4 2508 	umull	r2, r5, r4, r8
 8008936:	eb0b 0c01 	add.w	ip, fp, r1
 800893a:	3904      	subs	r1, #4
 800893c:	429c      	cmp	r4, r3
 800893e:	ea4f 3255 	mov.w	r2, r5, lsr #13
 8008942:	fb02 451e 	mls	r5, r2, lr, r4
 8008946:	4614      	mov	r4, r2
 8008948:	b2ae      	uxth	r6, r5
 800894a:	ea4f 0696 	mov.w	r6, r6, lsr #2
 800894e:	fb06 f609 	mul.w	r6, r6, r9
 8008952:	ea4f 4656 	mov.w	r6, r6, lsr #17
 8008956:	fb06 551a 	mls	r5, r6, sl, r5
 800895a:	f830 6016 	ldrh.w	r6, [r0, r6, lsl #1]
 800895e:	f8ac 6023 	strh.w	r6, [ip, #35]	; 0x23
 8008962:	b2ad      	uxth	r5, r5
 8008964:	f830 5015 	ldrh.w	r5, [r0, r5, lsl #1]
 8008968:	f8ac 5025 	strh.w	r5, [ip, #37]	; 0x25
 800896c:	d8e1      	bhi.n	8008932 <_ZN4core3fmt3num3imp52_$LT$impl$u20$core..fmt..Display$u20$for$u20$u32$GT$3fmt17h40b2fa13966344ccE+0x3e>
 800896e:	9d02      	ldr	r5, [sp, #8]
 8008970:	f101 0327 	add.w	r3, r1, #39	; 0x27
 8008974:	4614      	mov	r4, r2
 8008976:	2c63      	cmp	r4, #99	; 0x63
 8008978:	d80c      	bhi.n	8008994 <_ZN4core3fmt3num3imp52_$LT$impl$u20$core..fmt..Display$u20$for$u20$u32$GT$3fmt17h40b2fa13966344ccE+0xa0>
 800897a:	4621      	mov	r1, r4
 800897c:	290a      	cmp	r1, #10
 800897e:	d31b      	bcc.n	80089b8 <_ZN4core3fmt3num3imp52_$LT$impl$u20$core..fmt..Display$u20$for$u20$u32$GT$3fmt17h40b2fa13966344ccE+0xc4>
 8008980:	f830 0011 	ldrh.w	r0, [r0, r1, lsl #1]
 8008984:	1e9a      	subs	r2, r3, #2
 8008986:	f1a7 0143 	sub.w	r1, r7, #67	; 0x43
 800898a:	5288      	strh	r0, [r1, r2]
 800898c:	e01a      	b.n	80089c4 <_ZN4core3fmt3num3imp52_$LT$impl$u20$core..fmt..Display$u20$for$u20$u32$GT$3fmt17h40b2fa13966344ccE+0xd0>
 800898e:	2327      	movs	r3, #39	; 0x27
 8008990:	2c63      	cmp	r4, #99	; 0x63
 8008992:	d9f2      	bls.n	800897a <_ZN4core3fmt3num3imp52_$LT$impl$u20$core..fmt..Display$u20$for$u20$u32$GT$3fmt17h40b2fa13966344ccE+0x86>
 8008994:	b2a1      	uxth	r1, r4
 8008996:	f241 427b 	movw	r2, #5243	; 0x147b
 800899a:	0889      	lsrs	r1, r1, #2
 800899c:	3b02      	subs	r3, #2
 800899e:	4351      	muls	r1, r2
 80089a0:	2264      	movs	r2, #100	; 0x64
 80089a2:	f1a7 0643 	sub.w	r6, r7, #67	; 0x43
 80089a6:	0c49      	lsrs	r1, r1, #17
 80089a8:	fb01 4212 	mls	r2, r1, r2, r4
 80089ac:	b292      	uxth	r2, r2
 80089ae:	f830 2012 	ldrh.w	r2, [r0, r2, lsl #1]
 80089b2:	52f2      	strh	r2, [r6, r3]
 80089b4:	290a      	cmp	r1, #10
 80089b6:	d2e3      	bcs.n	8008980 <_ZN4core3fmt3num3imp52_$LT$impl$u20$core..fmt..Display$u20$for$u20$u32$GT$3fmt17h40b2fa13966344ccE+0x8c>
 80089b8:	f041 0030 	orr.w	r0, r1, #48	; 0x30
 80089bc:	1e5a      	subs	r2, r3, #1
 80089be:	f1a7 0143 	sub.w	r1, r7, #67	; 0x43
 80089c2:	5488      	strb	r0, [r1, r2]
 80089c4:	f1c2 0027 	rsb	r0, r2, #39	; 0x27
 80089c8:	4411      	add	r1, r2
 80089ca:	2201      	movs	r2, #1
 80089cc:	2300      	movs	r3, #0
 80089ce:	e9cd 1000 	strd	r1, r0, [sp]
 80089d2:	4628      	mov	r0, r5
 80089d4:	2101      	movs	r1, #1
 80089d6:	f7fe ff69 	bl	80078ac <_ZN4core3fmt9Formatter12pad_integral17h9d644e0034e1f29aE>
 80089da:	b00d      	add	sp, #52	; 0x34
 80089dc:	e8bd 0f00 	ldmia.w	sp!, {r8, r9, sl, fp}
 80089e0:	bdf0      	pop	{r4, r5, r6, r7, pc}

080089e2 <_ZN42_$LT$$RF$T$u20$as$u20$core..fmt..Debug$GT$3fmt17h94b5fdc589a59813E>:
 80089e2:	e9d0 0200 	ldrd	r0, r2, [r0]
 80089e6:	68d2      	ldr	r2, [r2, #12]
 80089e8:	4710      	bx	r2

080089ea <_ZN44_$LT$$RF$T$u20$as$u20$core..fmt..Display$GT$3fmt17ha7f3fa0911d7b937E>:
 80089ea:	460b      	mov	r3, r1
 80089ec:	e9d0 1200 	ldrd	r1, r2, [r0]
 80089f0:	4618      	mov	r0, r3
 80089f2:	f7ff b8e7 	b.w	8007bc4 <_ZN4core3fmt9Formatter3pad17h0369ee55ba314ae2E>

080089f6 <HardFaultTrampoline>:
 80089f6:	4670      	mov	r0, lr
 80089f8:	2104      	movs	r1, #4
 80089fa:	4208      	tst	r0, r1
 80089fc:	d102      	bne.n	8008a04 <HardFaultTrampoline+0xe>
 80089fe:	f3ef 8008 	mrs	r0, MSP
 8008a02:	e002      	b.n	8008a0a <HardFault_>
 8008a04:	f3ef 8009 	mrs	r0, PSP
 8008a08:	e7ff      	b.n	8008a0a <HardFault_>

08008a0a <HardFault_>:
 8008a0a:	b580      	push	{r7, lr}
 8008a0c:	466f      	mov	r7, sp
 8008a0e:	b082      	sub	sp, #8
 8008a10:	9001      	str	r0, [sp, #4]
 8008a12:	e7ff      	b.n	8008a14 <HardFault_+0xa>
 8008a14:	2004      	movs	r0, #4
 8008a16:	f807 0c05 	strb.w	r0, [r7, #-5]
 8008a1a:	f817 0c05 	ldrb.w	r0, [r7, #-5]
 8008a1e:	f7fe fbdb 	bl	80071d8 <_ZN4core4sync6atomic14compiler_fence17hd7a7737ee8bcf2eeE>
 8008a22:	e7f7      	b.n	8008a14 <HardFault_+0xa>
